   1               		.file	"nrk_stats.c"
   2               	__SREG__ = 0x3f
   3               	__SP_H__ = 0x3e
   4               	__SP_L__ = 0x3d
   5               	__CCP__ = 0x34
   6               	__tmp_reg__ = 0
   7               	__zero_reg__ = 1
  10               		.text
  11               	.Ltext0:
 139               	.global	nrk_stats_reset
 141               	nrk_stats_reset:
 142               		.stabd	46,0,0
   1:../../../src/kernel/source/nrk_stats.c **** #include <nrk.h>
   2:../../../src/kernel/source/nrk_stats.c **** #include <nrk_stats.h>
   3:../../../src/kernel/source/nrk_stats.c **** #include <nrk_time.h>
   4:../../../src/kernel/source/nrk_stats.c **** #include <nrk_defs.h>
   5:../../../src/kernel/source/nrk_stats.c **** #include <nrk_error.h>
   6:../../../src/kernel/source/nrk_stats.c **** #include <stdio.h>
   7:../../../src/kernel/source/nrk_stats.c **** 
   8:../../../src/kernel/source/nrk_stats.c **** #ifdef NRK_STATS_TRACKER
   9:../../../src/kernel/source/nrk_stats.c **** void nrk_stats_reset()
  10:../../../src/kernel/source/nrk_stats.c **** {
 144               	.LM0:
 145               	.LFBB1:
 146               	/* prologue: function */
 147               	/* frame size = 0 */
 148               	/* stack size = 0 */
 149               	.L__stack_usage = 0
  11:../../../src/kernel/source/nrk_stats.c ****     uint8_t i;
  12:../../../src/kernel/source/nrk_stats.c **** 
  13:../../../src/kernel/source/nrk_stats.c ****     _nrk_stats_sleep_time.secs=0;
 151               	.LM1:
 152 0000 1092 0000 		sts _nrk_stats_sleep_time,__zero_reg__
 153 0004 1092 0000 		sts _nrk_stats_sleep_time+1,__zero_reg__
 154 0008 1092 0000 		sts _nrk_stats_sleep_time+2,__zero_reg__
 155 000c 1092 0000 		sts _nrk_stats_sleep_time+3,__zero_reg__
  14:../../../src/kernel/source/nrk_stats.c ****     _nrk_stats_sleep_time.nano_secs=0;
 157               	.LM2:
 158 0010 1092 0000 		sts _nrk_stats_sleep_time+4,__zero_reg__
 159 0014 1092 0000 		sts _nrk_stats_sleep_time+4+1,__zero_reg__
 160 0018 1092 0000 		sts _nrk_stats_sleep_time+4+2,__zero_reg__
 161 001c 1092 0000 		sts _nrk_stats_sleep_time+4+3,__zero_reg__
 162 0020 E0E0      		ldi r30,lo8(cur_task_stats)
 163 0022 F0E0      		ldi r31,hi8(cur_task_stats)
 164               	.L2:
  15:../../../src/kernel/source/nrk_stats.c ****     for(i=0; i<NRK_MAX_TASKS; i++ )
  16:../../../src/kernel/source/nrk_stats.c ****     {
  17:../../../src/kernel/source/nrk_stats.c ****         cur_task_stats[i].total_ticks=0;
 166               	.LM3:
 167 0024 1082      		st Z,__zero_reg__
 168 0026 1182      		std Z+1,__zero_reg__
 169 0028 1282      		std Z+2,__zero_reg__
 170 002a 1382      		std Z+3,__zero_reg__
  18:../../../src/kernel/source/nrk_stats.c ****         cur_task_stats[i].max_exec_ticks=0;
 172               	.LM4:
 173 002c 1086      		std Z+8,__zero_reg__
 174 002e 1186      		std Z+9,__zero_reg__
 175 0030 1286      		std Z+10,__zero_reg__
 176 0032 1386      		std Z+11,__zero_reg__
  19:../../../src/kernel/source/nrk_stats.c ****         cur_task_stats[i].min_exec_ticks=0;
 178               	.LM5:
 179 0034 1482      		std Z+4,__zero_reg__
 180 0036 1582      		std Z+5,__zero_reg__
 181 0038 1682      		std Z+6,__zero_reg__
 182 003a 1782      		std Z+7,__zero_reg__
  20:../../../src/kernel/source/nrk_stats.c ****         cur_task_stats[i].last_exec_ticks=0;
 184               	.LM6:
 185 003c 1486      		std Z+12,__zero_reg__
 186 003e 1586      		std Z+13,__zero_reg__
 187 0040 1686      		std Z+14,__zero_reg__
 188 0042 1786      		std Z+15,__zero_reg__
  21:../../../src/kernel/source/nrk_stats.c ****         cur_task_stats[i].swapped_in=0;
 190               	.LM7:
 191 0044 108A      		std Z+16,__zero_reg__
 192 0046 118A      		std Z+17,__zero_reg__
 193 0048 128A      		std Z+18,__zero_reg__
 194 004a 138A      		std Z+19,__zero_reg__
  22:../../../src/kernel/source/nrk_stats.c ****         cur_task_stats[i].preempted=0;
 196               	.LM8:
 197 004c 108E      		std Z+24,__zero_reg__
 198 004e 118E      		std Z+25,__zero_reg__
 199 0050 128E      		std Z+26,__zero_reg__
 200 0052 138E      		std Z+27,__zero_reg__
  23:../../../src/kernel/source/nrk_stats.c ****         cur_task_stats[i].violations=0;
 202               	.LM9:
 203 0054 148E      		std Z+28,__zero_reg__
  24:../../../src/kernel/source/nrk_stats.c ****         cur_task_stats[i].overflow=0;
 205               	.LM10:
 206 0056 158E      		std Z+29,__zero_reg__
 207 0058 7E96      		adiw r30,30
  15:../../../src/kernel/source/nrk_stats.c ****     for(i=0; i<NRK_MAX_TASKS; i++ )
 209               	.LM11:
 210 005a 80E0      		ldi r24,hi8(cur_task_stats+150)
 211 005c E030      		cpi r30,lo8(cur_task_stats+150)
 212 005e F807      		cpc r31,r24
 213 0060 01F4      		brne .L2
 214               	/* epilogue start */
  25:../../../src/kernel/source/nrk_stats.c ****     }
  26:../../../src/kernel/source/nrk_stats.c **** 
  27:../../../src/kernel/source/nrk_stats.c **** }
 216               	.LM12:
 217 0062 0895      		ret
 219               	.Lscope1:
 221               		.stabd	78,0,0
 224               	.global	_nrk_stats_sleep
 226               	_nrk_stats_sleep:
 227               		.stabd	46,0,0
  28:../../../src/kernel/source/nrk_stats.c **** 
  29:../../../src/kernel/source/nrk_stats.c **** 
  30:../../../src/kernel/source/nrk_stats.c **** void _nrk_stats_sleep(uint8_t t)
  31:../../../src/kernel/source/nrk_stats.c **** {
 229               	.LM13:
 230               	.LFBB2:
 231               	/* prologue: function */
 232               	/* frame size = 0 */
 233               	/* stack size = 0 */
 234               	.L__stack_usage = 0
  32:../../../src/kernel/source/nrk_stats.c **** //_nrk_stats_sleep_time+=t;
  33:../../../src/kernel/source/nrk_stats.c ****     _nrk_stats_sleep_time.nano_secs+=t*NANOS_PER_TICK;
 236               	.LM14:
 237 0064 682F      		mov r22,r24
 238 0066 70E0      		ldi r23,lo8(0)
 239 0068 80E0      		ldi r24,lo8(0)
 240 006a 90E0      		ldi r25,hi8(0)
 241 006c 23EB      		ldi r18,lo8(976563)
 242 006e 36EE      		ldi r19,hi8(976563)
 243 0070 4EE0      		ldi r20,hlo8(976563)
 244 0072 50E0      		ldi r21,hhi8(976563)
 245 0074 0E94 0000 		call __mulsi3
 246 0078 2091 0000 		lds r18,_nrk_stats_sleep_time+4
 247 007c 3091 0000 		lds r19,_nrk_stats_sleep_time+4+1
 248 0080 4091 0000 		lds r20,_nrk_stats_sleep_time+4+2
 249 0084 5091 0000 		lds r21,_nrk_stats_sleep_time+4+3
 250 0088 620F      		add r22,r18
 251 008a 731F      		adc r23,r19
 252 008c 841F      		adc r24,r20
 253 008e 951F      		adc r25,r21
 254 0090 6093 0000 		sts _nrk_stats_sleep_time+4,r22
 255 0094 7093 0000 		sts _nrk_stats_sleep_time+4+1,r23
 256 0098 8093 0000 		sts _nrk_stats_sleep_time+4+2,r24
 257 009c 9093 0000 		sts _nrk_stats_sleep_time+4+3,r25
  34:../../../src/kernel/source/nrk_stats.c ****     nrk_time_compact_nanos(&_nrk_stats_sleep_time);
 259               	.LM15:
 260 00a0 80E0      		ldi r24,lo8(_nrk_stats_sleep_time)
 261 00a2 90E0      		ldi r25,hi8(_nrk_stats_sleep_time)
 262 00a4 0E94 0000 		call nrk_time_compact_nanos
 263               	/* epilogue start */
  35:../../../src/kernel/source/nrk_stats.c **** }
 265               	.LM16:
 266 00a8 0895      		ret
 268               	.Lscope2:
 270               		.stabd	78,0,0
 273               	.global	nrk_stats_get_deep_sleep
 275               	nrk_stats_get_deep_sleep:
 276               		.stabd	46,0,0
  36:../../../src/kernel/source/nrk_stats.c **** 
  37:../../../src/kernel/source/nrk_stats.c **** void nrk_stats_get_deep_sleep(nrk_time_t *t)
  38:../../../src/kernel/source/nrk_stats.c **** {
 278               	.LM17:
 279               	.LFBB3:
 280               	/* prologue: function */
 281               	/* frame size = 0 */
 282               	/* stack size = 0 */
 283               	.L__stack_usage = 0
 284 00aa FC01      		movw r30,r24
  39:../../../src/kernel/source/nrk_stats.c ****     t->secs=_nrk_stats_sleep_time.secs;
 286               	.LM18:
 287 00ac 2091 0000 		lds r18,_nrk_stats_sleep_time
 288 00b0 3091 0000 		lds r19,_nrk_stats_sleep_time+1
 289 00b4 4091 0000 		lds r20,_nrk_stats_sleep_time+2
 290 00b8 5091 0000 		lds r21,_nrk_stats_sleep_time+3
 291 00bc 2083      		st Z,r18
 292 00be 3183      		std Z+1,r19
 293 00c0 4283      		std Z+2,r20
 294 00c2 5383      		std Z+3,r21
  40:../../../src/kernel/source/nrk_stats.c ****     t->nano_secs=_nrk_stats_sleep_time.nano_secs;
 296               	.LM19:
 297 00c4 2091 0000 		lds r18,_nrk_stats_sleep_time+4
 298 00c8 3091 0000 		lds r19,_nrk_stats_sleep_time+4+1
 299 00cc 4091 0000 		lds r20,_nrk_stats_sleep_time+4+2
 300 00d0 5091 0000 		lds r21,_nrk_stats_sleep_time+4+3
 301 00d4 2483      		std Z+4,r18
 302 00d6 3583      		std Z+5,r19
 303 00d8 4683      		std Z+6,r20
 304 00da 5783      		std Z+7,r21
 305               	/* epilogue start */
  41:../../../src/kernel/source/nrk_stats.c **** }
 307               	.LM20:
 308 00dc 0895      		ret
 310               	.Lscope3:
 312               		.stabd	78,0,0
 315               	.global	_nrk_stats_add_violation
 317               	_nrk_stats_add_violation:
 318               		.stabd	46,0,0
  42:../../../src/kernel/source/nrk_stats.c **** 
  43:../../../src/kernel/source/nrk_stats.c **** void _nrk_stats_add_violation(uint8_t task_id)
  44:../../../src/kernel/source/nrk_stats.c **** {
 320               	.LM21:
 321               	.LFBB4:
 322               	/* prologue: function */
 323               	/* frame size = 0 */
 324               	/* stack size = 0 */
 325               	.L__stack_usage = 0
  45:../../../src/kernel/source/nrk_stats.c ****     if( cur_task_stats[task_id].overflow==1) return;
 327               	.LM22:
 328 00de E82F      		mov r30,r24
 329 00e0 F0E0      		ldi r31,lo8(0)
 330 00e2 9F01      		movw r18,r30
 331 00e4 220F      		lsl r18
 332 00e6 331F      		rol r19
 333 00e8 A5E0      		ldi r26,5
 334 00ea EE0F      	1:	lsl r30
 335 00ec FF1F      		rol r31
 336 00ee AA95      		dec r26
 337 00f0 01F4      		brne 1b
 338 00f2 E21B      		sub r30,r18
 339 00f4 F30B      		sbc r31,r19
 340 00f6 E050      		subi r30,lo8(-(cur_task_stats))
 341 00f8 F040      		sbci r31,hi8(-(cur_task_stats))
 342 00fa 958D      		ldd r25,Z+29
 343 00fc 9130      		cpi r25,lo8(1)
 344 00fe 01F0      		breq .L6
  46:../../../src/kernel/source/nrk_stats.c ****     cur_task_stats[task_id].violations++;
 346               	.LM23:
 347 0100 E82F      		mov r30,r24
 348 0102 F0E0      		ldi r31,lo8(0)
 349 0104 9F01      		movw r18,r30
 350 0106 220F      		lsl r18
 351 0108 331F      		rol r19
 352 010a 65E0      		ldi r22,5
 353 010c EE0F      	1:	lsl r30
 354 010e FF1F      		rol r31
 355 0110 6A95      		dec r22
 356 0112 01F4      		brne 1b
 357 0114 E21B      		sub r30,r18
 358 0116 F30B      		sbc r31,r19
 359 0118 E050      		subi r30,lo8(-(cur_task_stats))
 360 011a F040      		sbci r31,hi8(-(cur_task_stats))
 361 011c 948D      		ldd r25,Z+28
 362 011e 9F5F      		subi r25,lo8(-(1))
 363 0120 E82F      		mov r30,r24
 364 0122 F0E0      		ldi r31,lo8(0)
 365 0124 9F01      		movw r18,r30
 366 0126 220F      		lsl r18
 367 0128 331F      		rol r19
 368 012a 45E0      		ldi r20,5
 369 012c EE0F      	1:	lsl r30
 370 012e FF1F      		rol r31
 371 0130 4A95      		dec r20
 372 0132 01F4      		brne 1b
 373 0134 E21B      		sub r30,r18
 374 0136 F30B      		sbc r31,r19
 375 0138 E050      		subi r30,lo8(-(cur_task_stats))
 376 013a F040      		sbci r31,hi8(-(cur_task_stats))
 377 013c 948F      		std Z+28,r25
  47:../../../src/kernel/source/nrk_stats.c ****     if(cur_task_stats[task_id].violations==255) cur_task_stats[task_id].overflow=1;
 379               	.LM24:
 380 013e 9F3F      		cpi r25,lo8(-1)
 381 0140 01F4      		brne .L6
 383               	.LM25:
 384 0142 E82F      		mov r30,r24
 385 0144 F0E0      		ldi r31,lo8(0)
 386 0146 CF01      		movw r24,r30
 387 0148 880F      		lsl r24
 388 014a 991F      		rol r25
 389 014c 25E0      		ldi r18,5
 390 014e EE0F      	1:	lsl r30
 391 0150 FF1F      		rol r31
 392 0152 2A95      		dec r18
 393 0154 01F4      		brne 1b
 394 0156 E81B      		sub r30,r24
 395 0158 F90B      		sbc r31,r25
 396 015a E050      		subi r30,lo8(-(cur_task_stats))
 397 015c F040      		sbci r31,hi8(-(cur_task_stats))
 398 015e 81E0      		ldi r24,lo8(1)
 399 0160 858F      		std Z+29,r24
 400               	.L6:
 401 0162 0895      		ret
 403               	.Lscope4:
 405               		.stabd	78,0,0
 408               	.global	_nrk_stats_task_start
 410               	_nrk_stats_task_start:
 411               		.stabd	46,0,0
  48:../../../src/kernel/source/nrk_stats.c **** }
  49:../../../src/kernel/source/nrk_stats.c **** 
  50:../../../src/kernel/source/nrk_stats.c **** 
  51:../../../src/kernel/source/nrk_stats.c **** // task_id is the PID of the task in question
  52:../../../src/kernel/source/nrk_stats.c **** void _nrk_stats_task_start(uint8_t task_id)
  53:../../../src/kernel/source/nrk_stats.c **** {
 413               	.LM26:
 414               	.LFBB5:
 415               	/* prologue: function */
 416               	/* frame size = 0 */
 417               	/* stack size = 0 */
 418               	.L__stack_usage = 0
  54:../../../src/kernel/source/nrk_stats.c ****     if( cur_task_stats[task_id].overflow==1) return;
 420               	.LM27:
 421 0164 E82F      		mov r30,r24
 422 0166 F0E0      		ldi r31,lo8(0)
 423 0168 9F01      		movw r18,r30
 424 016a 220F      		lsl r18
 425 016c 331F      		rol r19
 426 016e 75E0      		ldi r23,5
 427 0170 EE0F      	1:	lsl r30
 428 0172 FF1F      		rol r31
 429 0174 7A95      		dec r23
 430 0176 01F4      		brne 1b
 431 0178 E21B      		sub r30,r18
 432 017a F30B      		sbc r31,r19
 433 017c E050      		subi r30,lo8(-(cur_task_stats))
 434 017e F040      		sbci r31,hi8(-(cur_task_stats))
 435 0180 958D      		ldd r25,Z+29
 436 0182 9130      		cpi r25,lo8(1)
 437 0184 01F4      		brne .+2
 438 0186 00C0      		rjmp .L8
  55:../../../src/kernel/source/nrk_stats.c ****     cur_task_stats[task_id].cur_ticks=0;
 440               	.LM28:
 441 0188 E82F      		mov r30,r24
 442 018a F0E0      		ldi r31,lo8(0)
 443 018c 9F01      		movw r18,r30
 444 018e 220F      		lsl r18
 445 0190 331F      		rol r19
 446 0192 55E0      		ldi r21,5
 447 0194 EE0F      	1:	lsl r30
 448 0196 FF1F      		rol r31
 449 0198 5A95      		dec r21
 450 019a 01F4      		brne 1b
 451 019c E21B      		sub r30,r18
 452 019e F30B      		sbc r31,r19
 453 01a0 E050      		subi r30,lo8(-(cur_task_stats))
 454 01a2 F040      		sbci r31,hi8(-(cur_task_stats))
 455 01a4 148A      		std Z+20,__zero_reg__
 456 01a6 158A      		std Z+21,__zero_reg__
 457 01a8 168A      		std Z+22,__zero_reg__
 458 01aa 178A      		std Z+23,__zero_reg__
  56:../../../src/kernel/source/nrk_stats.c ****     cur_task_stats[task_id].swapped_in++;
 460               	.LM29:
 461 01ac E82F      		mov r30,r24
 462 01ae F0E0      		ldi r31,lo8(0)
 463 01b0 9F01      		movw r18,r30
 464 01b2 220F      		lsl r18
 465 01b4 331F      		rol r19
 466 01b6 95E0      		ldi r25,5
 467 01b8 EE0F      	1:	lsl r30
 468 01ba FF1F      		rol r31
 469 01bc 9A95      		dec r25
 470 01be 01F4      		brne 1b
 471 01c0 E21B      		sub r30,r18
 472 01c2 F30B      		sbc r31,r19
 473 01c4 E050      		subi r30,lo8(-(cur_task_stats))
 474 01c6 F040      		sbci r31,hi8(-(cur_task_stats))
 475 01c8 2089      		ldd r18,Z+16
 476 01ca 3189      		ldd r19,Z+17
 477 01cc 4289      		ldd r20,Z+18
 478 01ce 5389      		ldd r21,Z+19
 479 01d0 2F5F      		subi r18,lo8(-(1))
 480 01d2 3F4F      		sbci r19,hi8(-(1))
 481 01d4 4F4F      		sbci r20,hlo8(-(1))
 482 01d6 5F4F      		sbci r21,hhi8(-(1))
 483 01d8 E82F      		mov r30,r24
 484 01da F0E0      		ldi r31,lo8(0)
 485 01dc BF01      		movw r22,r30
 486 01de 660F      		lsl r22
 487 01e0 771F      		rol r23
 488 01e2 A5E0      		ldi r26,5
 489 01e4 EE0F      	1:	lsl r30
 490 01e6 FF1F      		rol r31
 491 01e8 AA95      		dec r26
 492 01ea 01F4      		brne 1b
 493 01ec E61B      		sub r30,r22
 494 01ee F70B      		sbc r31,r23
 495 01f0 E050      		subi r30,lo8(-(cur_task_stats))
 496 01f2 F040      		sbci r31,hi8(-(cur_task_stats))
 497 01f4 208B      		std Z+16,r18
 498 01f6 318B      		std Z+17,r19
 499 01f8 428B      		std Z+18,r20
 500 01fa 538B      		std Z+19,r21
  57:../../../src/kernel/source/nrk_stats.c ****     if(cur_task_stats[task_id].swapped_in==(UINT32_MAX-1)) cur_task_stats[task_id].overflow=1;
 502               	.LM30:
 503 01fc 2E3F      		cpi r18,lo8(-2)
 504 01fe 9FEF      		ldi r25,hi8(-2)
 505 0200 3907      		cpc r19,r25
 506 0202 9FEF      		ldi r25,hlo8(-2)
 507 0204 4907      		cpc r20,r25
 508 0206 9FEF      		ldi r25,hhi8(-2)
 509 0208 5907      		cpc r21,r25
 510 020a 01F4      		brne .L8
 512               	.LM31:
 513 020c E82F      		mov r30,r24
 514 020e F0E0      		ldi r31,lo8(0)
 515 0210 CF01      		movw r24,r30
 516 0212 880F      		lsl r24
 517 0214 991F      		rol r25
 518 0216 25E0      		ldi r18,5
 519 0218 EE0F      	1:	lsl r30
 520 021a FF1F      		rol r31
 521 021c 2A95      		dec r18
 522 021e 01F4      		brne 1b
 523 0220 E81B      		sub r30,r24
 524 0222 F90B      		sbc r31,r25
 525 0224 E050      		subi r30,lo8(-(cur_task_stats))
 526 0226 F040      		sbci r31,hi8(-(cur_task_stats))
 527 0228 81E0      		ldi r24,lo8(1)
 528 022a 858F      		std Z+29,r24
 529               	.L8:
 530 022c 0895      		ret
 532               	.Lscope5:
 534               		.stabd	78,0,0
 538               	.global	_nrk_stats_task_preempted
 540               	_nrk_stats_task_preempted:
 541               		.stabd	46,0,0
  58:../../../src/kernel/source/nrk_stats.c **** }
  59:../../../src/kernel/source/nrk_stats.c **** 
  60:../../../src/kernel/source/nrk_stats.c **** 
  61:../../../src/kernel/source/nrk_stats.c **** void _nrk_stats_task_preempted(uint8_t task_id, uint8_t ticks)
  62:../../../src/kernel/source/nrk_stats.c **** {
 543               	.LM32:
 544               	.LFBB6:
 545 022e EF92      		push r14
 546 0230 FF92      		push r15
 547 0232 CF93      		push r28
 548 0234 DF93      		push r29
 549               	/* prologue: function */
 550               	/* frame size = 0 */
 551               	/* stack size = 4 */
 552               	.L__stack_usage = 4
 553 0236 A82F      		mov r26,r24
  63:../../../src/kernel/source/nrk_stats.c ****     if( cur_task_stats[task_id].overflow==1) return;
 555               	.LM33:
 556 0238 E82F      		mov r30,r24
 557 023a F0E0      		ldi r31,lo8(0)
 558 023c CF01      		movw r24,r30
 559 023e 880F      		lsl r24
 560 0240 991F      		rol r25
 561 0242 75E0      		ldi r23,5
 562 0244 EE0F      	1:	lsl r30
 563 0246 FF1F      		rol r31
 564 0248 7A95      		dec r23
 565 024a 01F4      		brne 1b
 566 024c E81B      		sub r30,r24
 567 024e F90B      		sbc r31,r25
 568 0250 E050      		subi r30,lo8(-(cur_task_stats))
 569 0252 F040      		sbci r31,hi8(-(cur_task_stats))
 570 0254 858D      		ldd r24,Z+29
 571 0256 8130      		cpi r24,lo8(1)
 572 0258 01F4      		brne .+2
 573 025a 00C0      		rjmp .L10
  64:../../../src/kernel/source/nrk_stats.c ****     cur_task_stats[task_id].preempted++;
 575               	.LM34:
 576 025c EA2F      		mov r30,r26
 577 025e F0E0      		ldi r31,lo8(0)
 578 0260 CF01      		movw r24,r30
 579 0262 880F      		lsl r24
 580 0264 991F      		rol r25
 581 0266 45E0      		ldi r20,5
 582 0268 EE0F      	1:	lsl r30
 583 026a FF1F      		rol r31
 584 026c 4A95      		dec r20
 585 026e 01F4      		brne 1b
 586 0270 E81B      		sub r30,r24
 587 0272 F90B      		sbc r31,r25
 588 0274 E050      		subi r30,lo8(-(cur_task_stats))
 589 0276 F040      		sbci r31,hi8(-(cur_task_stats))
 590 0278 EA2E      		mov r14,r26
 591 027a E701      		movw r28,r14
 592 027c 7E01      		movw r14,r28
 593 027e 20E0      		ldi r18,lo8(0)
 594 0280 F22E      		mov r15,r18
 595 0282 E701      		movw r28,r14
 596 0284 C701      		movw r24,r14
 597 0286 880F      		lsl r24
 598 0288 991F      		rol r25
 599 028a 25E0      		ldi r18,5
 600 028c CC0F      	1:	lsl r28
 601 028e DD1F      		rol r29
 602 0290 2A95      		dec r18
 603 0292 01F4      		brne 1b
 604 0294 C81B      		sub r28,r24
 605 0296 D90B      		sbc r29,r25
 606 0298 C050      		subi r28,lo8(-(cur_task_stats))
 607 029a D040      		sbci r29,hi8(-(cur_task_stats))
 608 029c 288D      		ldd r18,Y+24
 609 029e 398D      		ldd r19,Y+25
 610 02a0 4A8D      		ldd r20,Y+26
 611 02a2 5B8D      		ldd r21,Y+27
 612 02a4 2F5F      		subi r18,lo8(-(1))
 613 02a6 3F4F      		sbci r19,hi8(-(1))
 614 02a8 4F4F      		sbci r20,hlo8(-(1))
 615 02aa 5F4F      		sbci r21,hhi8(-(1))
 616 02ac 208F      		std Z+24,r18
 617 02ae 318F      		std Z+25,r19
 618 02b0 428F      		std Z+26,r20
 619 02b2 538F      		std Z+27,r21
  65:../../../src/kernel/source/nrk_stats.c ****     cur_task_stats[task_id].cur_ticks+=ticks;
 621               	.LM35:
 622 02b4 70E0      		ldi r23,lo8(0)
 623 02b6 80E0      		ldi r24,lo8(0)
 624 02b8 90E0      		ldi r25,hi8(0)
 625 02ba EA2F      		mov r30,r26
 626 02bc F0E0      		ldi r31,lo8(0)
 627 02be 9F01      		movw r18,r30
 628 02c0 220F      		lsl r18
 629 02c2 331F      		rol r19
 630 02c4 55E0      		ldi r21,5
 631 02c6 EE0F      	1:	lsl r30
 632 02c8 FF1F      		rol r31
 633 02ca 5A95      		dec r21
 634 02cc 01F4      		brne 1b
 635 02ce E21B      		sub r30,r18
 636 02d0 F30B      		sbc r31,r19
 637 02d2 E050      		subi r30,lo8(-(cur_task_stats))
 638 02d4 F040      		sbci r31,hi8(-(cur_task_stats))
 639 02d6 EA2E      		mov r14,r26
 640 02d8 E701      		movw r28,r14
 641 02da 7E01      		movw r14,r28
 642 02dc 20E0      		ldi r18,lo8(0)
 643 02de F22E      		mov r15,r18
 644 02e0 E701      		movw r28,r14
 645 02e2 9701      		movw r18,r14
 646 02e4 220F      		lsl r18
 647 02e6 331F      		rol r19
 648 02e8 B5E0      		ldi r27,5
 649 02ea CC0F      	1:	lsl r28
 650 02ec DD1F      		rol r29
 651 02ee BA95      		dec r27
 652 02f0 01F4      		brne 1b
 653 02f2 C21B      		sub r28,r18
 654 02f4 D30B      		sbc r29,r19
 655 02f6 C050      		subi r28,lo8(-(cur_task_stats))
 656 02f8 D040      		sbci r29,hi8(-(cur_task_stats))
 657 02fa 2C89      		ldd r18,Y+20
 658 02fc 3D89      		ldd r19,Y+21
 659 02fe 4E89      		ldd r20,Y+22
 660 0300 5F89      		ldd r21,Y+23
 661 0302 260F      		add r18,r22
 662 0304 371F      		adc r19,r23
 663 0306 481F      		adc r20,r24
 664 0308 591F      		adc r21,r25
 665 030a 248B      		std Z+20,r18
 666 030c 358B      		std Z+21,r19
 667 030e 468B      		std Z+22,r20
 668 0310 578B      		std Z+23,r21
  66:../../../src/kernel/source/nrk_stats.c ****     cur_task_stats[task_id].total_ticks+=ticks;
 670               	.LM36:
 671 0312 EA2F      		mov r30,r26
 672 0314 F0E0      		ldi r31,lo8(0)
 673 0316 9F01      		movw r18,r30
 674 0318 220F      		lsl r18
 675 031a 331F      		rol r19
 676 031c 45E0      		ldi r20,5
 677 031e EE0F      	1:	lsl r30
 678 0320 FF1F      		rol r31
 679 0322 4A95      		dec r20
 680 0324 01F4      		brne 1b
 681 0326 E21B      		sub r30,r18
 682 0328 F30B      		sbc r31,r19
 683 032a E050      		subi r30,lo8(-(cur_task_stats))
 684 032c F040      		sbci r31,hi8(-(cur_task_stats))
 685 032e EA2E      		mov r14,r26
 686 0330 E701      		movw r28,r14
 687 0332 7E01      		movw r14,r28
 688 0334 20E0      		ldi r18,lo8(0)
 689 0336 F22E      		mov r15,r18
 690 0338 E701      		movw r28,r14
 691 033a 9701      		movw r18,r14
 692 033c 220F      		lsl r18
 693 033e 331F      		rol r19
 694 0340 55E0      		ldi r21,5
 695 0342 CC0F      	1:	lsl r28
 696 0344 DD1F      		rol r29
 697 0346 5A95      		dec r21
 698 0348 01F4      		brne 1b
 699 034a C21B      		sub r28,r18
 700 034c D30B      		sbc r29,r19
 701 034e C050      		subi r28,lo8(-(cur_task_stats))
 702 0350 D040      		sbci r29,hi8(-(cur_task_stats))
 703 0352 2881      		ld r18,Y
 704 0354 3981      		ldd r19,Y+1
 705 0356 4A81      		ldd r20,Y+2
 706 0358 5B81      		ldd r21,Y+3
 707 035a 260F      		add r18,r22
 708 035c 371F      		adc r19,r23
 709 035e 481F      		adc r20,r24
 710 0360 591F      		adc r21,r25
 711 0362 2083      		st Z,r18
 712 0364 3183      		std Z+1,r19
 713 0366 4283      		std Z+2,r20
 714 0368 5383      		std Z+3,r21
  67:../../../src/kernel/source/nrk_stats.c ****     if(cur_task_stats[task_id].preempted==(UINT32_MAX-1)) cur_task_stats[task_id].overflow=1;
 716               	.LM37:
 717 036a EA2F      		mov r30,r26
 718 036c F0E0      		ldi r31,lo8(0)
 719 036e CF01      		movw r24,r30
 720 0370 880F      		lsl r24
 721 0372 991F      		rol r25
 722 0374 35E0      		ldi r19,5
 723 0376 EE0F      	1:	lsl r30
 724 0378 FF1F      		rol r31
 725 037a 3A95      		dec r19
 726 037c 01F4      		brne 1b
 727 037e E81B      		sub r30,r24
 728 0380 F90B      		sbc r31,r25
 729 0382 E050      		subi r30,lo8(-(cur_task_stats))
 730 0384 F040      		sbci r31,hi8(-(cur_task_stats))
 731 0386 208D      		ldd r18,Z+24
 732 0388 318D      		ldd r19,Z+25
 733 038a 428D      		ldd r20,Z+26
 734 038c 538D      		ldd r21,Z+27
 735 038e 2E3F      		cpi r18,lo8(-2)
 736 0390 8FEF      		ldi r24,hi8(-2)
 737 0392 3807      		cpc r19,r24
 738 0394 8FEF      		ldi r24,hlo8(-2)
 739 0396 4807      		cpc r20,r24
 740 0398 8FEF      		ldi r24,hhi8(-2)
 741 039a 5807      		cpc r21,r24
 742 039c 01F4      		brne .L10
 744               	.LM38:
 745 039e EA2F      		mov r30,r26
 746 03a0 F0E0      		ldi r31,lo8(0)
 747 03a2 CF01      		movw r24,r30
 748 03a4 880F      		lsl r24
 749 03a6 991F      		rol r25
 750 03a8 B5E0      		ldi r27,5
 751 03aa EE0F      	1:	lsl r30
 752 03ac FF1F      		rol r31
 753 03ae BA95      		dec r27
 754 03b0 01F4      		brne 1b
 755 03b2 E81B      		sub r30,r24
 756 03b4 F90B      		sbc r31,r25
 757 03b6 E050      		subi r30,lo8(-(cur_task_stats))
 758 03b8 F040      		sbci r31,hi8(-(cur_task_stats))
 759 03ba 81E0      		ldi r24,lo8(1)
 760 03bc 858F      		std Z+29,r24
 761               	.L10:
 762               	/* epilogue start */
  68:../../../src/kernel/source/nrk_stats.c **** }
 764               	.LM39:
 765 03be DF91      		pop r29
 766 03c0 CF91      		pop r28
 767 03c2 FF90      		pop r15
 768 03c4 EF90      		pop r14
 769 03c6 0895      		ret
 771               	.Lscope6:
 773               		.stabd	78,0,0
 777               	.global	_nrk_stats_task_suspend
 779               	_nrk_stats_task_suspend:
 780               		.stabd	46,0,0
  69:../../../src/kernel/source/nrk_stats.c **** 
  70:../../../src/kernel/source/nrk_stats.c **** void _nrk_stats_task_suspend(uint8_t task_id, uint8_t ticks)
  71:../../../src/kernel/source/nrk_stats.c **** {
 782               	.LM40:
 783               	.LFBB7:
 784 03c8 EF92      		push r14
 785 03ca FF92      		push r15
 786 03cc CF93      		push r28
 787 03ce DF93      		push r29
 788               	/* prologue: function */
 789               	/* frame size = 0 */
 790               	/* stack size = 4 */
 791               	.L__stack_usage = 4
 792 03d0 E82F      		mov r30,r24
  72:../../../src/kernel/source/nrk_stats.c ****     if( cur_task_stats[task_id].overflow==1) return;
 794               	.LM41:
 795 03d2 A82F      		mov r26,r24
 796 03d4 B0E0      		ldi r27,lo8(0)
 797 03d6 CD01      		movw r24,r26
 798 03d8 880F      		lsl r24
 799 03da 991F      		rol r25
 800 03dc 75E0      		ldi r23,5
 801 03de AA0F      	1:	lsl r26
 802 03e0 BB1F      		rol r27
 803 03e2 7A95      		dec r23
 804 03e4 01F4      		brne 1b
 805 03e6 A81B      		sub r26,r24
 806 03e8 B90B      		sbc r27,r25
 807 03ea A050      		subi r26,lo8(-(cur_task_stats))
 808 03ec B040      		sbci r27,hi8(-(cur_task_stats))
 809 03ee 5D96      		adiw r26,29
 810 03f0 8C91      		ld r24,X
 811 03f2 5D97      		sbiw r26,29
 812 03f4 8130      		cpi r24,lo8(1)
 813 03f6 01F4      		brne .+2
 814 03f8 00C0      		rjmp .L12
  73:../../../src/kernel/source/nrk_stats.c ****     cur_task_stats[task_id].last_exec_ticks = cur_task_stats[task_id].cur_ticks+ticks;
 816               	.LM42:
 817 03fa 70E0      		ldi r23,lo8(0)
 818 03fc 80E0      		ldi r24,lo8(0)
 819 03fe 90E0      		ldi r25,hi8(0)
 820 0400 AE2F      		mov r26,r30
 821 0402 B0E0      		ldi r27,lo8(0)
 822 0404 9D01      		movw r18,r26
 823 0406 220F      		lsl r18
 824 0408 331F      		rol r19
 825 040a 45E0      		ldi r20,5
 826 040c AA0F      	1:	lsl r26
 827 040e BB1F      		rol r27
 828 0410 4A95      		dec r20
 829 0412 01F4      		brne 1b
 830 0414 A21B      		sub r26,r18
 831 0416 B30B      		sbc r27,r19
 832 0418 A050      		subi r26,lo8(-(cur_task_stats))
 833 041a B040      		sbci r27,hi8(-(cur_task_stats))
 834 041c EE2E      		mov r14,r30
 835 041e E701      		movw r28,r14
 836 0420 7E01      		movw r14,r28
 837 0422 20E0      		ldi r18,lo8(0)
 838 0424 F22E      		mov r15,r18
 839 0426 E701      		movw r28,r14
 840 0428 9701      		movw r18,r14
 841 042a 220F      		lsl r18
 842 042c 331F      		rol r19
 843 042e 55E0      		ldi r21,5
 844 0430 CC0F      	1:	lsl r28
 845 0432 DD1F      		rol r29
 846 0434 5A95      		dec r21
 847 0436 01F4      		brne 1b
 848 0438 C21B      		sub r28,r18
 849 043a D30B      		sbc r29,r19
 850 043c C050      		subi r28,lo8(-(cur_task_stats))
 851 043e D040      		sbci r29,hi8(-(cur_task_stats))
 852 0440 2C89      		ldd r18,Y+20
 853 0442 3D89      		ldd r19,Y+21
 854 0444 4E89      		ldd r20,Y+22
 855 0446 5F89      		ldd r21,Y+23
 856 0448 260F      		add r18,r22
 857 044a 371F      		adc r19,r23
 858 044c 481F      		adc r20,r24
 859 044e 591F      		adc r21,r25
 860 0450 1C96      		adiw r26,12
 861 0452 2D93      		st X+,r18
 862 0454 3D93      		st X+,r19
 863 0456 4D93      		st X+,r20
 864 0458 5C93      		st X,r21
 865 045a 1F97      		sbiw r26,12+3
  74:../../../src/kernel/source/nrk_stats.c ****     cur_task_stats[task_id].total_ticks+=ticks;
 867               	.LM43:
 868 045c AE2F      		mov r26,r30
 869 045e B0E0      		ldi r27,lo8(0)
 870 0460 9D01      		movw r18,r26
 871 0462 220F      		lsl r18
 872 0464 331F      		rol r19
 873 0466 F5E0      		ldi r31,5
 874 0468 AA0F      	1:	lsl r26
 875 046a BB1F      		rol r27
 876 046c FA95      		dec r31
 877 046e 01F4      		brne 1b
 878 0470 A21B      		sub r26,r18
 879 0472 B30B      		sbc r27,r19
 880 0474 A050      		subi r26,lo8(-(cur_task_stats))
 881 0476 B040      		sbci r27,hi8(-(cur_task_stats))
 882 0478 EE2E      		mov r14,r30
 883 047a E701      		movw r28,r14
 884 047c 7E01      		movw r14,r28
 885 047e 20E0      		ldi r18,lo8(0)
 886 0480 F22E      		mov r15,r18
 887 0482 E701      		movw r28,r14
 888 0484 9701      		movw r18,r14
 889 0486 220F      		lsl r18
 890 0488 331F      		rol r19
 891 048a 45E0      		ldi r20,5
 892 048c CC0F      	1:	lsl r28
 893 048e DD1F      		rol r29
 894 0490 4A95      		dec r20
 895 0492 01F4      		brne 1b
 896 0494 C21B      		sub r28,r18
 897 0496 D30B      		sbc r29,r19
 898 0498 C050      		subi r28,lo8(-(cur_task_stats))
 899 049a D040      		sbci r29,hi8(-(cur_task_stats))
 900 049c 2881      		ld r18,Y
 901 049e 3981      		ldd r19,Y+1
 902 04a0 4A81      		ldd r20,Y+2
 903 04a2 5B81      		ldd r21,Y+3
 904 04a4 260F      		add r18,r22
 905 04a6 371F      		adc r19,r23
 906 04a8 481F      		adc r20,r24
 907 04aa 591F      		adc r21,r25
 908 04ac 2D93      		st X+,r18
 909 04ae 3D93      		st X+,r19
 910 04b0 4D93      		st X+,r20
 911 04b2 5C93      		st X,r21
 912 04b4 1397      		sbiw r26,3
  75:../../../src/kernel/source/nrk_stats.c **** 
  76:../../../src/kernel/source/nrk_stats.c ****     if(cur_task_stats[task_id].min_exec_ticks==0 || cur_task_stats[task_id].last_exec_ticks<cur_tas
 914               	.LM44:
 915 04b6 AE2F      		mov r26,r30
 916 04b8 B0E0      		ldi r27,lo8(0)
 917 04ba CD01      		movw r24,r26
 918 04bc 880F      		lsl r24
 919 04be 991F      		rol r25
 920 04c0 F5E0      		ldi r31,5
 921 04c2 AA0F      	1:	lsl r26
 922 04c4 BB1F      		rol r27
 923 04c6 FA95      		dec r31
 924 04c8 01F4      		brne 1b
 925 04ca A81B      		sub r26,r24
 926 04cc B90B      		sbc r27,r25
 927 04ce A050      		subi r26,lo8(-(cur_task_stats))
 928 04d0 B040      		sbci r27,hi8(-(cur_task_stats))
 929 04d2 1496      		adiw r26,4
 930 04d4 2D91      		ld r18,X+
 931 04d6 3D91      		ld r19,X+
 932 04d8 4D91      		ld r20,X+
 933 04da 5C91      		ld r21,X
 934 04dc 1797      		sbiw r26,4+3
 935 04de 2115      		cp r18,__zero_reg__
 936 04e0 3105      		cpc r19,__zero_reg__
 937 04e2 4105      		cpc r20,__zero_reg__
 938 04e4 5105      		cpc r21,__zero_reg__
 939 04e6 01F0      		breq .L14
 941               	.LM45:
 942 04e8 AE2F      		mov r26,r30
 943 04ea B0E0      		ldi r27,lo8(0)
 944 04ec CD01      		movw r24,r26
 945 04ee 880F      		lsl r24
 946 04f0 991F      		rol r25
 947 04f2 65E0      		ldi r22,5
 948 04f4 AA0F      	1:	lsl r26
 949 04f6 BB1F      		rol r27
 950 04f8 6A95      		dec r22
 951 04fa 01F4      		brne 1b
 952 04fc A81B      		sub r26,r24
 953 04fe B90B      		sbc r27,r25
 954 0500 A050      		subi r26,lo8(-(cur_task_stats))
 955 0502 B040      		sbci r27,hi8(-(cur_task_stats))
 956 0504 1C96      		adiw r26,12
 957 0506 8D91      		ld r24,X+
 958 0508 9D91      		ld r25,X+
 959 050a 0D90      		ld __tmp_reg__,X+
 960 050c BC91      		ld r27,X
 961 050e A02D      		mov r26,__tmp_reg__
 962 0510 8217      		cp r24,r18
 963 0512 9307      		cpc r25,r19
 964 0514 A407      		cpc r26,r20
 965 0516 B507      		cpc r27,r21
 966 0518 00F4      		brsh .L15
 967               	.L14:
  77:../../../src/kernel/source/nrk_stats.c ****         cur_task_stats[task_id].min_exec_ticks=cur_task_stats[task_id].last_exec_ticks;
 969               	.LM46:
 970 051a 8E2F      		mov r24,r30
 971 051c EC01      		movw r28,r24
 972 051e 7E01      		movw r14,r28
 973 0520 20E0      		ldi r18,lo8(0)
 974 0522 F22E      		mov r15,r18
 975 0524 E701      		movw r28,r14
 976 0526 C701      		movw r24,r14
 977 0528 880F      		lsl r24
 978 052a 991F      		rol r25
 979 052c 45E0      		ldi r20,5
 980 052e CC0F      	1:	lsl r28
 981 0530 DD1F      		rol r29
 982 0532 4A95      		dec r20
 983 0534 01F4      		brne 1b
 984 0536 C81B      		sub r28,r24
 985 0538 D90B      		sbc r29,r25
 986 053a C050      		subi r28,lo8(-(cur_task_stats))
 987 053c D040      		sbci r29,hi8(-(cur_task_stats))
 988 053e AE2F      		mov r26,r30
 989 0540 B0E0      		ldi r27,lo8(0)
 990 0542 CD01      		movw r24,r26
 991 0544 880F      		lsl r24
 992 0546 991F      		rol r25
 993 0548 25E0      		ldi r18,5
 994 054a AA0F      	1:	lsl r26
 995 054c BB1F      		rol r27
 996 054e 2A95      		dec r18
 997 0550 01F4      		brne 1b
 998 0552 A81B      		sub r26,r24
 999 0554 B90B      		sbc r27,r25
 1000 0556 A050      		subi r26,lo8(-(cur_task_stats))
 1001 0558 B040      		sbci r27,hi8(-(cur_task_stats))
 1002 055a 1C96      		adiw r26,12
 1003 055c 8D91      		ld r24,X+
 1004 055e 9D91      		ld r25,X+
 1005 0560 0D90      		ld __tmp_reg__,X+
 1006 0562 BC91      		ld r27,X
 1007 0564 A02D      		mov r26,__tmp_reg__
 1008 0566 8C83      		std Y+4,r24
 1009 0568 9D83      		std Y+5,r25
 1010 056a AE83      		std Y+6,r26
 1011 056c BF83      		std Y+7,r27
 1012               	.L15:
  78:../../../src/kernel/source/nrk_stats.c **** 
  79:../../../src/kernel/source/nrk_stats.c ****     if(cur_task_stats[task_id].last_exec_ticks>cur_task_stats[task_id].max_exec_ticks)
 1014               	.LM47:
 1015 056e AE2F      		mov r26,r30
 1016 0570 B0E0      		ldi r27,lo8(0)
 1017 0572 CD01      		movw r24,r26
 1018 0574 880F      		lsl r24
 1019 0576 991F      		rol r25
 1020 0578 75E0      		ldi r23,5
 1021 057a AA0F      	1:	lsl r26
 1022 057c BB1F      		rol r27
 1023 057e 7A95      		dec r23
 1024 0580 01F4      		brne 1b
 1025 0582 A81B      		sub r26,r24
 1026 0584 B90B      		sbc r27,r25
 1027 0586 A050      		subi r26,lo8(-(cur_task_stats))
 1028 0588 B040      		sbci r27,hi8(-(cur_task_stats))
 1029 058a 1C96      		adiw r26,12
 1030 058c 2D91      		ld r18,X+
 1031 058e 3D91      		ld r19,X+
 1032 0590 4D91      		ld r20,X+
 1033 0592 5C91      		ld r21,X
 1034 0594 1F97      		sbiw r26,12+3
 1035 0596 AE2F      		mov r26,r30
 1036 0598 B0E0      		ldi r27,lo8(0)
 1037 059a CD01      		movw r24,r26
 1038 059c 880F      		lsl r24
 1039 059e 991F      		rol r25
 1040 05a0 F5E0      		ldi r31,5
 1041 05a2 AA0F      	1:	lsl r26
 1042 05a4 BB1F      		rol r27
 1043 05a6 FA95      		dec r31
 1044 05a8 01F4      		brne 1b
 1045 05aa A81B      		sub r26,r24
 1046 05ac B90B      		sbc r27,r25
 1047 05ae A050      		subi r26,lo8(-(cur_task_stats))
 1048 05b0 B040      		sbci r27,hi8(-(cur_task_stats))
 1049 05b2 1896      		adiw r26,8
 1050 05b4 6D91      		ld r22,X+
 1051 05b6 7D91      		ld r23,X+
 1052 05b8 8D91      		ld r24,X+
 1053 05ba 9C91      		ld r25,X
 1054 05bc 1B97      		sbiw r26,8+3
 1055 05be 6217      		cp r22,r18
 1056 05c0 7307      		cpc r23,r19
 1057 05c2 8407      		cpc r24,r20
 1058 05c4 9507      		cpc r25,r21
 1059 05c6 00F4      		brsh .L12
  80:../../../src/kernel/source/nrk_stats.c ****         cur_task_stats[task_id].max_exec_ticks=cur_task_stats[task_id].last_exec_ticks;
 1061               	.LM48:
 1062 05c8 8E2F      		mov r24,r30
 1063 05ca 90E0      		ldi r25,lo8(0)
 1064 05cc BC01      		movw r22,r24
 1065 05ce 660F      		lsl r22
 1066 05d0 771F      		rol r23
 1067 05d2 FC01      		movw r30,r24
 1068 05d4 85E0      		ldi r24,5
 1069 05d6 EE0F      	1:	lsl r30
 1070 05d8 FF1F      		rol r31
 1071 05da 8A95      		dec r24
 1072 05dc 01F4      		brne 1b
 1073 05de E61B      		sub r30,r22
 1074 05e0 F70B      		sbc r31,r23
 1075 05e2 E050      		subi r30,lo8(-(cur_task_stats))
 1076 05e4 F040      		sbci r31,hi8(-(cur_task_stats))
 1077 05e6 2087      		std Z+8,r18
 1078 05e8 3187      		std Z+9,r19
 1079 05ea 4287      		std Z+10,r20
 1080 05ec 5387      		std Z+11,r21
 1081               	.L12:
 1082               	/* epilogue start */
  81:../../../src/kernel/source/nrk_stats.c **** 
  82:../../../src/kernel/source/nrk_stats.c **** }
 1084               	.LM49:
 1085 05ee DF91      		pop r29
 1086 05f0 CF91      		pop r28
 1087 05f2 FF90      		pop r15
 1088 05f4 EF90      		pop r14
 1089 05f6 0895      		ret
 1091               	.Lscope7:
 1093               		.stabd	78,0,0
 1094               		.data
 1095               	.LC0:
 1096 0000 2564 00   		.string	"%d"
 1097               	.LC1:
 1098 0003 256C 7520 		.string	"%lu secs %lu ms"
 1098      7365 6373 
 1098      2025 6C75 
 1098      206D 7300 
 1099               	.LC2:
 1100 0013 256C 7520 		.string	"%lu secs %lu ms, "
 1100      7365 6373 
 1100      2025 6C75 
 1100      206D 732C 
 1100      2000 
 1101               	.LC3:
 1102 0025 256C 7500 		.string	"%lu"
 1103               	.LC4:
 1104 0029 2575 00   		.string	"%u"
 1105               		.text
 1108               	.global	nrk_stats_display_pid
 1110               	nrk_stats_display_pid:
 1111               		.stabd	46,0,0
  83:../../../src/kernel/source/nrk_stats.c **** 
  84:../../../src/kernel/source/nrk_stats.c **** 
  85:../../../src/kernel/source/nrk_stats.c **** 
  86:../../../src/kernel/source/nrk_stats.c **** void nrk_stats_display_pid(uint8_t pid)
  87:../../../src/kernel/source/nrk_stats.c **** {
 1113               	.LM50:
 1114               	.LFBB8:
 1115 05f8 8F92      		push r8
 1116 05fa 9F92      		push r9
 1117 05fc AF92      		push r10
 1118 05fe BF92      		push r11
 1119 0600 CF92      		push r12
 1120 0602 DF92      		push r13
 1121 0604 EF92      		push r14
 1122 0606 FF92      		push r15
 1123 0608 1F93      		push r17
 1124 060a DF93      		push r29
 1125 060c CF93      		push r28
 1126 060e CDB7      		in r28,__SP_L__
 1127 0610 DEB7      		in r29,__SP_H__
 1128 0612 6097      		sbiw r28,16
 1129 0614 0FB6      		in __tmp_reg__,__SREG__
 1130 0616 F894      		cli
 1131 0618 DEBF      		out __SP_H__,r29
 1132 061a 0FBE      		out __SREG__,__tmp_reg__
 1133 061c CDBF      		out __SP_L__,r28
 1134               	/* prologue: function */
 1135               	/* frame size = 16 */
 1136               	/* stack size = 27 */
 1137               	.L__stack_usage = 27
 1138 061e 182F      		mov r17,r24
  88:../../../src/kernel/source/nrk_stats.c ****     nrk_time_t t;
  89:../../../src/kernel/source/nrk_stats.c **** 
  90:../../../src/kernel/source/nrk_stats.c ****     nrk_kprintf( PSTR( " Task ID: "));
 1140               	.LM51:
 1141 0620 80E0      		ldi r24,lo8(__c.2129)
 1142 0622 90E0      		ldi r25,hi8(__c.2129)
 1143 0624 0E94 0000 		call nrk_kprintf
  91:../../../src/kernel/source/nrk_stats.c ****     printf( "%d",pid );
 1145               	.LM52:
 1146 0628 00D0      		rcall .
 1147 062a 00D0      		rcall .
 1148 062c EDB7      		in r30,__SP_L__
 1149 062e FEB7      		in r31,__SP_H__
 1150 0630 3196      		adiw r30,1
 1151 0632 80E0      		ldi r24,lo8(.LC0)
 1152 0634 90E0      		ldi r25,hi8(.LC0)
 1153 0636 ADB7      		in r26,__SP_L__
 1154 0638 BEB7      		in r27,__SP_H__
 1155 063a 1296      		adiw r26,1+1
 1156 063c 9C93      		st X,r25
 1157 063e 8E93      		st -X,r24
 1158 0640 1197      		sbiw r26,1
 1159 0642 1283      		std Z+2,r17
 1160 0644 1382      		std Z+3,__zero_reg__
 1161 0646 0E94 0000 		call printf
  92:../../../src/kernel/source/nrk_stats.c ****     if(pid==NRK_IDLE_TASK_ID)
 1163               	.LM53:
 1164 064a 0F90      		pop __tmp_reg__
 1165 064c 0F90      		pop __tmp_reg__
 1166 064e 0F90      		pop __tmp_reg__
 1167 0650 0F90      		pop __tmp_reg__
 1168 0652 1123      		tst r17
 1169 0654 01F0      		breq .+2
 1170 0656 00C0      		rjmp .L17
  93:../../../src/kernel/source/nrk_stats.c ****     {
  94:../../../src/kernel/source/nrk_stats.c ****         nrk_kprintf( PSTR( "\r\n   Total System Uptime: "));
 1172               	.LM54:
 1173 0658 80E0      		ldi r24,lo8(__c.2131)
 1174 065a 90E0      		ldi r25,hi8(__c.2131)
 1175 065c 0E94 0000 		call nrk_kprintf
  95:../../../src/kernel/source/nrk_stats.c ****         nrk_time_get(&t);
 1177               	.LM55:
 1178 0660 CE01      		movw r24,r28
 1179 0662 0196      		adiw r24,1
 1180 0664 0E94 0000 		call nrk_time_get
  96:../../../src/kernel/source/nrk_stats.c ****         printf( "%lu secs %lu ms", t.secs, t.nano_secs/NANOS_PER_MS );
 1182               	.LM56:
 1183 0668 EDB7      		in r30,__SP_L__
 1184 066a FEB7      		in r31,__SP_H__
 1185 066c 3A97      		sbiw r30,10
 1186 066e 0FB6      		in __tmp_reg__,__SREG__
 1187 0670 F894      		cli
 1188 0672 FEBF      		out __SP_H__,r31
 1189 0674 0FBE      		out __SREG__,__tmp_reg__
 1190 0676 EDBF      		out __SP_L__,r30
 1191 0678 8DB6      		in r8,__SP_L__
 1192 067a 9EB6      		in r9,__SP_H__
 1193 067c 0894      		sec
 1194 067e 811C      		adc r8,__zero_reg__
 1195 0680 911C      		adc r9,__zero_reg__
 1196 0682 30E0      		ldi r19,lo8(.LC1)
 1197 0684 A32E      		mov r10,r19
 1198 0686 30E0      		ldi r19,hi8(.LC1)
 1199 0688 B32E      		mov r11,r19
 1200 068a B282      		std Z+2,r11
 1201 068c A182      		std Z+1,r10
 1202 068e 8981      		ldd r24,Y+1
 1203 0690 9A81      		ldd r25,Y+2
 1204 0692 AB81      		ldd r26,Y+3
 1205 0694 BC81      		ldd r27,Y+4
 1206 0696 F401      		movw r30,r8
 1207 0698 8283      		std Z+2,r24
 1208 069a 9383      		std Z+3,r25
 1209 069c A483      		std Z+4,r26
 1210 069e B583      		std Z+5,r27
 1211 06a0 6D81      		ldd r22,Y+5
 1212 06a2 7E81      		ldd r23,Y+6
 1213 06a4 8F81      		ldd r24,Y+7
 1214 06a6 9885      		ldd r25,Y+8
 1215 06a8 20E4      		ldi r18,lo8(1000000)
 1216 06aa C22E      		mov r12,r18
 1217 06ac 22E4      		ldi r18,hi8(1000000)
 1218 06ae D22E      		mov r13,r18
 1219 06b0 2FE0      		ldi r18,hlo8(1000000)
 1220 06b2 E22E      		mov r14,r18
 1221 06b4 F12C      		mov r15,__zero_reg__
 1222 06b6 A701      		movw r20,r14
 1223 06b8 9601      		movw r18,r12
 1224 06ba 0E94 0000 		call __udivmodsi4
 1225 06be D401      		movw r26,r8
 1226 06c0 1696      		adiw r26,6
 1227 06c2 2D93      		st X+,r18
 1228 06c4 3D93      		st X+,r19
 1229 06c6 4D93      		st X+,r20
 1230 06c8 5C93      		st X,r21
 1231 06ca 1997      		sbiw r26,6+3
 1232 06cc 0E94 0000 		call printf
  97:../../../src/kernel/source/nrk_stats.c ****         nrk_kprintf( PSTR( "\r\n   Idle Task Deep Sleep Time: "));
 1234               	.LM57:
 1235 06d0 EDB7      		in r30,__SP_L__
 1236 06d2 FEB7      		in r31,__SP_H__
 1237 06d4 3A96      		adiw r30,10
 1238 06d6 0FB6      		in __tmp_reg__,__SREG__
 1239 06d8 F894      		cli
 1240 06da FEBF      		out __SP_H__,r31
 1241 06dc 0FBE      		out __SREG__,__tmp_reg__
 1242 06de EDBF      		out __SP_L__,r30
 1243 06e0 80E0      		ldi r24,lo8(__c.2133)
 1244 06e2 90E0      		ldi r25,hi8(__c.2133)
 1245 06e4 0E94 0000 		call nrk_kprintf
  98:../../../src/kernel/source/nrk_stats.c ****         //t=_nrk_ticks_to_time(_nrk_stats_sleep_time);
  99:../../../src/kernel/source/nrk_stats.c ****         //printf( "%lu secs %lu ms", t.secs, t.nano_secs/NANOS_PER_MS );
 100:../../../src/kernel/source/nrk_stats.c ****         printf( "%lu secs %lu ms", _nrk_stats_sleep_time.secs, _nrk_stats_sleep_time.nano_secs/NANO
 1247               	.LM58:
 1248 06e8 8DB7      		in r24,__SP_L__
 1249 06ea 9EB7      		in r25,__SP_H__
 1250 06ec 0A97      		sbiw r24,10
 1251 06ee 0FB6      		in __tmp_reg__,__SREG__
 1252 06f0 F894      		cli
 1253 06f2 9EBF      		out __SP_H__,r25
 1254 06f4 0FBE      		out __SREG__,__tmp_reg__
 1255 06f6 8DBF      		out __SP_L__,r24
 1256 06f8 8DB6      		in r8,__SP_L__
 1257 06fa 9EB6      		in r9,__SP_H__
 1258 06fc 0894      		sec
 1259 06fe 811C      		adc r8,__zero_reg__
 1260 0700 911C      		adc r9,__zero_reg__
 1261 0702 ADB7      		in r26,__SP_L__
 1262 0704 BEB7      		in r27,__SP_H__
 1263 0706 1296      		adiw r26,1+1
 1264 0708 BC92      		st X,r11
 1265 070a AE92      		st -X,r10
 1266 070c 1197      		sbiw r26,1
 1267 070e 8091 0000 		lds r24,_nrk_stats_sleep_time
 1268 0712 9091 0000 		lds r25,_nrk_stats_sleep_time+1
 1269 0716 A091 0000 		lds r26,_nrk_stats_sleep_time+2
 1270 071a B091 0000 		lds r27,_nrk_stats_sleep_time+3
 1271 071e F401      		movw r30,r8
 1272 0720 8283      		std Z+2,r24
 1273 0722 9383      		std Z+3,r25
 1274 0724 A483      		std Z+4,r26
 1275 0726 B583      		std Z+5,r27
 1276 0728 6091 0000 		lds r22,_nrk_stats_sleep_time+4
 1277 072c 7091 0000 		lds r23,_nrk_stats_sleep_time+4+1
 1278 0730 8091 0000 		lds r24,_nrk_stats_sleep_time+4+2
 1279 0734 9091 0000 		lds r25,_nrk_stats_sleep_time+4+3
 1280 0738 A701      		movw r20,r14
 1281 073a 9601      		movw r18,r12
 1282 073c 0E94 0000 		call __udivmodsi4
 1283 0740 D401      		movw r26,r8
 1284 0742 1696      		adiw r26,6
 1285 0744 2D93      		st X+,r18
 1286 0746 3D93      		st X+,r19
 1287 0748 4D93      		st X+,r20
 1288 074a 5C93      		st X,r21
 1289 074c 1997      		sbiw r26,6+3
 1290 074e 0E94 0000 		call printf
 1291 0752 EDB7      		in r30,__SP_L__
 1292 0754 FEB7      		in r31,__SP_H__
 1293 0756 3A96      		adiw r30,10
 1294 0758 0FB6      		in __tmp_reg__,__SREG__
 1295 075a F894      		cli
 1296 075c FEBF      		out __SP_H__,r31
 1297 075e 0FBE      		out __SREG__,__tmp_reg__
 1298 0760 EDBF      		out __SP_L__,r30
 1299               	.L17:
 101:../../../src/kernel/source/nrk_stats.c ****     }
 102:../../../src/kernel/source/nrk_stats.c ****     nrk_kprintf( PSTR( "\r\n   Total CPU: "));
 1301               	.LM59:
 1302 0762 80E0      		ldi r24,lo8(__c.2135)
 1303 0764 90E0      		ldi r25,hi8(__c.2135)
 1304 0766 0E94 0000 		call nrk_kprintf
 103:../../../src/kernel/source/nrk_stats.c ****     t=_nrk_ticks_to_time(cur_task_stats[pid].total_ticks);
 1306               	.LM60:
 1307 076a E12F      		mov r30,r17
 1308 076c F0E0      		ldi r31,lo8(0)
 1309 076e CF01      		movw r24,r30
 1310 0770 880F      		lsl r24
 1311 0772 991F      		rol r25
 1312 0774 A5E0      		ldi r26,5
 1313 0776 EE0F      	1:	lsl r30
 1314 0778 FF1F      		rol r31
 1315 077a AA95      		dec r26
 1316 077c 01F4      		brne 1b
 1317 077e E81B      		sub r30,r24
 1318 0780 F90B      		sbc r31,r25
 1319 0782 E050      		subi r30,lo8(-(cur_task_stats))
 1320 0784 F040      		sbci r31,hi8(-(cur_task_stats))
 1321 0786 6081      		ld r22,Z
 1322 0788 7181      		ldd r23,Z+1
 1323 078a 8281      		ldd r24,Z+2
 1324 078c 9381      		ldd r25,Z+3
 1325 078e 0E94 0000 		call _nrk_ticks_to_time
 1326 0792 2987      		std Y+9,r18
 1327 0794 3A87      		std Y+10,r19
 1328 0796 4B87      		std Y+11,r20
 1329 0798 5C87      		std Y+12,r21
 1330 079a 6D87      		std Y+13,r22
 1331 079c 7E87      		std Y+14,r23
 1332 079e 8F87      		std Y+15,r24
 1333 07a0 988B      		std Y+16,r25
 1334 07a2 DE01      		movw r26,r28
 1335 07a4 1196      		adiw r26,1
 1336 07a6 FE01      		movw r30,r28
 1337 07a8 3996      		adiw r30,9
 1338 07aa 88E0      		ldi r24,lo8(8)
 1339               	.L18:
 1340 07ac 0190      		ld r0,Z+
 1341 07ae 0D92      		st X+,r0
 1342 07b0 8150      		subi r24,lo8(-(-1))
 1343 07b2 01F4      		brne .L18
 104:../../../src/kernel/source/nrk_stats.c ****     printf( "%lu secs %lu ms", t.secs, t.nano_secs/NANOS_PER_MS );
 1345               	.LM61:
 1346 07b4 8DB7      		in r24,__SP_L__
 1347 07b6 9EB7      		in r25,__SP_H__
 1348 07b8 0A97      		sbiw r24,10
 1349 07ba 0FB6      		in __tmp_reg__,__SREG__
 1350 07bc F894      		cli
 1351 07be 9EBF      		out __SP_H__,r25
 1352 07c0 0FBE      		out __SREG__,__tmp_reg__
 1353 07c2 8DBF      		out __SP_L__,r24
 1354 07c4 CDB6      		in r12,__SP_L__
 1355 07c6 DEB6      		in r13,__SP_H__
 1356 07c8 0894      		sec
 1357 07ca C11C      		adc r12,__zero_reg__
 1358 07cc D11C      		adc r13,__zero_reg__
 1359 07ce 80E0      		ldi r24,lo8(.LC1)
 1360 07d0 90E0      		ldi r25,hi8(.LC1)
 1361 07d2 ADB7      		in r26,__SP_L__
 1362 07d4 BEB7      		in r27,__SP_H__
 1363 07d6 1296      		adiw r26,1+1
 1364 07d8 9C93      		st X,r25
 1365 07da 8E93      		st -X,r24
 1366 07dc 1197      		sbiw r26,1
 1367 07de 8981      		ldd r24,Y+1
 1368 07e0 9A81      		ldd r25,Y+2
 1369 07e2 AB81      		ldd r26,Y+3
 1370 07e4 BC81      		ldd r27,Y+4
 1371 07e6 F601      		movw r30,r12
 1372 07e8 8283      		std Z+2,r24
 1373 07ea 9383      		std Z+3,r25
 1374 07ec A483      		std Z+4,r26
 1375 07ee B583      		std Z+5,r27
 1376 07f0 6D81      		ldd r22,Y+5
 1377 07f2 7E81      		ldd r23,Y+6
 1378 07f4 8F81      		ldd r24,Y+7
 1379 07f6 9885      		ldd r25,Y+8
 1380 07f8 20E4      		ldi r18,lo8(1000000)
 1381 07fa 32E4      		ldi r19,hi8(1000000)
 1382 07fc 4FE0      		ldi r20,hlo8(1000000)
 1383 07fe 50E0      		ldi r21,hhi8(1000000)
 1384 0800 0E94 0000 		call __udivmodsi4
 1385 0804 D601      		movw r26,r12
 1386 0806 1696      		adiw r26,6
 1387 0808 2D93      		st X+,r18
 1388 080a 3D93      		st X+,r19
 1389 080c 4D93      		st X+,r20
 1390 080e 5C93      		st X,r21
 1391 0810 1997      		sbiw r26,6+3
 1392 0812 0E94 0000 		call printf
 105:../../../src/kernel/source/nrk_stats.c ****     nrk_kprintf( PSTR( "\r\n   Time [Min,Last,Max]: "));
 1394               	.LM62:
 1395 0816 EDB7      		in r30,__SP_L__
 1396 0818 FEB7      		in r31,__SP_H__
 1397 081a 3A96      		adiw r30,10
 1398 081c 0FB6      		in __tmp_reg__,__SREG__
 1399 081e F894      		cli
 1400 0820 FEBF      		out __SP_H__,r31
 1401 0822 0FBE      		out __SREG__,__tmp_reg__
 1402 0824 EDBF      		out __SP_L__,r30
 1403 0826 80E0      		ldi r24,lo8(__c.2137)
 1404 0828 90E0      		ldi r25,hi8(__c.2137)
 1405 082a 0E94 0000 		call nrk_kprintf
 106:../../../src/kernel/source/nrk_stats.c ****     t=_nrk_ticks_to_time(cur_task_stats[pid].min_exec_ticks);
 1407               	.LM63:
 1408 082e E12F      		mov r30,r17
 1409 0830 F0E0      		ldi r31,lo8(0)
 1410 0832 CF01      		movw r24,r30
 1411 0834 880F      		lsl r24
 1412 0836 991F      		rol r25
 1413 0838 65E0      		ldi r22,5
 1414 083a EE0F      	1:	lsl r30
 1415 083c FF1F      		rol r31
 1416 083e 6A95      		dec r22
 1417 0840 01F4      		brne 1b
 1418 0842 E81B      		sub r30,r24
 1419 0844 F90B      		sbc r31,r25
 1420 0846 E050      		subi r30,lo8(-(cur_task_stats))
 1421 0848 F040      		sbci r31,hi8(-(cur_task_stats))
 1422 084a 6481      		ldd r22,Z+4
 1423 084c 7581      		ldd r23,Z+5
 1424 084e 8681      		ldd r24,Z+6
 1425 0850 9781      		ldd r25,Z+7
 1426 0852 0E94 0000 		call _nrk_ticks_to_time
 1427 0856 2987      		std Y+9,r18
 1428 0858 3A87      		std Y+10,r19
 1429 085a 4B87      		std Y+11,r20
 1430 085c 5C87      		std Y+12,r21
 1431 085e 6D87      		std Y+13,r22
 1432 0860 7E87      		std Y+14,r23
 1433 0862 8F87      		std Y+15,r24
 1434 0864 988B      		std Y+16,r25
 1435 0866 DE01      		movw r26,r28
 1436 0868 1196      		adiw r26,1
 1437 086a FE01      		movw r30,r28
 1438 086c 3996      		adiw r30,9
 1439 086e 88E0      		ldi r24,lo8(8)
 1440               	.L19:
 1441 0870 0190      		ld r0,Z+
 1442 0872 0D92      		st X+,r0
 1443 0874 8150      		subi r24,lo8(-(-1))
 1444 0876 01F4      		brne .L19
 107:../../../src/kernel/source/nrk_stats.c ****     printf( "%lu secs %lu ms, ", t.secs, t.nano_secs/NANOS_PER_MS );
 1446               	.LM64:
 1447 0878 8DB7      		in r24,__SP_L__
 1448 087a 9EB7      		in r25,__SP_H__
 1449 087c 0A97      		sbiw r24,10
 1450 087e 0FB6      		in __tmp_reg__,__SREG__
 1451 0880 F894      		cli
 1452 0882 9EBF      		out __SP_H__,r25
 1453 0884 0FBE      		out __SREG__,__tmp_reg__
 1454 0886 8DBF      		out __SP_L__,r24
 1455 0888 CDB6      		in r12,__SP_L__
 1456 088a DEB6      		in r13,__SP_H__
 1457 088c 0894      		sec
 1458 088e C11C      		adc r12,__zero_reg__
 1459 0890 D11C      		adc r13,__zero_reg__
 1460 0892 80E0      		ldi r24,lo8(.LC2)
 1461 0894 90E0      		ldi r25,hi8(.LC2)
 1462 0896 ADB7      		in r26,__SP_L__
 1463 0898 BEB7      		in r27,__SP_H__
 1464 089a 1296      		adiw r26,1+1
 1465 089c 9C93      		st X,r25
 1466 089e 8E93      		st -X,r24
 1467 08a0 1197      		sbiw r26,1
 1468 08a2 8981      		ldd r24,Y+1
 1469 08a4 9A81      		ldd r25,Y+2
 1470 08a6 AB81      		ldd r26,Y+3
 1471 08a8 BC81      		ldd r27,Y+4
 1472 08aa F601      		movw r30,r12
 1473 08ac 8283      		std Z+2,r24
 1474 08ae 9383      		std Z+3,r25
 1475 08b0 A483      		std Z+4,r26
 1476 08b2 B583      		std Z+5,r27
 1477 08b4 6D81      		ldd r22,Y+5
 1478 08b6 7E81      		ldd r23,Y+6
 1479 08b8 8F81      		ldd r24,Y+7
 1480 08ba 9885      		ldd r25,Y+8
 1481 08bc 20E4      		ldi r18,lo8(1000000)
 1482 08be 32E4      		ldi r19,hi8(1000000)
 1483 08c0 4FE0      		ldi r20,hlo8(1000000)
 1484 08c2 50E0      		ldi r21,hhi8(1000000)
 1485 08c4 0E94 0000 		call __udivmodsi4
 1486 08c8 D601      		movw r26,r12
 1487 08ca 1696      		adiw r26,6
 1488 08cc 2D93      		st X+,r18
 1489 08ce 3D93      		st X+,r19
 1490 08d0 4D93      		st X+,r20
 1491 08d2 5C93      		st X,r21
 1492 08d4 1997      		sbiw r26,6+3
 1493 08d6 0E94 0000 		call printf
 108:../../../src/kernel/source/nrk_stats.c ****     t=_nrk_ticks_to_time(cur_task_stats[pid].last_exec_ticks);
 1495               	.LM65:
 1496 08da EDB7      		in r30,__SP_L__
 1497 08dc FEB7      		in r31,__SP_H__
 1498 08de 3A96      		adiw r30,10
 1499 08e0 0FB6      		in __tmp_reg__,__SREG__
 1500 08e2 F894      		cli
 1501 08e4 FEBF      		out __SP_H__,r31
 1502 08e6 0FBE      		out __SREG__,__tmp_reg__
 1503 08e8 EDBF      		out __SP_L__,r30
 1504 08ea E12F      		mov r30,r17
 1505 08ec F0E0      		ldi r31,lo8(0)
 1506 08ee CF01      		movw r24,r30
 1507 08f0 880F      		lsl r24
 1508 08f2 991F      		rol r25
 1509 08f4 45E0      		ldi r20,5
 1510 08f6 EE0F      	1:	lsl r30
 1511 08f8 FF1F      		rol r31
 1512 08fa 4A95      		dec r20
 1513 08fc 01F4      		brne 1b
 1514 08fe E81B      		sub r30,r24
 1515 0900 F90B      		sbc r31,r25
 1516 0902 E050      		subi r30,lo8(-(cur_task_stats))
 1517 0904 F040      		sbci r31,hi8(-(cur_task_stats))
 1518 0906 6485      		ldd r22,Z+12
 1519 0908 7585      		ldd r23,Z+13
 1520 090a 8685      		ldd r24,Z+14
 1521 090c 9785      		ldd r25,Z+15
 1522 090e 0E94 0000 		call _nrk_ticks_to_time
 1523 0912 2987      		std Y+9,r18
 1524 0914 3A87      		std Y+10,r19
 1525 0916 4B87      		std Y+11,r20
 1526 0918 5C87      		std Y+12,r21
 1527 091a 6D87      		std Y+13,r22
 1528 091c 7E87      		std Y+14,r23
 1529 091e 8F87      		std Y+15,r24
 1530 0920 988B      		std Y+16,r25
 1531 0922 DE01      		movw r26,r28
 1532 0924 1196      		adiw r26,1
 1533 0926 FE01      		movw r30,r28
 1534 0928 3996      		adiw r30,9
 1535 092a 88E0      		ldi r24,lo8(8)
 1536               	.L20:
 1537 092c 0190      		ld r0,Z+
 1538 092e 0D92      		st X+,r0
 1539 0930 8150      		subi r24,lo8(-(-1))
 1540 0932 01F4      		brne .L20
 109:../../../src/kernel/source/nrk_stats.c ****     printf( "%lu secs %lu ms, ", t.secs, t.nano_secs/NANOS_PER_MS );
 1542               	.LM66:
 1543 0934 8DB7      		in r24,__SP_L__
 1544 0936 9EB7      		in r25,__SP_H__
 1545 0938 0A97      		sbiw r24,10
 1546 093a 0FB6      		in __tmp_reg__,__SREG__
 1547 093c F894      		cli
 1548 093e 9EBF      		out __SP_H__,r25
 1549 0940 0FBE      		out __SREG__,__tmp_reg__
 1550 0942 8DBF      		out __SP_L__,r24
 1551 0944 CDB6      		in r12,__SP_L__
 1552 0946 DEB6      		in r13,__SP_H__
 1553 0948 0894      		sec
 1554 094a C11C      		adc r12,__zero_reg__
 1555 094c D11C      		adc r13,__zero_reg__
 1556 094e 80E0      		ldi r24,lo8(.LC2)
 1557 0950 90E0      		ldi r25,hi8(.LC2)
 1558 0952 ADB7      		in r26,__SP_L__
 1559 0954 BEB7      		in r27,__SP_H__
 1560 0956 1296      		adiw r26,1+1
 1561 0958 9C93      		st X,r25
 1562 095a 8E93      		st -X,r24
 1563 095c 1197      		sbiw r26,1
 1564 095e 8981      		ldd r24,Y+1
 1565 0960 9A81      		ldd r25,Y+2
 1566 0962 AB81      		ldd r26,Y+3
 1567 0964 BC81      		ldd r27,Y+4
 1568 0966 F601      		movw r30,r12
 1569 0968 8283      		std Z+2,r24
 1570 096a 9383      		std Z+3,r25
 1571 096c A483      		std Z+4,r26
 1572 096e B583      		std Z+5,r27
 1573 0970 6D81      		ldd r22,Y+5
 1574 0972 7E81      		ldd r23,Y+6
 1575 0974 8F81      		ldd r24,Y+7
 1576 0976 9885      		ldd r25,Y+8
 1577 0978 20E4      		ldi r18,lo8(1000000)
 1578 097a 32E4      		ldi r19,hi8(1000000)
 1579 097c 4FE0      		ldi r20,hlo8(1000000)
 1580 097e 50E0      		ldi r21,hhi8(1000000)
 1581 0980 0E94 0000 		call __udivmodsi4
 1582 0984 D601      		movw r26,r12
 1583 0986 1696      		adiw r26,6
 1584 0988 2D93      		st X+,r18
 1585 098a 3D93      		st X+,r19
 1586 098c 4D93      		st X+,r20
 1587 098e 5C93      		st X,r21
 1588 0990 1997      		sbiw r26,6+3
 1589 0992 0E94 0000 		call printf
 110:../../../src/kernel/source/nrk_stats.c ****     t=_nrk_ticks_to_time(cur_task_stats[pid].max_exec_ticks);
 1591               	.LM67:
 1592 0996 EDB7      		in r30,__SP_L__
 1593 0998 FEB7      		in r31,__SP_H__
 1594 099a 3A96      		adiw r30,10
 1595 099c 0FB6      		in __tmp_reg__,__SREG__
 1596 099e F894      		cli
 1597 09a0 FEBF      		out __SP_H__,r31
 1598 09a2 0FBE      		out __SREG__,__tmp_reg__
 1599 09a4 EDBF      		out __SP_L__,r30
 1600 09a6 E12F      		mov r30,r17
 1601 09a8 F0E0      		ldi r31,lo8(0)
 1602 09aa CF01      		movw r24,r30
 1603 09ac 880F      		lsl r24
 1604 09ae 991F      		rol r25
 1605 09b0 25E0      		ldi r18,5
 1606 09b2 EE0F      	1:	lsl r30
 1607 09b4 FF1F      		rol r31
 1608 09b6 2A95      		dec r18
 1609 09b8 01F4      		brne 1b
 1610 09ba E81B      		sub r30,r24
 1611 09bc F90B      		sbc r31,r25
 1612 09be E050      		subi r30,lo8(-(cur_task_stats))
 1613 09c0 F040      		sbci r31,hi8(-(cur_task_stats))
 1614 09c2 6085      		ldd r22,Z+8
 1615 09c4 7185      		ldd r23,Z+9
 1616 09c6 8285      		ldd r24,Z+10
 1617 09c8 9385      		ldd r25,Z+11
 1618 09ca 0E94 0000 		call _nrk_ticks_to_time
 1619 09ce 2987      		std Y+9,r18
 1620 09d0 3A87      		std Y+10,r19
 1621 09d2 4B87      		std Y+11,r20
 1622 09d4 5C87      		std Y+12,r21
 1623 09d6 6D87      		std Y+13,r22
 1624 09d8 7E87      		std Y+14,r23
 1625 09da 8F87      		std Y+15,r24
 1626 09dc 988B      		std Y+16,r25
 1627 09de DE01      		movw r26,r28
 1628 09e0 1196      		adiw r26,1
 1629 09e2 FE01      		movw r30,r28
 1630 09e4 3996      		adiw r30,9
 1631 09e6 88E0      		ldi r24,lo8(8)
 1632               	.L21:
 1633 09e8 0190      		ld r0,Z+
 1634 09ea 0D92      		st X+,r0
 1635 09ec 8150      		subi r24,lo8(-(-1))
 1636 09ee 01F4      		brne .L21
 111:../../../src/kernel/source/nrk_stats.c ****     printf( "%lu secs %lu ms", t.secs, t.nano_secs/NANOS_PER_MS );
 1638               	.LM68:
 1639 09f0 8DB7      		in r24,__SP_L__
 1640 09f2 9EB7      		in r25,__SP_H__
 1641 09f4 0A97      		sbiw r24,10
 1642 09f6 0FB6      		in __tmp_reg__,__SREG__
 1643 09f8 F894      		cli
 1644 09fa 9EBF      		out __SP_H__,r25
 1645 09fc 0FBE      		out __SREG__,__tmp_reg__
 1646 09fe 8DBF      		out __SP_L__,r24
 1647 0a00 CDB6      		in r12,__SP_L__
 1648 0a02 DEB6      		in r13,__SP_H__
 1649 0a04 0894      		sec
 1650 0a06 C11C      		adc r12,__zero_reg__
 1651 0a08 D11C      		adc r13,__zero_reg__
 1652 0a0a 80E0      		ldi r24,lo8(.LC1)
 1653 0a0c 90E0      		ldi r25,hi8(.LC1)
 1654 0a0e ADB7      		in r26,__SP_L__
 1655 0a10 BEB7      		in r27,__SP_H__
 1656 0a12 1296      		adiw r26,1+1
 1657 0a14 9C93      		st X,r25
 1658 0a16 8E93      		st -X,r24
 1659 0a18 1197      		sbiw r26,1
 1660 0a1a 8981      		ldd r24,Y+1
 1661 0a1c 9A81      		ldd r25,Y+2
 1662 0a1e AB81      		ldd r26,Y+3
 1663 0a20 BC81      		ldd r27,Y+4
 1664 0a22 F601      		movw r30,r12
 1665 0a24 8283      		std Z+2,r24
 1666 0a26 9383      		std Z+3,r25
 1667 0a28 A483      		std Z+4,r26
 1668 0a2a B583      		std Z+5,r27
 1669 0a2c 6D81      		ldd r22,Y+5
 1670 0a2e 7E81      		ldd r23,Y+6
 1671 0a30 8F81      		ldd r24,Y+7
 1672 0a32 9885      		ldd r25,Y+8
 1673 0a34 20E4      		ldi r18,lo8(1000000)
 1674 0a36 32E4      		ldi r19,hi8(1000000)
 1675 0a38 4FE0      		ldi r20,hlo8(1000000)
 1676 0a3a 50E0      		ldi r21,hhi8(1000000)
 1677 0a3c 0E94 0000 		call __udivmodsi4
 1678 0a40 D601      		movw r26,r12
 1679 0a42 1696      		adiw r26,6
 1680 0a44 2D93      		st X+,r18
 1681 0a46 3D93      		st X+,r19
 1682 0a48 4D93      		st X+,r20
 1683 0a4a 5C93      		st X,r21
 1684 0a4c 1997      		sbiw r26,6+3
 1685 0a4e 0E94 0000 		call printf
 112:../../../src/kernel/source/nrk_stats.c ****     nrk_kprintf( PSTR( "\r\n   Swap-ins: "));
 1687               	.LM69:
 1688 0a52 EDB7      		in r30,__SP_L__
 1689 0a54 FEB7      		in r31,__SP_H__
 1690 0a56 3A96      		adiw r30,10
 1691 0a58 0FB6      		in __tmp_reg__,__SREG__
 1692 0a5a F894      		cli
 1693 0a5c FEBF      		out __SP_H__,r31
 1694 0a5e 0FBE      		out __SREG__,__tmp_reg__
 1695 0a60 EDBF      		out __SP_L__,r30
 1696 0a62 80E0      		ldi r24,lo8(__c.2139)
 1697 0a64 90E0      		ldi r25,hi8(__c.2139)
 1698 0a66 0E94 0000 		call nrk_kprintf
 113:../../../src/kernel/source/nrk_stats.c ****     printf( "%lu",cur_task_stats[pid].swapped_in );
 1700               	.LM70:
 1701 0a6a 00D0      		rcall .
 1702 0a6c 00D0      		rcall .
 1703 0a6e 00D0      		rcall .
 1704 0a70 80E0      		ldi r24,lo8(.LC3)
 1705 0a72 C82E      		mov r12,r24
 1706 0a74 80E0      		ldi r24,hi8(.LC3)
 1707 0a76 D82E      		mov r13,r24
 1708 0a78 ADB7      		in r26,__SP_L__
 1709 0a7a BEB7      		in r27,__SP_H__
 1710 0a7c 1296      		adiw r26,1+1
 1711 0a7e DC92      		st X,r13
 1712 0a80 CE92      		st -X,r12
 1713 0a82 1197      		sbiw r26,1
 1714 0a84 E12F      		mov r30,r17
 1715 0a86 F0E0      		ldi r31,lo8(0)
 1716 0a88 CF01      		movw r24,r30
 1717 0a8a 880F      		lsl r24
 1718 0a8c 991F      		rol r25
 1719 0a8e A5E0      		ldi r26,5
 1720 0a90 EE0F      	1:	lsl r30
 1721 0a92 FF1F      		rol r31
 1722 0a94 AA95      		dec r26
 1723 0a96 01F4      		brne 1b
 1724 0a98 E81B      		sub r30,r24
 1725 0a9a F90B      		sbc r31,r25
 1726 0a9c E050      		subi r30,lo8(-(cur_task_stats))
 1727 0a9e F040      		sbci r31,hi8(-(cur_task_stats))
 1728 0aa0 8089      		ldd r24,Z+16
 1729 0aa2 9189      		ldd r25,Z+17
 1730 0aa4 A289      		ldd r26,Z+18
 1731 0aa6 B389      		ldd r27,Z+19
 1732 0aa8 EDB7      		in r30,__SP_L__
 1733 0aaa FEB7      		in r31,__SP_H__
 1734 0aac 8383      		std Z+3,r24
 1735 0aae 9483      		std Z+4,r25
 1736 0ab0 A583      		std Z+5,r26
 1737 0ab2 B683      		std Z+6,r27
 1738 0ab4 0E94 0000 		call printf
 114:../../../src/kernel/source/nrk_stats.c ****     nrk_kprintf( PSTR( "\r\n   Preemptions: "));
 1740               	.LM71:
 1741 0ab8 8DB7      		in r24,__SP_L__
 1742 0aba 9EB7      		in r25,__SP_H__
 1743 0abc 0696      		adiw r24,6
 1744 0abe 0FB6      		in __tmp_reg__,__SREG__
 1745 0ac0 F894      		cli
 1746 0ac2 9EBF      		out __SP_H__,r25
 1747 0ac4 0FBE      		out __SREG__,__tmp_reg__
 1748 0ac6 8DBF      		out __SP_L__,r24
 1749 0ac8 80E0      		ldi r24,lo8(__c.2141)
 1750 0aca 90E0      		ldi r25,hi8(__c.2141)
 1751 0acc 0E94 0000 		call nrk_kprintf
 115:../../../src/kernel/source/nrk_stats.c ****     printf( "%lu",cur_task_stats[pid].preempted);
 1753               	.LM72:
 1754 0ad0 00D0      		rcall .
 1755 0ad2 00D0      		rcall .
 1756 0ad4 00D0      		rcall .
 1757 0ad6 ADB7      		in r26,__SP_L__
 1758 0ad8 BEB7      		in r27,__SP_H__
 1759 0ada 1296      		adiw r26,1+1
 1760 0adc DC92      		st X,r13
 1761 0ade CE92      		st -X,r12
 1762 0ae0 1197      		sbiw r26,1
 1763 0ae2 E12F      		mov r30,r17
 1764 0ae4 F0E0      		ldi r31,lo8(0)
 1765 0ae6 CF01      		movw r24,r30
 1766 0ae8 880F      		lsl r24
 1767 0aea 991F      		rol r25
 1768 0aec 65E0      		ldi r22,5
 1769 0aee EE0F      	1:	lsl r30
 1770 0af0 FF1F      		rol r31
 1771 0af2 6A95      		dec r22
 1772 0af4 01F4      		brne 1b
 1773 0af6 E81B      		sub r30,r24
 1774 0af8 F90B      		sbc r31,r25
 1775 0afa E050      		subi r30,lo8(-(cur_task_stats))
 1776 0afc F040      		sbci r31,hi8(-(cur_task_stats))
 1777 0afe 808D      		ldd r24,Z+24
 1778 0b00 918D      		ldd r25,Z+25
 1779 0b02 A28D      		ldd r26,Z+26
 1780 0b04 B38D      		ldd r27,Z+27
 1781 0b06 EDB7      		in r30,__SP_L__
 1782 0b08 FEB7      		in r31,__SP_H__
 1783 0b0a 8383      		std Z+3,r24
 1784 0b0c 9483      		std Z+4,r25
 1785 0b0e A583      		std Z+5,r26
 1786 0b10 B683      		std Z+6,r27
 1787 0b12 0E94 0000 		call printf
 116:../../../src/kernel/source/nrk_stats.c ****     nrk_kprintf( PSTR( "\r\n   Kernel Violations: "));
 1789               	.LM73:
 1790 0b16 8DB7      		in r24,__SP_L__
 1791 0b18 9EB7      		in r25,__SP_H__
 1792 0b1a 0696      		adiw r24,6
 1793 0b1c 0FB6      		in __tmp_reg__,__SREG__
 1794 0b1e F894      		cli
 1795 0b20 9EBF      		out __SP_H__,r25
 1796 0b22 0FBE      		out __SREG__,__tmp_reg__
 1797 0b24 8DBF      		out __SP_L__,r24
 1798 0b26 80E0      		ldi r24,lo8(__c.2143)
 1799 0b28 90E0      		ldi r25,hi8(__c.2143)
 1800 0b2a 0E94 0000 		call nrk_kprintf
 117:../../../src/kernel/source/nrk_stats.c ****     printf( "%u",cur_task_stats[pid].violations);
 1802               	.LM74:
 1803 0b2e 00D0      		rcall .
 1804 0b30 00D0      		rcall .
 1805 0b32 ADB7      		in r26,__SP_L__
 1806 0b34 BEB7      		in r27,__SP_H__
 1807 0b36 1196      		adiw r26,1
 1808 0b38 50E0      		ldi r21,lo8(.LC4)
 1809 0b3a C52E      		mov r12,r21
 1810 0b3c 50E0      		ldi r21,hi8(.LC4)
 1811 0b3e D52E      		mov r13,r21
 1812 0b40 EDB7      		in r30,__SP_L__
 1813 0b42 FEB7      		in r31,__SP_H__
 1814 0b44 D282      		std Z+2,r13
 1815 0b46 C182      		std Z+1,r12
 1816 0b48 E12F      		mov r30,r17
 1817 0b4a F0E0      		ldi r31,lo8(0)
 1818 0b4c CF01      		movw r24,r30
 1819 0b4e 880F      		lsl r24
 1820 0b50 991F      		rol r25
 1821 0b52 35E0      		ldi r19,5
 1822 0b54 EE0F      	1:	lsl r30
 1823 0b56 FF1F      		rol r31
 1824 0b58 3A95      		dec r19
 1825 0b5a 01F4      		brne 1b
 1826 0b5c E81B      		sub r30,r24
 1827 0b5e F90B      		sbc r31,r25
 1828 0b60 E050      		subi r30,lo8(-(cur_task_stats))
 1829 0b62 F040      		sbci r31,hi8(-(cur_task_stats))
 1830 0b64 848D      		ldd r24,Z+28
 1831 0b66 1296      		adiw r26,2
 1832 0b68 8C93      		st X,r24
 1833 0b6a 1297      		sbiw r26,2
 1834 0b6c 1396      		adiw r26,3
 1835 0b6e 1C92      		st X,__zero_reg__
 1836 0b70 0E94 0000 		call printf
 118:../../../src/kernel/source/nrk_stats.c ****     nrk_kprintf( PSTR( "\r\n   Overflow Error Status: "));
 1838               	.LM75:
 1839 0b74 0F90      		pop __tmp_reg__
 1840 0b76 0F90      		pop __tmp_reg__
 1841 0b78 0F90      		pop __tmp_reg__
 1842 0b7a 0F90      		pop __tmp_reg__
 1843 0b7c 80E0      		ldi r24,lo8(__c.2145)
 1844 0b7e 90E0      		ldi r25,hi8(__c.2145)
 1845 0b80 0E94 0000 		call nrk_kprintf
 119:../../../src/kernel/source/nrk_stats.c ****     printf( "%u",cur_task_stats[pid].overflow);
 1847               	.LM76:
 1848 0b84 00D0      		rcall .
 1849 0b86 00D0      		rcall .
 1850 0b88 ADB7      		in r26,__SP_L__
 1851 0b8a BEB7      		in r27,__SP_H__
 1852 0b8c 1196      		adiw r26,1
 1853 0b8e EDB7      		in r30,__SP_L__
 1854 0b90 FEB7      		in r31,__SP_H__
 1855 0b92 D282      		std Z+2,r13
 1856 0b94 C182      		std Z+1,r12
 1857 0b96 E12F      		mov r30,r17
 1858 0b98 F0E0      		ldi r31,lo8(0)
 1859 0b9a CF01      		movw r24,r30
 1860 0b9c 880F      		lsl r24
 1861 0b9e 991F      		rol r25
 1862 0ba0 15E0      		ldi r17,5
 1863 0ba2 EE0F      	1:	lsl r30
 1864 0ba4 FF1F      		rol r31
 1865 0ba6 1A95      		dec r17
 1866 0ba8 01F4      		brne 1b
 1867 0baa E81B      		sub r30,r24
 1868 0bac F90B      		sbc r31,r25
 1869 0bae E050      		subi r30,lo8(-(cur_task_stats))
 1870 0bb0 F040      		sbci r31,hi8(-(cur_task_stats))
 1871 0bb2 858D      		ldd r24,Z+29
 1872 0bb4 1296      		adiw r26,2
 1873 0bb6 8C93      		st X,r24
 1874 0bb8 1297      		sbiw r26,2
 1875 0bba 1396      		adiw r26,3
 1876 0bbc 1C92      		st X,__zero_reg__
 1877 0bbe 0E94 0000 		call printf
 120:../../../src/kernel/source/nrk_stats.c ****     nrk_kprintf( PSTR("\r\n") );
 1879               	.LM77:
 1880 0bc2 0F90      		pop __tmp_reg__
 1881 0bc4 0F90      		pop __tmp_reg__
 1882 0bc6 0F90      		pop __tmp_reg__
 1883 0bc8 0F90      		pop __tmp_reg__
 1884 0bca 80E0      		ldi r24,lo8(__c.2147)
 1885 0bcc 90E0      		ldi r25,hi8(__c.2147)
 1886 0bce 0E94 0000 		call nrk_kprintf
 1887               	/* epilogue start */
 121:../../../src/kernel/source/nrk_stats.c **** 
 122:../../../src/kernel/source/nrk_stats.c **** }
 1889               	.LM78:
 1890 0bd2 6096      		adiw r28,16
 1891 0bd4 0FB6      		in __tmp_reg__,__SREG__
 1892 0bd6 F894      		cli
 1893 0bd8 DEBF      		out __SP_H__,r29
 1894 0bda 0FBE      		out __SREG__,__tmp_reg__
 1895 0bdc CDBF      		out __SP_L__,r28
 1896 0bde CF91      		pop r28
 1897 0be0 DF91      		pop r29
 1898 0be2 1F91      		pop r17
 1899 0be4 FF90      		pop r15
 1900 0be6 EF90      		pop r14
 1901 0be8 DF90      		pop r13
 1902 0bea CF90      		pop r12
 1903 0bec BF90      		pop r11
 1904 0bee AF90      		pop r10
 1905 0bf0 9F90      		pop r9
 1906 0bf2 8F90      		pop r8
 1907 0bf4 0895      		ret
 1912               	.Lscope8:
 1914               		.stabd	78,0,0
 1916               	.global	nrk_stats_display_all
 1918               	nrk_stats_display_all:
 1919               		.stabd	46,0,0
 123:../../../src/kernel/source/nrk_stats.c **** 
 124:../../../src/kernel/source/nrk_stats.c **** 
 125:../../../src/kernel/source/nrk_stats.c **** void nrk_stats_display_all()
 126:../../../src/kernel/source/nrk_stats.c **** {
 1921               	.LM79:
 1922               	.LFBB9:
 1923               	/* prologue: function */
 1924               	/* frame size = 0 */
 1925               	/* stack size = 0 */
 1926               	.L__stack_usage = 0
 127:../../../src/kernel/source/nrk_stats.c ****     uint8_t i;
 128:../../../src/kernel/source/nrk_stats.c ****     nrk_kprintf( PSTR( "\r\nNano-RK Task Statistics:\r\n" ));
 1928               	.LM80:
 1929 0bf6 80E0      		ldi r24,lo8(__c.2152)
 1930 0bf8 90E0      		ldi r25,hi8(__c.2152)
 1931 0bfa 0E94 0000 		call nrk_kprintf
 129:../../../src/kernel/source/nrk_stats.c **** 
 130:../../../src/kernel/source/nrk_stats.c ****     for(i=0; i<NRK_MAX_TASKS; i++ )
 131:../../../src/kernel/source/nrk_stats.c ****         nrk_stats_display_pid(i);
 1933               	.LM81:
 1934 0bfe 80E0      		ldi r24,lo8(0)
 1935 0c00 0E94 0000 		call nrk_stats_display_pid
 1936 0c04 81E0      		ldi r24,lo8(1)
 1937 0c06 0E94 0000 		call nrk_stats_display_pid
 1938 0c0a 82E0      		ldi r24,lo8(2)
 1939 0c0c 0E94 0000 		call nrk_stats_display_pid
 1940 0c10 83E0      		ldi r24,lo8(3)
 1941 0c12 0E94 0000 		call nrk_stats_display_pid
 1942 0c16 84E0      		ldi r24,lo8(4)
 1943 0c18 0E94 0000 		call nrk_stats_display_pid
 1944               	/* epilogue start */
 132:../../../src/kernel/source/nrk_stats.c **** }
 1946               	.LM82:
 1947 0c1c 0895      		ret
 1949               	.Lscope9:
 1951               		.stabd	78,0,0
 1955               	.global	nrk_stats_get
 1957               	nrk_stats_get:
 1958               		.stabd	46,0,0
 133:../../../src/kernel/source/nrk_stats.c **** 
 134:../../../src/kernel/source/nrk_stats.c **** 
 135:../../../src/kernel/source/nrk_stats.c **** int8_t nrk_stats_get(uint8_t pid, nrk_task_stat_t *t)
 136:../../../src/kernel/source/nrk_stats.c **** {
 1960               	.LM83:
 1961               	.LFBB10:
 1962               	/* prologue: function */
 1963               	/* frame size = 0 */
 1964               	/* stack size = 0 */
 1965               	.L__stack_usage = 0
 1966 0c1e FB01      		movw r30,r22
 137:../../../src/kernel/source/nrk_stats.c ****     if(pid>=NRK_MAX_TASKS) return NRK_ERROR;
 1968               	.LM84:
 1969 0c20 8530      		cpi r24,lo8(5)
 1970 0c22 00F0      		brlo .+2
 1971 0c24 00C0      		rjmp .L29
 138:../../../src/kernel/source/nrk_stats.c **** 
 139:../../../src/kernel/source/nrk_stats.c ****     t->total_ticks=cur_task_stats[pid].total_ticks;
 1973               	.LM85:
 1974 0c26 A82F      		mov r26,r24
 1975 0c28 B0E0      		ldi r27,lo8(0)
 1976 0c2a 9D01      		movw r18,r26
 1977 0c2c 220F      		lsl r18
 1978 0c2e 331F      		rol r19
 1979 0c30 55E0      		ldi r21,5
 1980 0c32 AA0F      	1:	lsl r26
 1981 0c34 BB1F      		rol r27
 1982 0c36 5A95      		dec r21
 1983 0c38 01F4      		brne 1b
 1984 0c3a A21B      		sub r26,r18
 1985 0c3c B30B      		sbc r27,r19
 1986 0c3e A050      		subi r26,lo8(-(cur_task_stats))
 1987 0c40 B040      		sbci r27,hi8(-(cur_task_stats))
 1988 0c42 2D91      		ld r18,X+
 1989 0c44 3D91      		ld r19,X+
 1990 0c46 4D91      		ld r20,X+
 1991 0c48 5C91      		ld r21,X
 1992 0c4a 2083      		st Z,r18
 1993 0c4c 3183      		std Z+1,r19
 1994 0c4e 4283      		std Z+2,r20
 1995 0c50 5383      		std Z+3,r21
 140:../../../src/kernel/source/nrk_stats.c ****     t->min_exec_ticks=cur_task_stats[pid].min_exec_ticks;
 1997               	.LM86:
 1998 0c52 A82F      		mov r26,r24
 1999 0c54 B0E0      		ldi r27,lo8(0)
 2000 0c56 9D01      		movw r18,r26
 2001 0c58 220F      		lsl r18
 2002 0c5a 331F      		rol r19
 2003 0c5c 95E0      		ldi r25,5
 2004 0c5e AA0F      	1:	lsl r26
 2005 0c60 BB1F      		rol r27
 2006 0c62 9A95      		dec r25
 2007 0c64 01F4      		brne 1b
 2008 0c66 A21B      		sub r26,r18
 2009 0c68 B30B      		sbc r27,r19
 2010 0c6a A050      		subi r26,lo8(-(cur_task_stats))
 2011 0c6c B040      		sbci r27,hi8(-(cur_task_stats))
 2012 0c6e 1496      		adiw r26,4
 2013 0c70 2D91      		ld r18,X+
 2014 0c72 3D91      		ld r19,X+
 2015 0c74 4D91      		ld r20,X+
 2016 0c76 5C91      		ld r21,X
 2017 0c78 1797      		sbiw r26,4+3
 2018 0c7a 2483      		std Z+4,r18
 2019 0c7c 3583      		std Z+5,r19
 2020 0c7e 4683      		std Z+6,r20
 2021 0c80 5783      		std Z+7,r21
 141:../../../src/kernel/source/nrk_stats.c ****     t->max_exec_ticks=cur_task_stats[pid].max_exec_ticks;
 2023               	.LM87:
 2024 0c82 A82F      		mov r26,r24
 2025 0c84 B0E0      		ldi r27,lo8(0)
 2026 0c86 9D01      		movw r18,r26
 2027 0c88 220F      		lsl r18
 2028 0c8a 331F      		rol r19
 2029 0c8c 65E0      		ldi r22,5
 2030 0c8e AA0F      	1:	lsl r26
 2031 0c90 BB1F      		rol r27
 2032 0c92 6A95      		dec r22
 2033 0c94 01F4      		brne 1b
 2034 0c96 A21B      		sub r26,r18
 2035 0c98 B30B      		sbc r27,r19
 2036 0c9a A050      		subi r26,lo8(-(cur_task_stats))
 2037 0c9c B040      		sbci r27,hi8(-(cur_task_stats))
 2038 0c9e 1896      		adiw r26,8
 2039 0ca0 2D91      		ld r18,X+
 2040 0ca2 3D91      		ld r19,X+
 2041 0ca4 4D91      		ld r20,X+
 2042 0ca6 5C91      		ld r21,X
 2043 0ca8 1B97      		sbiw r26,8+3
 2044 0caa 2087      		std Z+8,r18
 2045 0cac 3187      		std Z+9,r19
 2046 0cae 4287      		std Z+10,r20
 2047 0cb0 5387      		std Z+11,r21
 142:../../../src/kernel/source/nrk_stats.c ****     t->last_exec_ticks=cur_task_stats[pid].last_exec_ticks;
 2049               	.LM88:
 2050 0cb2 A82F      		mov r26,r24
 2051 0cb4 B0E0      		ldi r27,lo8(0)
 2052 0cb6 9D01      		movw r18,r26
 2053 0cb8 220F      		lsl r18
 2054 0cba 331F      		rol r19
 2055 0cbc 45E0      		ldi r20,5
 2056 0cbe AA0F      	1:	lsl r26
 2057 0cc0 BB1F      		rol r27
 2058 0cc2 4A95      		dec r20
 2059 0cc4 01F4      		brne 1b
 2060 0cc6 A21B      		sub r26,r18
 2061 0cc8 B30B      		sbc r27,r19
 2062 0cca A050      		subi r26,lo8(-(cur_task_stats))
 2063 0ccc B040      		sbci r27,hi8(-(cur_task_stats))
 2064 0cce 1C96      		adiw r26,12
 2065 0cd0 2D91      		ld r18,X+
 2066 0cd2 3D91      		ld r19,X+
 2067 0cd4 4D91      		ld r20,X+
 2068 0cd6 5C91      		ld r21,X
 2069 0cd8 1F97      		sbiw r26,12+3
 2070 0cda 2487      		std Z+12,r18
 2071 0cdc 3587      		std Z+13,r19
 2072 0cde 4687      		std Z+14,r20
 2073 0ce0 5787      		std Z+15,r21
 143:../../../src/kernel/source/nrk_stats.c ****     t->swapped_in=cur_task_stats[pid].swapped_in;
 2075               	.LM89:
 2076 0ce2 A82F      		mov r26,r24
 2077 0ce4 B0E0      		ldi r27,lo8(0)
 2078 0ce6 9D01      		movw r18,r26
 2079 0ce8 220F      		lsl r18
 2080 0cea 331F      		rol r19
 2081 0cec 75E0      		ldi r23,5
 2082 0cee AA0F      	1:	lsl r26
 2083 0cf0 BB1F      		rol r27
 2084 0cf2 7A95      		dec r23
 2085 0cf4 01F4      		brne 1b
 2086 0cf6 A21B      		sub r26,r18
 2087 0cf8 B30B      		sbc r27,r19
 2088 0cfa A050      		subi r26,lo8(-(cur_task_stats))
 2089 0cfc B040      		sbci r27,hi8(-(cur_task_stats))
 2090 0cfe 5096      		adiw r26,16
 2091 0d00 2D91      		ld r18,X+
 2092 0d02 3D91      		ld r19,X+
 2093 0d04 4D91      		ld r20,X+
 2094 0d06 5C91      		ld r21,X
 2095 0d08 5397      		sbiw r26,16+3
 2096 0d0a 208B      		std Z+16,r18
 2097 0d0c 318B      		std Z+17,r19
 2098 0d0e 428B      		std Z+18,r20
 2099 0d10 538B      		std Z+19,r21
 144:../../../src/kernel/source/nrk_stats.c ****     t->cur_ticks=cur_task_stats[pid].cur_ticks;
 2101               	.LM90:
 2102 0d12 A82F      		mov r26,r24
 2103 0d14 B0E0      		ldi r27,lo8(0)
 2104 0d16 9D01      		movw r18,r26
 2105 0d18 220F      		lsl r18
 2106 0d1a 331F      		rol r19
 2107 0d1c 55E0      		ldi r21,5
 2108 0d1e AA0F      	1:	lsl r26
 2109 0d20 BB1F      		rol r27
 2110 0d22 5A95      		dec r21
 2111 0d24 01F4      		brne 1b
 2112 0d26 A21B      		sub r26,r18
 2113 0d28 B30B      		sbc r27,r19
 2114 0d2a A050      		subi r26,lo8(-(cur_task_stats))
 2115 0d2c B040      		sbci r27,hi8(-(cur_task_stats))
 2116 0d2e 5496      		adiw r26,20
 2117 0d30 2D91      		ld r18,X+
 2118 0d32 3D91      		ld r19,X+
 2119 0d34 4D91      		ld r20,X+
 2120 0d36 5C91      		ld r21,X
 2121 0d38 5797      		sbiw r26,20+3
 2122 0d3a 248B      		std Z+20,r18
 2123 0d3c 358B      		std Z+21,r19
 2124 0d3e 468B      		std Z+22,r20
 2125 0d40 578B      		std Z+23,r21
 145:../../../src/kernel/source/nrk_stats.c ****     t->preempted=cur_task_stats[pid].preempted;
 2127               	.LM91:
 2128 0d42 A82F      		mov r26,r24
 2129 0d44 B0E0      		ldi r27,lo8(0)
 2130 0d46 9D01      		movw r18,r26
 2131 0d48 220F      		lsl r18
 2132 0d4a 331F      		rol r19
 2133 0d4c 95E0      		ldi r25,5
 2134 0d4e AA0F      	1:	lsl r26
 2135 0d50 BB1F      		rol r27
 2136 0d52 9A95      		dec r25
 2137 0d54 01F4      		brne 1b
 2138 0d56 A21B      		sub r26,r18
 2139 0d58 B30B      		sbc r27,r19
 2140 0d5a A050      		subi r26,lo8(-(cur_task_stats))
 2141 0d5c B040      		sbci r27,hi8(-(cur_task_stats))
 2142 0d5e 5896      		adiw r26,24
 2143 0d60 2D91      		ld r18,X+
 2144 0d62 3D91      		ld r19,X+
 2145 0d64 4D91      		ld r20,X+
 2146 0d66 5C91      		ld r21,X
 2147 0d68 5B97      		sbiw r26,24+3
 2148 0d6a 208F      		std Z+24,r18
 2149 0d6c 318F      		std Z+25,r19
 2150 0d6e 428F      		std Z+26,r20
 2151 0d70 538F      		std Z+27,r21
 146:../../../src/kernel/source/nrk_stats.c ****     t->violations=cur_task_stats[pid].violations;
 2153               	.LM92:
 2154 0d72 A82F      		mov r26,r24
 2155 0d74 B0E0      		ldi r27,lo8(0)
 2156 0d76 9D01      		movw r18,r26
 2157 0d78 220F      		lsl r18
 2158 0d7a 331F      		rol r19
 2159 0d7c 65E0      		ldi r22,5
 2160 0d7e AA0F      	1:	lsl r26
 2161 0d80 BB1F      		rol r27
 2162 0d82 6A95      		dec r22
 2163 0d84 01F4      		brne 1b
 2164 0d86 A21B      		sub r26,r18
 2165 0d88 B30B      		sbc r27,r19
 2166 0d8a A050      		subi r26,lo8(-(cur_task_stats))
 2167 0d8c B040      		sbci r27,hi8(-(cur_task_stats))
 2168 0d8e 5C96      		adiw r26,28
 2169 0d90 9C91      		ld r25,X
 2170 0d92 948F      		std Z+28,r25
 147:../../../src/kernel/source/nrk_stats.c ****     t->overflow=cur_task_stats[pid].overflow;
 2172               	.LM93:
 2173 0d94 A82F      		mov r26,r24
 2174 0d96 B0E0      		ldi r27,lo8(0)
 2175 0d98 CD01      		movw r24,r26
 2176 0d9a 880F      		lsl r24
 2177 0d9c 991F      		rol r25
 2178 0d9e 45E0      		ldi r20,5
 2179 0da0 AA0F      	1:	lsl r26
 2180 0da2 BB1F      		rol r27
 2181 0da4 4A95      		dec r20
 2182 0da6 01F4      		brne 1b
 2183 0da8 A81B      		sub r26,r24
 2184 0daa B90B      		sbc r27,r25
 2185 0dac A050      		subi r26,lo8(-(cur_task_stats))
 2186 0dae B040      		sbci r27,hi8(-(cur_task_stats))
 2187 0db0 5D96      		adiw r26,29
 2188 0db2 8C91      		ld r24,X
 2189 0db4 5D97      		sbiw r26,29
 2190 0db6 858F      		std Z+29,r24
 148:../../../src/kernel/source/nrk_stats.c **** 
 149:../../../src/kernel/source/nrk_stats.c ****     return NRK_OK;
 2192               	.LM94:
 2193 0db8 81E0      		ldi r24,lo8(1)
 2194 0dba 0895      		ret
 2195               	.L29:
 137:../../../src/kernel/source/nrk_stats.c ****     if(pid>=NRK_MAX_TASKS) return NRK_ERROR;
 2197               	.LM95:
 2198 0dbc 8FEF      		ldi r24,lo8(-1)
 150:../../../src/kernel/source/nrk_stats.c **** }
 2200               	.LM96:
 2201 0dbe 0895      		ret
 2203               	.Lscope10:
 2205               		.stabd	78,0,0
 2206               		.comm _nrk_signal_list,4,1
 2207               		.comm nrk_idle_task_stk,128,1
 2208               		.comm nrk_kernel_stk_ptr,2,1
 2209               		.comm nrk_task_TCB,165,1
 2210               		.comm nrk_wakeup_signal,1,1
 2211               		.comm _nrk_readyQ,30,1
 2212               		.comm _free_node,2,1
 2213               		.comm _head_node,2,1
 2214               		.comm nrk_cur_task_prio,1,1
 2215               		.comm nrk_cur_task_TCB,2,1
 2216               		.comm nrk_high_ready_prio,1,1
 2217               		.comm nrk_high_ready_TCB,2,1
 2218               		.comm _nrk_resource_cnt,1,1
 2219               		.comm nrk_system_time,8,1
 2220               		.comm cur_task_stats,150,1
 2221               		.comm _nrk_stats_sleep_time,8,1
 2222               		.comm nrk_sem_list,3,1
 2223               		.comm error_task,1,1
 2224               		.comm error_num,1,1
 2225               		.section	.progmem.data,"a",@progbits
 2228               	__c.2152:
 2229 0000 0D0A 4E61 		.string	"\r\nNano-RK Task Statistics:\r\n"
 2229      6E6F 2D52 
 2229      4B20 5461 
 2229      736B 2053 
 2229      7461 7469 
 2232               	__c.2147:
 2233 001d 0D0A 00   		.string	"\r\n"
 2236               	__c.2145:
 2237 0020 0D0A 2020 		.string	"\r\n   Overflow Error Status: "
 2237      204F 7665 
 2237      7266 6C6F 
 2237      7720 4572 
 2237      726F 7220 
 2240               	__c.2143:
 2241 003d 0D0A 2020 		.string	"\r\n   Kernel Violations: "
 2241      204B 6572 
 2241      6E65 6C20 
 2241      5669 6F6C 
 2241      6174 696F 
 2244               	__c.2141:
 2245 0056 0D0A 2020 		.string	"\r\n   Preemptions: "
 2245      2050 7265 
 2245      656D 7074 
 2245      696F 6E73 
 2245      3A20 00
 2248               	__c.2139:
 2249 0069 0D0A 2020 		.string	"\r\n   Swap-ins: "
 2249      2053 7761 
 2249      702D 696E 
 2249      733A 2000 
 2252               	__c.2137:
 2253 0079 0D0A 2020 		.string	"\r\n   Time [Min,Last,Max]: "
 2253      2054 696D 
 2253      6520 5B4D 
 2253      696E 2C4C 
 2253      6173 742C 
 2256               	__c.2135:
 2257 0094 0D0A 2020 		.string	"\r\n   Total CPU: "
 2257      2054 6F74 
 2257      616C 2043 
 2257      5055 3A20 
 2257      00
 2260               	__c.2133:
 2261 00a5 0D0A 2020 		.string	"\r\n   Idle Task Deep Sleep Time: "
 2261      2049 646C 
 2261      6520 5461 
 2261      736B 2044 
 2261      6565 7020 
 2264               	__c.2131:
 2265 00c6 0D0A 2020 		.string	"\r\n   Total System Uptime: "
 2265      2054 6F74 
 2265      616C 2053 
 2265      7973 7465 
 2265      6D20 5570 
 2268               	__c.2129:
 2269 00e1 2054 6173 		.string	" Task ID: "
 2269      6B20 4944 
 2269      3A20 00
 2289               		.text
 2291               	.Letext0:
 2292               	.global __do_copy_data
 2293               	.global __do_clear_bss
DEFINED SYMBOLS
                            *ABS*:00000000 nrk_stats.c
     /tmp/cc8jDyeh.s:2      *ABS*:0000003f __SREG__
     /tmp/cc8jDyeh.s:3      *ABS*:0000003e __SP_H__
     /tmp/cc8jDyeh.s:4      *ABS*:0000003d __SP_L__
     /tmp/cc8jDyeh.s:5      *ABS*:00000034 __CCP__
     /tmp/cc8jDyeh.s:6      *ABS*:00000000 __tmp_reg__
     /tmp/cc8jDyeh.s:7      *ABS*:00000001 __zero_reg__
     /tmp/cc8jDyeh.s:141    .text:00000000 nrk_stats_reset
                            *COM*:00000008 _nrk_stats_sleep_time
                            *COM*:00000096 cur_task_stats
     /tmp/cc8jDyeh.s:226    .text:00000064 _nrk_stats_sleep
     /tmp/cc8jDyeh.s:275    .text:000000aa nrk_stats_get_deep_sleep
     /tmp/cc8jDyeh.s:317    .text:000000de _nrk_stats_add_violation
     /tmp/cc8jDyeh.s:410    .text:00000164 _nrk_stats_task_start
     /tmp/cc8jDyeh.s:540    .text:0000022e _nrk_stats_task_preempted
     /tmp/cc8jDyeh.s:779    .text:000003c8 _nrk_stats_task_suspend
     /tmp/cc8jDyeh.s:1110   .text:000005f8 nrk_stats_display_pid
     /tmp/cc8jDyeh.s:2268   .progmem.data:000000e1 __c.2129
     /tmp/cc8jDyeh.s:2264   .progmem.data:000000c6 __c.2131
     /tmp/cc8jDyeh.s:2260   .progmem.data:000000a5 __c.2133
     /tmp/cc8jDyeh.s:2256   .progmem.data:00000094 __c.2135
     /tmp/cc8jDyeh.s:2252   .progmem.data:00000079 __c.2137
     /tmp/cc8jDyeh.s:2248   .progmem.data:00000069 __c.2139
     /tmp/cc8jDyeh.s:2244   .progmem.data:00000056 __c.2141
     /tmp/cc8jDyeh.s:2240   .progmem.data:0000003d __c.2143
     /tmp/cc8jDyeh.s:2236   .progmem.data:00000020 __c.2145
     /tmp/cc8jDyeh.s:2232   .progmem.data:0000001d __c.2147
     /tmp/cc8jDyeh.s:1918   .text:00000bf6 nrk_stats_display_all
     /tmp/cc8jDyeh.s:2228   .progmem.data:00000000 __c.2152
     /tmp/cc8jDyeh.s:1957   .text:00000c1e nrk_stats_get
                            *COM*:00000004 _nrk_signal_list
                            *COM*:00000080 nrk_idle_task_stk
                            *COM*:00000002 nrk_kernel_stk_ptr
                            *COM*:000000a5 nrk_task_TCB
                            *COM*:00000001 nrk_wakeup_signal
                            *COM*:0000001e _nrk_readyQ
                            *COM*:00000002 _free_node
                            *COM*:00000002 _head_node
                            *COM*:00000001 nrk_cur_task_prio
                            *COM*:00000002 nrk_cur_task_TCB
                            *COM*:00000001 nrk_high_ready_prio
                            *COM*:00000002 nrk_high_ready_TCB
                            *COM*:00000001 _nrk_resource_cnt
                            *COM*:00000008 nrk_system_time
                            *COM*:00000003 nrk_sem_list
                            *COM*:00000001 error_task
                            *COM*:00000001 error_num

UNDEFINED SYMBOLS
__mulsi3
nrk_time_compact_nanos
nrk_kprintf
printf
nrk_time_get
__udivmodsi4
_nrk_ticks_to_time
__do_copy_data
__do_clear_bss
