   1               		.file	"mts310cb_driver.c"
   2               	__SREG__ = 0x3f
   3               	__SP_H__ = 0x3e
   4               	__SP_L__ = 0x3d
   5               	__CCP__ = 0x34
   6               	__tmp_reg__ = 0
   7               	__zero_reg__ = 1
  10               		.text
  11               	.Ltext0:
  78               	.global	mts310cb_init
  80               	mts310cb_init:
  81               		.stabd	46,0,0
   1:../../../src/drivers/platform/micaZ/source/mts310cb_driver.c **** /******************************************************************************
   2:../../../src/drivers/platform/micaZ/source/mts310cb_driver.c **** *  Nano-RK, a real-time operating system for sensor networks.
   3:../../../src/drivers/platform/micaZ/source/mts310cb_driver.c **** *  Copyright (C) 2011 Technische Universität München (www.vmi.ei.tum.de)
   4:../../../src/drivers/platform/micaZ/source/mts310cb_driver.c **** *  All rights reserved.
   5:../../../src/drivers/platform/micaZ/source/mts310cb_driver.c **** *
   6:../../../src/drivers/platform/micaZ/source/mts310cb_driver.c **** *  This is the Open Source Version of Nano-RK included as part of a Dual
   7:../../../src/drivers/platform/micaZ/source/mts310cb_driver.c **** *  Licensing Model. If you are unsure which license to use please refer to:
   8:../../../src/drivers/platform/micaZ/source/mts310cb_driver.c **** *  http://www.nanork.org/nano-RK/wiki/Licensing
   9:../../../src/drivers/platform/micaZ/source/mts310cb_driver.c **** *
  10:../../../src/drivers/platform/micaZ/source/mts310cb_driver.c **** *  This program is free software: you can redistribute it and/or modify
  11:../../../src/drivers/platform/micaZ/source/mts310cb_driver.c **** *  it under the terms of the GNU General Public License as published by
  12:../../../src/drivers/platform/micaZ/source/mts310cb_driver.c **** *  the Free Software Foundation, version 2.0 of the License.
  13:../../../src/drivers/platform/micaZ/source/mts310cb_driver.c **** *
  14:../../../src/drivers/platform/micaZ/source/mts310cb_driver.c **** *  This program is distributed in the hope that it will be useful,
  15:../../../src/drivers/platform/micaZ/source/mts310cb_driver.c **** *  but WITHOUT ANY WARRANTY; without even the implied warranty of
  16:../../../src/drivers/platform/micaZ/source/mts310cb_driver.c **** *  MERCHANTABILITY or FITNESS FOR A PARTICULAR PURPOSE.  See the
  17:../../../src/drivers/platform/micaZ/source/mts310cb_driver.c **** *  GNU General Public License for more details.
  18:../../../src/drivers/platform/micaZ/source/mts310cb_driver.c **** *
  19:../../../src/drivers/platform/micaZ/source/mts310cb_driver.c **** *  You should have received a copy of the GNU General Public License
  20:../../../src/drivers/platform/micaZ/source/mts310cb_driver.c **** *  along with this program.  If not, see <http://www.gnu.org/licenses/>.
  21:../../../src/drivers/platform/micaZ/source/mts310cb_driver.c **** *
  22:../../../src/drivers/platform/micaZ/source/mts310cb_driver.c **** *
  23:../../../src/drivers/platform/micaZ/source/mts310cb_driver.c **** *  mts310cb sensor board driver
  24:../../../src/drivers/platform/micaZ/source/mts310cb_driver.c **** *
  25:../../../src/drivers/platform/micaZ/source/mts310cb_driver.c **** *  Contributing Authors (specific to this file):
  26:../../../src/drivers/platform/micaZ/source/mts310cb_driver.c **** *  Author: Peter Diener
  27:../../../src/drivers/platform/micaZ/source/mts310cb_driver.c **** *
  28:../../../src/drivers/platform/micaZ/source/mts310cb_driver.c **** ***************************************************************************************/
  29:../../../src/drivers/platform/micaZ/source/mts310cb_driver.c **** 
  30:../../../src/drivers/platform/micaZ/source/mts310cb_driver.c **** 
  31:../../../src/drivers/platform/micaZ/source/mts310cb_driver.c **** #include "mts310cb_driver.h"
  32:../../../src/drivers/platform/micaZ/source/mts310cb_driver.c **** #include "adc_driver.h"
  33:../../../src/drivers/platform/micaZ/source/mts310cb_driver.c **** #include "ad5242.h"
  34:../../../src/drivers/platform/micaZ/source/mts310cb_driver.c **** #include <avr/io.h>
  35:../../../src/drivers/platform/micaZ/source/mts310cb_driver.c **** 
  36:../../../src/drivers/platform/micaZ/source/mts310cb_driver.c **** 
  37:../../../src/drivers/platform/micaZ/source/mts310cb_driver.c **** volatile unsigned char mts310cb_initDone = 0;
  38:../../../src/drivers/platform/micaZ/source/mts310cb_driver.c **** 
  39:../../../src/drivers/platform/micaZ/source/mts310cb_driver.c **** #define CheckIfInitDone() do{ if (mts310cb_initDone == 0) mts310cb_init(); }while(0)
  40:../../../src/drivers/platform/micaZ/source/mts310cb_driver.c **** 
  41:../../../src/drivers/platform/micaZ/source/mts310cb_driver.c **** 
  42:../../../src/drivers/platform/micaZ/source/mts310cb_driver.c **** // Do not forget to init everything before using it
  43:../../../src/drivers/platform/micaZ/source/mts310cb_driver.c **** void mts310cb_init()
  44:../../../src/drivers/platform/micaZ/source/mts310cb_driver.c **** {
  83               	.LM0:
  84               	.LFBB1:
  85               	/* prologue: function */
  86               	/* frame size = 0 */
  87               	/* stack size = 0 */
  88               	.L__stack_usage = 0
  45:../../../src/drivers/platform/micaZ/source/mts310cb_driver.c **** 	adc_init();
  90               	.LM1:
  91 0000 0E94 0000 		call adc_init
  46:../../../src/drivers/platform/micaZ/source/mts310cb_driver.c **** 	ad5242_init();
  93               	.LM2:
  94 0004 0E94 0000 		call ad5242_init
  47:../../../src/drivers/platform/micaZ/source/mts310cb_driver.c **** 	mts310cb_initDone = 1;
  96               	.LM3:
  97 0008 81E0      		ldi r24,lo8(1)
  98 000a 8093 0000 		sts mts310cb_initDone,r24
  99               	/* epilogue start */
  48:../../../src/drivers/platform/micaZ/source/mts310cb_driver.c **** }
 101               	.LM4:
 102 000e 0895      		ret
 104               	.Lscope1:
 106               		.stabd	78,0,0
 108               	.global	mts310cb_Powersave
 110               	mts310cb_Powersave:
 111               		.stabd	46,0,0
  49:../../../src/drivers/platform/micaZ/source/mts310cb_driver.c **** 
  50:../../../src/drivers/platform/micaZ/source/mts310cb_driver.c **** 
  51:../../../src/drivers/platform/micaZ/source/mts310cb_driver.c **** 
  52:../../../src/drivers/platform/micaZ/source/mts310cb_driver.c **** void mts310cb_Powersave()
  53:../../../src/drivers/platform/micaZ/source/mts310cb_driver.c **** {
 113               	.LM5:
 114               	.LFBB2:
 115               	/* prologue: function */
 116               	/* frame size = 0 */
 117               	/* stack size = 0 */
 118               	.L__stack_usage = 0
  54:../../../src/drivers/platform/micaZ/source/mts310cb_driver.c **** 	CheckIfInitDone();
 120               	.LM6:
 121 0010 8091 0000 		lds r24,mts310cb_initDone
 122 0014 8823      		tst r24
 123 0016 01F4      		brne .L3
 125               	.LM7:
 126 0018 0E94 0000 		call mts310cb_init
 127               	.L3:
  55:../../../src/drivers/platform/micaZ/source/mts310cb_driver.c **** 	adc_Powersave();
 129               	.LM8:
 130 001c 0E94 0000 		call adc_Powersave
 131               	/* epilogue start */
  56:../../../src/drivers/platform/micaZ/source/mts310cb_driver.c **** }
 133               	.LM9:
 134 0020 0895      		ret
 136               	.Lscope2:
 138               		.stabd	78,0,0
 141               	.global	mts310cb_Accelerometer_Power
 143               	mts310cb_Accelerometer_Power:
 144               		.stabd	46,0,0
  57:../../../src/drivers/platform/micaZ/source/mts310cb_driver.c **** 
  58:../../../src/drivers/platform/micaZ/source/mts310cb_driver.c **** 
  59:../../../src/drivers/platform/micaZ/source/mts310cb_driver.c **** 
  60:../../../src/drivers/platform/micaZ/source/mts310cb_driver.c **** // Power control line PW4
  61:../../../src/drivers/platform/micaZ/source/mts310cb_driver.c **** void mts310cb_Accelerometer_Power(T_Power powerstatus)
  62:../../../src/drivers/platform/micaZ/source/mts310cb_driver.c **** {
 146               	.LM10:
 147               	.LFBB3:
 148 0022 DF93      		push r29
 149 0024 CF93      		push r28
 150 0026 0F92      		push __tmp_reg__
 151 0028 CDB7      		in r28,__SP_L__
 152 002a DEB7      		in r29,__SP_H__
 153               	/* prologue: function */
 154               	/* frame size = 1 */
 155               	/* stack size = 3 */
 156               	.L__stack_usage = 3
  63:../../../src/drivers/platform/micaZ/source/mts310cb_driver.c **** 	CheckIfInitDone();
 158               	.LM11:
 159 002c 9091 0000 		lds r25,mts310cb_initDone
 160 0030 9923      		tst r25
 161 0032 01F4      		brne .L5
 163               	.LM12:
 164 0034 8983      		std Y+1,r24
 165 0036 0E94 0000 		call mts310cb_init
 166 003a 8981      		ldd r24,Y+1
 167               	.L5:
  64:../../../src/drivers/platform/micaZ/source/mts310cb_driver.c **** 	if (powerstatus == POWER_ON)	PORTC |=  (1 << 4);
 169               	.LM13:
 170 003c 8130      		cpi r24,lo8(1)
 171 003e 01F4      		brne .L6
 173               	.LM14:
 174 0040 AC9A      		sbi 53-32,4
 175 0042 00C0      		rjmp .L4
 176               	.L6:
  65:../../../src/drivers/platform/micaZ/source/mts310cb_driver.c **** 	else									PORTC &= ~(1 << 4);
 178               	.LM15:
 179 0044 AC98      		cbi 53-32,4
 180               	.L4:
 181               	/* epilogue start */
  66:../../../src/drivers/platform/micaZ/source/mts310cb_driver.c **** }
 183               	.LM16:
 184 0046 0F90      		pop __tmp_reg__
 185 0048 CF91      		pop r28
 186 004a DF91      		pop r29
 187 004c 0895      		ret
 189               	.Lscope3:
 191               		.stabd	78,0,0
 194               	.global	mts310cb_Magnetometer_Power
 196               	mts310cb_Magnetometer_Power:
 197               		.stabd	46,0,0
  67:../../../src/drivers/platform/micaZ/source/mts310cb_driver.c **** 
  68:../../../src/drivers/platform/micaZ/source/mts310cb_driver.c **** 
  69:../../../src/drivers/platform/micaZ/source/mts310cb_driver.c **** 
  70:../../../src/drivers/platform/micaZ/source/mts310cb_driver.c **** // Power control line PW5
  71:../../../src/drivers/platform/micaZ/source/mts310cb_driver.c **** void mts310cb_Magnetometer_Power(T_Power powerstatus)
  72:../../../src/drivers/platform/micaZ/source/mts310cb_driver.c **** {
 199               	.LM17:
 200               	.LFBB4:
 201 004e DF93      		push r29
 202 0050 CF93      		push r28
 203 0052 0F92      		push __tmp_reg__
 204 0054 CDB7      		in r28,__SP_L__
 205 0056 DEB7      		in r29,__SP_H__
 206               	/* prologue: function */
 207               	/* frame size = 1 */
 208               	/* stack size = 3 */
 209               	.L__stack_usage = 3
  73:../../../src/drivers/platform/micaZ/source/mts310cb_driver.c **** 	CheckIfInitDone();
 211               	.LM18:
 212 0058 9091 0000 		lds r25,mts310cb_initDone
 213 005c 9923      		tst r25
 214 005e 01F4      		brne .L9
 216               	.LM19:
 217 0060 8983      		std Y+1,r24
 218 0062 0E94 0000 		call mts310cb_init
 219 0066 8981      		ldd r24,Y+1
 220               	.L9:
  74:../../../src/drivers/platform/micaZ/source/mts310cb_driver.c **** 	if (powerstatus == POWER_ON)	PORTC |=  (1 << 5);
 222               	.LM20:
 223 0068 8130      		cpi r24,lo8(1)
 224 006a 01F4      		brne .L10
 226               	.LM21:
 227 006c AD9A      		sbi 53-32,5
 228 006e 00C0      		rjmp .L8
 229               	.L10:
  75:../../../src/drivers/platform/micaZ/source/mts310cb_driver.c **** 	else									PORTC &= ~(1 << 5);
 231               	.LM22:
 232 0070 AD98      		cbi 53-32,5
 233               	.L8:
 234               	/* epilogue start */
  76:../../../src/drivers/platform/micaZ/source/mts310cb_driver.c **** }
 236               	.LM23:
 237 0072 0F90      		pop __tmp_reg__
 238 0074 CF91      		pop r28
 239 0076 DF91      		pop r29
 240 0078 0895      		ret
 242               	.Lscope4:
 244               		.stabd	78,0,0
 247               	.global	mts310cb_TemperatureSensor_Power
 249               	mts310cb_TemperatureSensor_Power:
 250               		.stabd	46,0,0
  77:../../../src/drivers/platform/micaZ/source/mts310cb_driver.c **** 
  78:../../../src/drivers/platform/micaZ/source/mts310cb_driver.c **** 
  79:../../../src/drivers/platform/micaZ/source/mts310cb_driver.c **** 
  80:../../../src/drivers/platform/micaZ/source/mts310cb_driver.c **** // Power control via int1 (PE5)
  81:../../../src/drivers/platform/micaZ/source/mts310cb_driver.c **** // This must be tristate if not in use, otherwise temperature sensor will be incorrect
  82:../../../src/drivers/platform/micaZ/source/mts310cb_driver.c **** void mts310cb_LightSensor_Power(T_Power powerstatus)
  83:../../../src/drivers/platform/micaZ/source/mts310cb_driver.c **** {
  84:../../../src/drivers/platform/micaZ/source/mts310cb_driver.c **** 	CheckIfInitDone();
  85:../../../src/drivers/platform/micaZ/source/mts310cb_driver.c **** 	mts310cb_TemperatureSensor_Power(POWER_OFF);		// Only one of these may be active at a time
  86:../../../src/drivers/platform/micaZ/source/mts310cb_driver.c **** 	if (powerstatus == POWER_ON)
  87:../../../src/drivers/platform/micaZ/source/mts310cb_driver.c **** 	{
  88:../../../src/drivers/platform/micaZ/source/mts310cb_driver.c **** 		PORTE |= (1 << 5);
  89:../../../src/drivers/platform/micaZ/source/mts310cb_driver.c **** 		DDRE  |= (1 << 5);
  90:../../../src/drivers/platform/micaZ/source/mts310cb_driver.c **** 	}
  91:../../../src/drivers/platform/micaZ/source/mts310cb_driver.c **** 	else
  92:../../../src/drivers/platform/micaZ/source/mts310cb_driver.c **** 	{
  93:../../../src/drivers/platform/micaZ/source/mts310cb_driver.c **** 		PORTE &= ~(1 << 5);
  94:../../../src/drivers/platform/micaZ/source/mts310cb_driver.c **** 		DDRE  &= ~(1 << 5);
  95:../../../src/drivers/platform/micaZ/source/mts310cb_driver.c **** 	}
  96:../../../src/drivers/platform/micaZ/source/mts310cb_driver.c **** }
  97:../../../src/drivers/platform/micaZ/source/mts310cb_driver.c **** 
  98:../../../src/drivers/platform/micaZ/source/mts310cb_driver.c **** 
  99:../../../src/drivers/platform/micaZ/source/mts310cb_driver.c **** 
 100:../../../src/drivers/platform/micaZ/source/mts310cb_driver.c **** // Power control via PW0
 101:../../../src/drivers/platform/micaZ/source/mts310cb_driver.c **** // This must be tristate if not in use, otherwise light sensor will be incorrect
 102:../../../src/drivers/platform/micaZ/source/mts310cb_driver.c **** void mts310cb_TemperatureSensor_Power(T_Power powerstatus)
 103:../../../src/drivers/platform/micaZ/source/mts310cb_driver.c **** {
 252               	.LM24:
 253               	.LFBB5:
 254 007a 1F93      		push r17
 255               	/* prologue: function */
 256               	/* frame size = 0 */
 257               	/* stack size = 1 */
 258               	.L__stack_usage = 1
 259 007c 182F      		mov r17,r24
 104:../../../src/drivers/platform/micaZ/source/mts310cb_driver.c **** 	CheckIfInitDone();
 261               	.LM25:
 262 007e 8091 0000 		lds r24,mts310cb_initDone
 263 0082 8823      		tst r24
 264 0084 01F4      		brne .L13
 266               	.LM26:
 267 0086 0E94 0000 		call mts310cb_init
 268               	.L13:
 105:../../../src/drivers/platform/micaZ/source/mts310cb_driver.c **** 	mts310cb_LightSensor_Power(POWER_OFF);				// Only one of these may be active at a time
 270               	.LM27:
 271 008a 80E0      		ldi r24,lo8(0)
 272 008c 0E94 0000 		call mts310cb_LightSensor_Power
 106:../../../src/drivers/platform/micaZ/source/mts310cb_driver.c **** 	if (powerstatus == POWER_ON)
 274               	.LM28:
 275 0090 1130      		cpi r17,lo8(1)
 276 0092 01F4      		brne .L14
 107:../../../src/drivers/platform/micaZ/source/mts310cb_driver.c **** 	{
 108:../../../src/drivers/platform/micaZ/source/mts310cb_driver.c **** 		PORTC |= (1 << 0);
 278               	.LM29:
 279 0094 A89A      		sbi 53-32,0
 109:../../../src/drivers/platform/micaZ/source/mts310cb_driver.c **** 		DDRC  |= (1 << 0);
 281               	.LM30:
 282 0096 A09A      		sbi 52-32,0
 283 0098 00C0      		rjmp .L12
 284               	.L14:
 110:../../../src/drivers/platform/micaZ/source/mts310cb_driver.c **** 	}
 111:../../../src/drivers/platform/micaZ/source/mts310cb_driver.c **** 	else
 112:../../../src/drivers/platform/micaZ/source/mts310cb_driver.c **** 	{
 113:../../../src/drivers/platform/micaZ/source/mts310cb_driver.c **** 		PORTC &= ~(1 << 0);
 286               	.LM31:
 287 009a A898      		cbi 53-32,0
 114:../../../src/drivers/platform/micaZ/source/mts310cb_driver.c **** 		DDRC  &= ~(1 << 0);
 289               	.LM32:
 290 009c A098      		cbi 52-32,0
 291               	.L12:
 292               	/* epilogue start */
 115:../../../src/drivers/platform/micaZ/source/mts310cb_driver.c **** 	}
 116:../../../src/drivers/platform/micaZ/source/mts310cb_driver.c **** }
 294               	.LM33:
 295 009e 1F91      		pop r17
 296 00a0 0895      		ret
 298               	.Lscope5:
 300               		.stabd	78,0,0
 303               	.global	mts310cb_LightSensor_Power
 305               	mts310cb_LightSensor_Power:
 306               		.stabd	46,0,0
  83:../../../src/drivers/platform/micaZ/source/mts310cb_driver.c **** {
 308               	.LM34:
 309               	.LFBB6:
 310 00a2 1F93      		push r17
 311               	/* prologue: function */
 312               	/* frame size = 0 */
 313               	/* stack size = 1 */
 314               	.L__stack_usage = 1
 315 00a4 182F      		mov r17,r24
  84:../../../src/drivers/platform/micaZ/source/mts310cb_driver.c **** 	CheckIfInitDone();
 317               	.LM35:
 318 00a6 8091 0000 		lds r24,mts310cb_initDone
 319 00aa 8823      		tst r24
 320 00ac 01F4      		brne .L17
  84:../../../src/drivers/platform/micaZ/source/mts310cb_driver.c **** 	CheckIfInitDone();
 322               	.LM36:
 323 00ae 0E94 0000 		call mts310cb_init
 324               	.L17:
  85:../../../src/drivers/platform/micaZ/source/mts310cb_driver.c **** 	mts310cb_TemperatureSensor_Power(POWER_OFF);		// Only one of these may be active at a time
 326               	.LM37:
 327 00b2 80E0      		ldi r24,lo8(0)
 328 00b4 0E94 0000 		call mts310cb_TemperatureSensor_Power
  86:../../../src/drivers/platform/micaZ/source/mts310cb_driver.c **** 	if (powerstatus == POWER_ON)
 330               	.LM38:
 331 00b8 1130      		cpi r17,lo8(1)
 332 00ba 01F4      		brne .L18
  88:../../../src/drivers/platform/micaZ/source/mts310cb_driver.c **** 		PORTE |= (1 << 5);
 334               	.LM39:
 335 00bc 1D9A      		sbi 35-32,5
  89:../../../src/drivers/platform/micaZ/source/mts310cb_driver.c **** 		DDRE  |= (1 << 5);
 337               	.LM40:
 338 00be 159A      		sbi 34-32,5
 339 00c0 00C0      		rjmp .L16
 340               	.L18:
  93:../../../src/drivers/platform/micaZ/source/mts310cb_driver.c **** 		PORTE &= ~(1 << 5);
 342               	.LM41:
 343 00c2 1D98      		cbi 35-32,5
  94:../../../src/drivers/platform/micaZ/source/mts310cb_driver.c **** 		DDRE  &= ~(1 << 5);
 345               	.LM42:
 346 00c4 1598      		cbi 34-32,5
 347               	.L16:
 348               	/* epilogue start */
  96:../../../src/drivers/platform/micaZ/source/mts310cb_driver.c **** }
 350               	.LM43:
 351 00c6 1F91      		pop r17
 352 00c8 0895      		ret
 354               	.Lscope6:
 356               		.stabd	78,0,0
 359               	.global	mts310cb_Sounder_Power
 361               	mts310cb_Sounder_Power:
 362               		.stabd	46,0,0
 117:../../../src/drivers/platform/micaZ/source/mts310cb_driver.c **** 
 118:../../../src/drivers/platform/micaZ/source/mts310cb_driver.c **** 
 119:../../../src/drivers/platform/micaZ/source/mts310cb_driver.c **** 
 120:../../../src/drivers/platform/micaZ/source/mts310cb_driver.c **** // Power control line PW2
 121:../../../src/drivers/platform/micaZ/source/mts310cb_driver.c **** void mts310cb_Sounder_Power(T_Power powerstatus)
 122:../../../src/drivers/platform/micaZ/source/mts310cb_driver.c **** {
 364               	.LM44:
 365               	.LFBB7:
 366 00ca DF93      		push r29
 367 00cc CF93      		push r28
 368 00ce 0F92      		push __tmp_reg__
 369 00d0 CDB7      		in r28,__SP_L__
 370 00d2 DEB7      		in r29,__SP_H__
 371               	/* prologue: function */
 372               	/* frame size = 1 */
 373               	/* stack size = 3 */
 374               	.L__stack_usage = 3
 123:../../../src/drivers/platform/micaZ/source/mts310cb_driver.c **** 	CheckIfInitDone();
 376               	.LM45:
 377 00d4 9091 0000 		lds r25,mts310cb_initDone
 378 00d8 9923      		tst r25
 379 00da 01F4      		brne .L21
 381               	.LM46:
 382 00dc 8983      		std Y+1,r24
 383 00de 0E94 0000 		call mts310cb_init
 384 00e2 8981      		ldd r24,Y+1
 385               	.L21:
 124:../../../src/drivers/platform/micaZ/source/mts310cb_driver.c **** 	if (powerstatus == POWER_ON)	PORTC |=  (1 << 2);
 387               	.LM47:
 388 00e4 8130      		cpi r24,lo8(1)
 389 00e6 01F4      		brne .L22
 391               	.LM48:
 392 00e8 AA9A      		sbi 53-32,2
 393 00ea 00C0      		rjmp .L20
 394               	.L22:
 125:../../../src/drivers/platform/micaZ/source/mts310cb_driver.c **** 	else									PORTC &= ~(1 << 2);
 396               	.LM49:
 397 00ec AA98      		cbi 53-32,2
 398               	.L20:
 399               	/* epilogue start */
 126:../../../src/drivers/platform/micaZ/source/mts310cb_driver.c **** }
 401               	.LM50:
 402 00ee 0F90      		pop __tmp_reg__
 403 00f0 CF91      		pop r28
 404 00f2 DF91      		pop r29
 405 00f4 0895      		ret
 407               	.Lscope7:
 409               		.stabd	78,0,0
 412               	.global	mts310cb_Microphone_Power
 414               	mts310cb_Microphone_Power:
 415               		.stabd	46,0,0
 127:../../../src/drivers/platform/micaZ/source/mts310cb_driver.c **** 
 128:../../../src/drivers/platform/micaZ/source/mts310cb_driver.c **** 
 129:../../../src/drivers/platform/micaZ/source/mts310cb_driver.c **** 
 130:../../../src/drivers/platform/micaZ/source/mts310cb_driver.c **** // Power control line PW3
 131:../../../src/drivers/platform/micaZ/source/mts310cb_driver.c **** void mts310cb_Microphone_Power(T_Power powerstatus)
 132:../../../src/drivers/platform/micaZ/source/mts310cb_driver.c **** {
 417               	.LM51:
 418               	.LFBB8:
 419 00f6 DF93      		push r29
 420 00f8 CF93      		push r28
 421 00fa 0F92      		push __tmp_reg__
 422 00fc CDB7      		in r28,__SP_L__
 423 00fe DEB7      		in r29,__SP_H__
 424               	/* prologue: function */
 425               	/* frame size = 1 */
 426               	/* stack size = 3 */
 427               	.L__stack_usage = 3
 133:../../../src/drivers/platform/micaZ/source/mts310cb_driver.c **** 	CheckIfInitDone();
 429               	.LM52:
 430 0100 9091 0000 		lds r25,mts310cb_initDone
 431 0104 9923      		tst r25
 432 0106 01F4      		brne .L25
 434               	.LM53:
 435 0108 8983      		std Y+1,r24
 436 010a 0E94 0000 		call mts310cb_init
 437 010e 8981      		ldd r24,Y+1
 438               	.L25:
 134:../../../src/drivers/platform/micaZ/source/mts310cb_driver.c **** 	if (powerstatus == POWER_ON)	PORTC |=  (1 << 3);
 440               	.LM54:
 441 0110 8130      		cpi r24,lo8(1)
 442 0112 01F4      		brne .L26
 444               	.LM55:
 445 0114 AB9A      		sbi 53-32,3
 446 0116 00C0      		rjmp .L24
 447               	.L26:
 135:../../../src/drivers/platform/micaZ/source/mts310cb_driver.c **** 	else									PORTC &= ~(1 << 3);
 449               	.LM56:
 450 0118 AB98      		cbi 53-32,3
 451               	.L24:
 452               	/* epilogue start */
 136:../../../src/drivers/platform/micaZ/source/mts310cb_driver.c **** }
 454               	.LM57:
 455 011a 0F90      		pop __tmp_reg__
 456 011c CF91      		pop r28
 457 011e DF91      		pop r29
 458 0120 0895      		ret
 460               	.Lscope8:
 462               		.stabd	78,0,0
 465               	.global	mts310cb_Magnetometer_x_SetOffset
 467               	mts310cb_Magnetometer_x_SetOffset:
 468               		.stabd	46,0,0
 137:../../../src/drivers/platform/micaZ/source/mts310cb_driver.c **** 
 138:../../../src/drivers/platform/micaZ/source/mts310cb_driver.c **** 
 139:../../../src/drivers/platform/micaZ/source/mts310cb_driver.c **** 
 140:../../../src/drivers/platform/micaZ/source/mts310cb_driver.c **** // Adjust offset voltage at Opamp U6 in 256 steps
 141:../../../src/drivers/platform/micaZ/source/mts310cb_driver.c **** void mts310cb_Magnetometer_x_SetOffset(unsigned char value)
 142:../../../src/drivers/platform/micaZ/source/mts310cb_driver.c **** {
 470               	.LM58:
 471               	.LFBB9:
 472 0122 DF93      		push r29
 473 0124 CF93      		push r28
 474 0126 0F92      		push __tmp_reg__
 475 0128 CDB7      		in r28,__SP_L__
 476 012a DEB7      		in r29,__SP_H__
 477               	/* prologue: function */
 478               	/* frame size = 1 */
 479               	/* stack size = 3 */
 480               	.L__stack_usage = 3
 481 012c 482F      		mov r20,r24
 143:../../../src/drivers/platform/micaZ/source/mts310cb_driver.c **** 	CheckIfInitDone();
 483               	.LM59:
 484 012e 8091 0000 		lds r24,mts310cb_initDone
 485 0132 8823      		tst r24
 486 0134 01F4      		brne .L29
 488               	.LM60:
 489 0136 4983      		std Y+1,r20
 490 0138 0E94 0000 		call mts310cb_init
 491 013c 4981      		ldd r20,Y+1
 492               	.L29:
 144:../../../src/drivers/platform/micaZ/source/mts310cb_driver.c **** 	#define ad5242_MagnetometerAddress 0
 145:../../../src/drivers/platform/micaZ/source/mts310cb_driver.c **** 	ad5242_set(ad5242_MagnetometerAddress, 1, value);	// Channel 1
 494               	.LM61:
 495 013e 80E0      		ldi r24,lo8(0)
 496 0140 61E0      		ldi r22,lo8(1)
 497 0142 0E94 0000 		call ad5242_set
 498               	/* epilogue start */
 146:../../../src/drivers/platform/micaZ/source/mts310cb_driver.c **** }
 500               	.LM62:
 501 0146 0F90      		pop __tmp_reg__
 502 0148 CF91      		pop r28
 503 014a DF91      		pop r29
 504 014c 0895      		ret
 506               	.Lscope9:
 508               		.stabd	78,0,0
 511               	.global	mts310cb_Magnetometer_y_SetOffset
 513               	mts310cb_Magnetometer_y_SetOffset:
 514               		.stabd	46,0,0
 147:../../../src/drivers/platform/micaZ/source/mts310cb_driver.c **** 
 148:../../../src/drivers/platform/micaZ/source/mts310cb_driver.c **** 
 149:../../../src/drivers/platform/micaZ/source/mts310cb_driver.c **** 
 150:../../../src/drivers/platform/micaZ/source/mts310cb_driver.c **** // Adjust offset voltage at Opamp U7 in 256 steps
 151:../../../src/drivers/platform/micaZ/source/mts310cb_driver.c **** void mts310cb_Magnetometer_y_SetOffset(unsigned char value)
 152:../../../src/drivers/platform/micaZ/source/mts310cb_driver.c **** {
 516               	.LM63:
 517               	.LFBB10:
 518 014e DF93      		push r29
 519 0150 CF93      		push r28
 520 0152 0F92      		push __tmp_reg__
 521 0154 CDB7      		in r28,__SP_L__
 522 0156 DEB7      		in r29,__SP_H__
 523               	/* prologue: function */
 524               	/* frame size = 1 */
 525               	/* stack size = 3 */
 526               	.L__stack_usage = 3
 527 0158 482F      		mov r20,r24
 153:../../../src/drivers/platform/micaZ/source/mts310cb_driver.c **** 	CheckIfInitDone();
 529               	.LM64:
 530 015a 8091 0000 		lds r24,mts310cb_initDone
 531 015e 8823      		tst r24
 532 0160 01F4      		brne .L31
 534               	.LM65:
 535 0162 4983      		std Y+1,r20
 536 0164 0E94 0000 		call mts310cb_init
 537 0168 4981      		ldd r20,Y+1
 538               	.L31:
 154:../../../src/drivers/platform/micaZ/source/mts310cb_driver.c **** 	ad5242_set(ad5242_MagnetometerAddress, 2, value);	// Channel 2
 540               	.LM66:
 541 016a 80E0      		ldi r24,lo8(0)
 542 016c 62E0      		ldi r22,lo8(2)
 543 016e 0E94 0000 		call ad5242_set
 544               	/* epilogue start */
 155:../../../src/drivers/platform/micaZ/source/mts310cb_driver.c **** }
 546               	.LM67:
 547 0172 0F90      		pop __tmp_reg__
 548 0174 CF91      		pop r28
 549 0176 DF91      		pop r29
 550 0178 0895      		ret
 552               	.Lscope10:
 554               		.stabd	78,0,0
 557               	.global	mts310cb_Microphone_SetGain
 559               	mts310cb_Microphone_SetGain:
 560               		.stabd	46,0,0
 156:../../../src/drivers/platform/micaZ/source/mts310cb_driver.c **** 
 157:../../../src/drivers/platform/micaZ/source/mts310cb_driver.c **** 
 158:../../../src/drivers/platform/micaZ/source/mts310cb_driver.c **** 
 159:../../../src/drivers/platform/micaZ/source/mts310cb_driver.c **** // Adjust gain of Mic preamp in 256 steps
 160:../../../src/drivers/platform/micaZ/source/mts310cb_driver.c **** void mts310cb_Microphone_SetGain(unsigned char value)
 161:../../../src/drivers/platform/micaZ/source/mts310cb_driver.c **** {
 562               	.LM68:
 563               	.LFBB11:
 564 017a DF93      		push r29
 565 017c CF93      		push r28
 566 017e 0F92      		push __tmp_reg__
 567 0180 CDB7      		in r28,__SP_L__
 568 0182 DEB7      		in r29,__SP_H__
 569               	/* prologue: function */
 570               	/* frame size = 1 */
 571               	/* stack size = 3 */
 572               	.L__stack_usage = 3
 573 0184 482F      		mov r20,r24
 162:../../../src/drivers/platform/micaZ/source/mts310cb_driver.c **** 	CheckIfInitDone();
 575               	.LM69:
 576 0186 8091 0000 		lds r24,mts310cb_initDone
 577 018a 8823      		tst r24
 578 018c 01F4      		brne .L33
 580               	.LM70:
 581 018e 4983      		std Y+1,r20
 582 0190 0E94 0000 		call mts310cb_init
 583 0194 4981      		ldd r20,Y+1
 584               	.L33:
 163:../../../src/drivers/platform/micaZ/source/mts310cb_driver.c **** 	#define ad5242_MicrophoneAddress 1
 164:../../../src/drivers/platform/micaZ/source/mts310cb_driver.c **** 	ad5242_set(ad5242_MicrophoneAddress, 1, value);		// Channel 1
 586               	.LM71:
 587 0196 81E0      		ldi r24,lo8(1)
 588 0198 61E0      		ldi r22,lo8(1)
 589 019a 0E94 0000 		call ad5242_set
 590               	/* epilogue start */
 165:../../../src/drivers/platform/micaZ/source/mts310cb_driver.c **** }
 592               	.LM72:
 593 019e 0F90      		pop __tmp_reg__
 594 01a0 CF91      		pop r28
 595 01a2 DF91      		pop r29
 596 01a4 0895      		ret
 598               	.Lscope11:
 600               		.stabd	78,0,0
 603               	.global	mts310cb_Microphone_SetMode
 605               	mts310cb_Microphone_SetMode:
 606               		.stabd	46,0,0
 166:../../../src/drivers/platform/micaZ/source/mts310cb_driver.c **** 
 167:../../../src/drivers/platform/micaZ/source/mts310cb_driver.c **** 
 168:../../../src/drivers/platform/micaZ/source/mts310cb_driver.c **** 
 169:../../../src/drivers/platform/micaZ/source/mts310cb_driver.c **** // This is set with PW6
 170:../../../src/drivers/platform/micaZ/source/mts310cb_driver.c **** void mts310cb_Microphone_SetMode(T_MicMode mode)
 171:../../../src/drivers/platform/micaZ/source/mts310cb_driver.c **** {
 608               	.LM73:
 609               	.LFBB12:
 610 01a6 DF93      		push r29
 611 01a8 CF93      		push r28
 612 01aa 0F92      		push __tmp_reg__
 613 01ac CDB7      		in r28,__SP_L__
 614 01ae DEB7      		in r29,__SP_H__
 615               	/* prologue: function */
 616               	/* frame size = 1 */
 617               	/* stack size = 3 */
 618               	.L__stack_usage = 3
 172:../../../src/drivers/platform/micaZ/source/mts310cb_driver.c **** 	CheckIfInitDone();
 620               	.LM74:
 621 01b0 9091 0000 		lds r25,mts310cb_initDone
 622 01b4 9923      		tst r25
 623 01b6 01F4      		brne .L35
 625               	.LM75:
 626 01b8 8983      		std Y+1,r24
 627 01ba 0E94 0000 		call mts310cb_init
 628 01be 8981      		ldd r24,Y+1
 629               	.L35:
 173:../../../src/drivers/platform/micaZ/source/mts310cb_driver.c **** 	if (mode == MIC_RAW)                PORTC |=  (1 << 6); // tbd: is this the right logic or is it i
 631               	.LM76:
 632 01c0 8823      		tst r24
 633 01c2 01F4      		brne .L36
 635               	.LM77:
 636 01c4 AE9A      		sbi 53-32,6
 637 01c6 00C0      		rjmp .L34
 638               	.L36:
 174:../../../src/drivers/platform/micaZ/source/mts310cb_driver.c **** 	else if (mode == MIC_TONEDETECT)    PORTC &= ~(1 << 6);
 640               	.LM78:
 641 01c8 8130      		cpi r24,lo8(1)
 642 01ca 01F4      		brne .L34
 644               	.LM79:
 645 01cc AE98      		cbi 53-32,6
 646               	.L34:
 647               	/* epilogue start */
 175:../../../src/drivers/platform/micaZ/source/mts310cb_driver.c **** }
 649               	.LM80:
 650 01ce 0F90      		pop __tmp_reg__
 651 01d0 CF91      		pop r28
 652 01d2 DF91      		pop r29
 653 01d4 0895      		ret
 655               	.Lscope12:
 657               		.stabd	78,0,0
 659               	.global	mts310cb_LightSensor_GetCounts
 661               	mts310cb_LightSensor_GetCounts:
 662               		.stabd	46,0,0
 176:../../../src/drivers/platform/micaZ/source/mts310cb_driver.c **** 
 177:../../../src/drivers/platform/micaZ/source/mts310cb_driver.c **** 
 178:../../../src/drivers/platform/micaZ/source/mts310cb_driver.c **** // This is a ratiometric value, so use Vcc as reference
 179:../../../src/drivers/platform/micaZ/source/mts310cb_driver.c **** unsigned int mts310cb_LightSensor_GetCounts()
 180:../../../src/drivers/platform/micaZ/source/mts310cb_driver.c **** {
 664               	.LM81:
 665               	.LFBB13:
 666               	/* prologue: function */
 667               	/* frame size = 0 */
 668               	/* stack size = 0 */
 669               	.L__stack_usage = 0
 181:../../../src/drivers/platform/micaZ/source/mts310cb_driver.c **** 	CheckIfInitDone();
 671               	.LM82:
 672 01d6 8091 0000 		lds r24,mts310cb_initDone
 673 01da 8823      		tst r24
 674 01dc 01F4      		brne .L39
 676               	.LM83:
 677 01de 0E94 0000 		call mts310cb_init
 678               	.L39:
 182:../../../src/drivers/platform/micaZ/source/mts310cb_driver.c **** 	mts310cb_LightSensor_Power(POWER_ON);
 680               	.LM84:
 681 01e2 81E0      		ldi r24,lo8(1)
 682 01e4 0E94 0000 		call mts310cb_LightSensor_Power
 183:../../../src/drivers/platform/micaZ/source/mts310cb_driver.c **** 	return adc_GetChannel(1);
 684               	.LM85:
 685 01e8 81E0      		ldi r24,lo8(1)
 686 01ea 0E94 0000 		call adc_GetChannel
 687               	/* epilogue start */
 184:../../../src/drivers/platform/micaZ/source/mts310cb_driver.c **** }
 689               	.LM86:
 690 01ee 0895      		ret
 692               	.Lscope13:
 694               		.stabd	78,0,0
 696               	.global	mts310cb_TemperatureSensor_GetCounts
 698               	mts310cb_TemperatureSensor_GetCounts:
 699               		.stabd	46,0,0
 185:../../../src/drivers/platform/micaZ/source/mts310cb_driver.c **** 
 186:../../../src/drivers/platform/micaZ/source/mts310cb_driver.c **** 
 187:../../../src/drivers/platform/micaZ/source/mts310cb_driver.c **** 
 188:../../../src/drivers/platform/micaZ/source/mts310cb_driver.c **** // This is a ratiometric value, so use Vcc as reference
 189:../../../src/drivers/platform/micaZ/source/mts310cb_driver.c **** unsigned int mts310cb_TemperatureSensor_GetCounts()
 190:../../../src/drivers/platform/micaZ/source/mts310cb_driver.c **** {
 701               	.LM87:
 702               	.LFBB14:
 703               	/* prologue: function */
 704               	/* frame size = 0 */
 705               	/* stack size = 0 */
 706               	.L__stack_usage = 0
 191:../../../src/drivers/platform/micaZ/source/mts310cb_driver.c **** 	CheckIfInitDone();
 708               	.LM88:
 709 01f0 8091 0000 		lds r24,mts310cb_initDone
 710 01f4 8823      		tst r24
 711 01f6 01F4      		brne .L41
 713               	.LM89:
 714 01f8 0E94 0000 		call mts310cb_init
 715               	.L41:
 192:../../../src/drivers/platform/micaZ/source/mts310cb_driver.c **** 	mts310cb_TemperatureSensor_Power(POWER_ON);
 717               	.LM90:
 718 01fc 81E0      		ldi r24,lo8(1)
 719 01fe 0E94 0000 		call mts310cb_TemperatureSensor_Power
 193:../../../src/drivers/platform/micaZ/source/mts310cb_driver.c **** 	return adc_GetChannel(1);
 721               	.LM91:
 722 0202 81E0      		ldi r24,lo8(1)
 723 0204 0E94 0000 		call adc_GetChannel
 724               	/* epilogue start */
 194:../../../src/drivers/platform/micaZ/source/mts310cb_driver.c **** }
 726               	.LM92:
 727 0208 0895      		ret
 729               	.Lscope14:
 731               		.stabd	78,0,0
 733               	.global	mts310cb_Microphone_GetCounts
 735               	mts310cb_Microphone_GetCounts:
 736               		.stabd	46,0,0
 195:../../../src/drivers/platform/micaZ/source/mts310cb_driver.c **** 
 196:../../../src/drivers/platform/micaZ/source/mts310cb_driver.c **** 
 197:../../../src/drivers/platform/micaZ/source/mts310cb_driver.c **** 
 198:../../../src/drivers/platform/micaZ/source/mts310cb_driver.c **** unsigned int mts310cb_Microphone_GetCounts()
 199:../../../src/drivers/platform/micaZ/source/mts310cb_driver.c **** {
 738               	.LM93:
 739               	.LFBB15:
 740               	/* prologue: function */
 741               	/* frame size = 0 */
 742               	/* stack size = 0 */
 743               	.L__stack_usage = 0
 200:../../../src/drivers/platform/micaZ/source/mts310cb_driver.c **** 	CheckIfInitDone();
 745               	.LM94:
 746 020a 8091 0000 		lds r24,mts310cb_initDone
 747 020e 8823      		tst r24
 748 0210 01F4      		brne .L43
 750               	.LM95:
 751 0212 0E94 0000 		call mts310cb_init
 752               	.L43:
 201:../../../src/drivers/platform/micaZ/source/mts310cb_driver.c **** 	return adc_GetChannel(2);
 754               	.LM96:
 755 0216 82E0      		ldi r24,lo8(2)
 756 0218 0E94 0000 		call adc_GetChannel
 757               	/* epilogue start */
 202:../../../src/drivers/platform/micaZ/source/mts310cb_driver.c **** }
 759               	.LM97:
 760 021c 0895      		ret
 762               	.Lscope15:
 764               		.stabd	78,0,0
 766               	.global	mts310cb_Accelerometer_x_GetCounts
 768               	mts310cb_Accelerometer_x_GetCounts:
 769               		.stabd	46,0,0
 203:../../../src/drivers/platform/micaZ/source/mts310cb_driver.c **** 
 204:../../../src/drivers/platform/micaZ/source/mts310cb_driver.c **** 
 205:../../../src/drivers/platform/micaZ/source/mts310cb_driver.c **** 
 206:../../../src/drivers/platform/micaZ/source/mts310cb_driver.c **** unsigned int mts310cb_Accelerometer_x_GetCounts()
 207:../../../src/drivers/platform/micaZ/source/mts310cb_driver.c **** {
 771               	.LM98:
 772               	.LFBB16:
 773               	/* prologue: function */
 774               	/* frame size = 0 */
 775               	/* stack size = 0 */
 776               	.L__stack_usage = 0
 208:../../../src/drivers/platform/micaZ/source/mts310cb_driver.c **** 	CheckIfInitDone();
 778               	.LM99:
 779 021e 8091 0000 		lds r24,mts310cb_initDone
 780 0222 8823      		tst r24
 781 0224 01F4      		brne .L45
 783               	.LM100:
 784 0226 0E94 0000 		call mts310cb_init
 785               	.L45:
 209:../../../src/drivers/platform/micaZ/source/mts310cb_driver.c **** 	return adc_GetChannel(3);
 787               	.LM101:
 788 022a 83E0      		ldi r24,lo8(3)
 789 022c 0E94 0000 		call adc_GetChannel
 790               	/* epilogue start */
 210:../../../src/drivers/platform/micaZ/source/mts310cb_driver.c **** }
 792               	.LM102:
 793 0230 0895      		ret
 795               	.Lscope16:
 797               		.stabd	78,0,0
 799               	.global	mts310cb_Accelerometer_y_GetCounts
 801               	mts310cb_Accelerometer_y_GetCounts:
 802               		.stabd	46,0,0
 211:../../../src/drivers/platform/micaZ/source/mts310cb_driver.c **** 
 212:../../../src/drivers/platform/micaZ/source/mts310cb_driver.c **** 
 213:../../../src/drivers/platform/micaZ/source/mts310cb_driver.c **** 
 214:../../../src/drivers/platform/micaZ/source/mts310cb_driver.c **** unsigned int mts310cb_Accelerometer_y_GetCounts()
 215:../../../src/drivers/platform/micaZ/source/mts310cb_driver.c **** {
 804               	.LM103:
 805               	.LFBB17:
 806               	/* prologue: function */
 807               	/* frame size = 0 */
 808               	/* stack size = 0 */
 809               	.L__stack_usage = 0
 216:../../../src/drivers/platform/micaZ/source/mts310cb_driver.c **** 	CheckIfInitDone();
 811               	.LM104:
 812 0232 8091 0000 		lds r24,mts310cb_initDone
 813 0236 8823      		tst r24
 814 0238 01F4      		brne .L47
 816               	.LM105:
 817 023a 0E94 0000 		call mts310cb_init
 818               	.L47:
 217:../../../src/drivers/platform/micaZ/source/mts310cb_driver.c **** 	return adc_GetChannel(4);
 820               	.LM106:
 821 023e 84E0      		ldi r24,lo8(4)
 822 0240 0E94 0000 		call adc_GetChannel
 823               	/* epilogue start */
 218:../../../src/drivers/platform/micaZ/source/mts310cb_driver.c **** }
 825               	.LM107:
 826 0244 0895      		ret
 828               	.Lscope17:
 830               		.stabd	78,0,0
 832               	.global	mts310cb_Magnetometer_x_GetCounts
 834               	mts310cb_Magnetometer_x_GetCounts:
 835               		.stabd	46,0,0
 219:../../../src/drivers/platform/micaZ/source/mts310cb_driver.c **** 
 220:../../../src/drivers/platform/micaZ/source/mts310cb_driver.c **** 
 221:../../../src/drivers/platform/micaZ/source/mts310cb_driver.c **** 
 222:../../../src/drivers/platform/micaZ/source/mts310cb_driver.c **** unsigned int mts310cb_Magnetometer_x_GetCounts()
 223:../../../src/drivers/platform/micaZ/source/mts310cb_driver.c **** {
 837               	.LM108:
 838               	.LFBB18:
 839               	/* prologue: function */
 840               	/* frame size = 0 */
 841               	/* stack size = 0 */
 842               	.L__stack_usage = 0
 224:../../../src/drivers/platform/micaZ/source/mts310cb_driver.c **** 	CheckIfInitDone();
 844               	.LM109:
 845 0246 8091 0000 		lds r24,mts310cb_initDone
 846 024a 8823      		tst r24
 847 024c 01F4      		brne .L49
 849               	.LM110:
 850 024e 0E94 0000 		call mts310cb_init
 851               	.L49:
 225:../../../src/drivers/platform/micaZ/source/mts310cb_driver.c **** 	return adc_GetChannel(5);
 853               	.LM111:
 854 0252 85E0      		ldi r24,lo8(5)
 855 0254 0E94 0000 		call adc_GetChannel
 856               	/* epilogue start */
 226:../../../src/drivers/platform/micaZ/source/mts310cb_driver.c **** }
 858               	.LM112:
 859 0258 0895      		ret
 861               	.Lscope18:
 863               		.stabd	78,0,0
 865               	.global	mts310cb_Magnetometer_y_GetCounts
 867               	mts310cb_Magnetometer_y_GetCounts:
 868               		.stabd	46,0,0
 227:../../../src/drivers/platform/micaZ/source/mts310cb_driver.c **** 
 228:../../../src/drivers/platform/micaZ/source/mts310cb_driver.c **** 
 229:../../../src/drivers/platform/micaZ/source/mts310cb_driver.c **** 
 230:../../../src/drivers/platform/micaZ/source/mts310cb_driver.c **** unsigned int mts310cb_Magnetometer_y_GetCounts()
 231:../../../src/drivers/platform/micaZ/source/mts310cb_driver.c **** {
 870               	.LM113:
 871               	.LFBB19:
 872               	/* prologue: function */
 873               	/* frame size = 0 */
 874               	/* stack size = 0 */
 875               	.L__stack_usage = 0
 232:../../../src/drivers/platform/micaZ/source/mts310cb_driver.c **** 	CheckIfInitDone();
 877               	.LM114:
 878 025a 8091 0000 		lds r24,mts310cb_initDone
 879 025e 8823      		tst r24
 880 0260 01F4      		brne .L51
 882               	.LM115:
 883 0262 0E94 0000 		call mts310cb_init
 884               	.L51:
 233:../../../src/drivers/platform/micaZ/source/mts310cb_driver.c **** 	return adc_GetChannel(6);
 886               	.LM116:
 887 0266 86E0      		ldi r24,lo8(6)
 888 0268 0E94 0000 		call adc_GetChannel
 889               	/* epilogue start */
 234:../../../src/drivers/platform/micaZ/source/mts310cb_driver.c **** }
 891               	.LM117:
 892 026c 0895      		ret
 894               	.Lscope19:
 896               		.stabd	78,0,0
 897               	.global	mts310cb_initDone
 898               	.global	mts310cb_initDone
 899               		.section .bss
 902               	mts310cb_initDone:
 903 0000 00        		.skip 1,0
 905               		.text
 907               	.Letext0:
 908               	.global __do_clear_bss
DEFINED SYMBOLS
                            *ABS*:00000000 mts310cb_driver.c
     /tmp/ccfNar02.s:2      *ABS*:0000003f __SREG__
     /tmp/ccfNar02.s:3      *ABS*:0000003e __SP_H__
     /tmp/ccfNar02.s:4      *ABS*:0000003d __SP_L__
     /tmp/ccfNar02.s:5      *ABS*:00000034 __CCP__
     /tmp/ccfNar02.s:6      *ABS*:00000000 __tmp_reg__
     /tmp/ccfNar02.s:7      *ABS*:00000001 __zero_reg__
     /tmp/ccfNar02.s:80     .text:00000000 mts310cb_init
     /tmp/ccfNar02.s:902    .bss:00000000 mts310cb_initDone
     /tmp/ccfNar02.s:110    .text:00000010 mts310cb_Powersave
     /tmp/ccfNar02.s:143    .text:00000022 mts310cb_Accelerometer_Power
     /tmp/ccfNar02.s:196    .text:0000004e mts310cb_Magnetometer_Power
     /tmp/ccfNar02.s:249    .text:0000007a mts310cb_TemperatureSensor_Power
     /tmp/ccfNar02.s:305    .text:000000a2 mts310cb_LightSensor_Power
     /tmp/ccfNar02.s:361    .text:000000ca mts310cb_Sounder_Power
     /tmp/ccfNar02.s:414    .text:000000f6 mts310cb_Microphone_Power
     /tmp/ccfNar02.s:467    .text:00000122 mts310cb_Magnetometer_x_SetOffset
     /tmp/ccfNar02.s:513    .text:0000014e mts310cb_Magnetometer_y_SetOffset
     /tmp/ccfNar02.s:559    .text:0000017a mts310cb_Microphone_SetGain
     /tmp/ccfNar02.s:605    .text:000001a6 mts310cb_Microphone_SetMode
     /tmp/ccfNar02.s:661    .text:000001d6 mts310cb_LightSensor_GetCounts
     /tmp/ccfNar02.s:698    .text:000001f0 mts310cb_TemperatureSensor_GetCounts
     /tmp/ccfNar02.s:735    .text:0000020a mts310cb_Microphone_GetCounts
     /tmp/ccfNar02.s:768    .text:0000021e mts310cb_Accelerometer_x_GetCounts
     /tmp/ccfNar02.s:801    .text:00000232 mts310cb_Accelerometer_y_GetCounts
     /tmp/ccfNar02.s:834    .text:00000246 mts310cb_Magnetometer_x_GetCounts
     /tmp/ccfNar02.s:867    .text:0000025a mts310cb_Magnetometer_y_GetCounts

UNDEFINED SYMBOLS
adc_init
ad5242_init
adc_Powersave
ad5242_set
adc_GetChannel
__do_clear_bss
