   1               		.file	"TUM_LKN_Sensorboard_driver.c"
   2               	__SREG__ = 0x3f
   3               	__SP_H__ = 0x3e
   4               	__SP_L__ = 0x3d
   5               	__CCP__  = 0x34
   6               	__tmp_reg__ = 0
   7               	__zero_reg__ = 1
   8               		.global __do_copy_data
   9               		.global __do_clear_bss
  12               		.text
  13               	.Ltext0:
 147               	.global	setLedMode
 149               	setLedMode:
 150               		.stabd	46,0,0
   0:../../../src/drivers/platform/micaZ/source/TUM_LKN_Sensorboard_driver.c **** /******************************************************************************
   1:../../../src/drivers/platform/micaZ/source/TUM_LKN_Sensorboard_driver.c **** *  Nano-RK, a real-time operating system for sensor networks.
   2:../../../src/drivers/platform/micaZ/source/TUM_LKN_Sensorboard_driver.c **** *  Copyright (C) 2011 Technische Universität München (www.vmi.ei.tum.de)
   3:../../../src/drivers/platform/micaZ/source/TUM_LKN_Sensorboard_driver.c **** *  All rights reserved.
   4:../../../src/drivers/platform/micaZ/source/TUM_LKN_Sensorboard_driver.c **** *
   5:../../../src/drivers/platform/micaZ/source/TUM_LKN_Sensorboard_driver.c **** *  This is the Open Source Version of Nano-RK included as part of a Dual
   6:../../../src/drivers/platform/micaZ/source/TUM_LKN_Sensorboard_driver.c **** *  Licensing Model. If you are unsure which license to use please refer to:
   7:../../../src/drivers/platform/micaZ/source/TUM_LKN_Sensorboard_driver.c **** *  http://www.nanork.org/nano-RK/wiki/Licensing
   8:../../../src/drivers/platform/micaZ/source/TUM_LKN_Sensorboard_driver.c **** *
   9:../../../src/drivers/platform/micaZ/source/TUM_LKN_Sensorboard_driver.c **** *  This program is free software: you can redistribute it and/or modify
  10:../../../src/drivers/platform/micaZ/source/TUM_LKN_Sensorboard_driver.c **** *  it under the terms of the GNU General Public License as published by
  11:../../../src/drivers/platform/micaZ/source/TUM_LKN_Sensorboard_driver.c **** *  the Free Software Foundation, version 2.0 of the License.
  12:../../../src/drivers/platform/micaZ/source/TUM_LKN_Sensorboard_driver.c **** *
  13:../../../src/drivers/platform/micaZ/source/TUM_LKN_Sensorboard_driver.c **** *  This program is distributed in the hope that it will be useful,
  14:../../../src/drivers/platform/micaZ/source/TUM_LKN_Sensorboard_driver.c **** *  but WITHOUT ANY WARRANTY; without even the implied warranty of
  15:../../../src/drivers/platform/micaZ/source/TUM_LKN_Sensorboard_driver.c **** *  MERCHANTABILITY or FITNESS FOR A PARTICULAR PURPOSE.  See the
  16:../../../src/drivers/platform/micaZ/source/TUM_LKN_Sensorboard_driver.c **** *  GNU General Public License for more details.
  17:../../../src/drivers/platform/micaZ/source/TUM_LKN_Sensorboard_driver.c **** *
  18:../../../src/drivers/platform/micaZ/source/TUM_LKN_Sensorboard_driver.c **** *  You should have received a copy of the GNU General Public License
  19:../../../src/drivers/platform/micaZ/source/TUM_LKN_Sensorboard_driver.c **** *  along with this program.  If not, see <http://www.gnu.org/licenses/>.
  20:../../../src/drivers/platform/micaZ/source/TUM_LKN_Sensorboard_driver.c **** *
  21:../../../src/drivers/platform/micaZ/source/TUM_LKN_Sensorboard_driver.c **** *
  22:../../../src/drivers/platform/micaZ/source/TUM_LKN_Sensorboard_driver.c **** *  Contributing Authors (specific to this file):
  23:../../../src/drivers/platform/micaZ/source/TUM_LKN_Sensorboard_driver.c **** *  Peter Diener and others
  24:../../../src/drivers/platform/micaZ/source/TUM_LKN_Sensorboard_driver.c **** *
  25:../../../src/drivers/platform/micaZ/source/TUM_LKN_Sensorboard_driver.c **** ***************************************************************************************/
  26:../../../src/drivers/platform/micaZ/source/TUM_LKN_Sensorboard_driver.c **** //#include <I2C.h>
  27:../../../src/drivers/platform/micaZ/source/TUM_LKN_Sensorboard_driver.c **** #include <nrk.h>
  28:../../../src/drivers/platform/micaZ/source/TUM_LKN_Sensorboard_driver.c **** #include <include.h>
  29:../../../src/drivers/platform/micaZ/source/TUM_LKN_Sensorboard_driver.c **** #include <ulib.h>
  30:../../../src/drivers/platform/micaZ/source/TUM_LKN_Sensorboard_driver.c **** #include <stdio.h>
  31:../../../src/drivers/platform/micaZ/source/TUM_LKN_Sensorboard_driver.c **** #include <stdlib.h>
  32:../../../src/drivers/platform/micaZ/source/TUM_LKN_Sensorboard_driver.c **** #include <hal.h>
  33:../../../src/drivers/platform/micaZ/source/TUM_LKN_Sensorboard_driver.c **** 
  34:../../../src/drivers/platform/micaZ/source/TUM_LKN_Sensorboard_driver.c **** #include "TUM_LKN_Sensorboard_driver.h"
  35:../../../src/drivers/platform/micaZ/source/TUM_LKN_Sensorboard_driver.c **** 
  36:../../../src/drivers/platform/micaZ/source/TUM_LKN_Sensorboard_driver.c **** 
  37:../../../src/drivers/platform/micaZ/source/TUM_LKN_Sensorboard_driver.c **** // Anmerkung: Diesen Treiber sollte man mal komplett neu schreiben.
  38:../../../src/drivers/platform/micaZ/source/TUM_LKN_Sensorboard_driver.c **** 
  39:../../../src/drivers/platform/micaZ/source/TUM_LKN_Sensorboard_driver.c **** 
  40:../../../src/drivers/platform/micaZ/source/TUM_LKN_Sensorboard_driver.c **** 
  41:../../../src/drivers/platform/micaZ/source/TUM_LKN_Sensorboard_driver.c **** // Hardware addresses
  42:../../../src/drivers/platform/micaZ/source/TUM_LKN_Sensorboard_driver.c **** enum
  43:../../../src/drivers/platform/micaZ/source/TUM_LKN_Sensorboard_driver.c **** {
  44:../../../src/drivers/platform/micaZ/source/TUM_LKN_Sensorboard_driver.c **** 	PCF8574 = 0x40,   		// digital IO PCF8574/external addr switch = 0
  45:../../../src/drivers/platform/micaZ/source/TUM_LKN_Sensorboard_driver.c **** 	PCF8591 = 0x90,       	// ADC PCF8591/external addr switch = 0
  46:../../../src/drivers/platform/micaZ/source/TUM_LKN_Sensorboard_driver.c **** 	PCA9533 = 0xC6   			// pwm led controller PCA9533
  47:../../../src/drivers/platform/micaZ/source/TUM_LKN_Sensorboard_driver.c **** };
  48:../../../src/drivers/platform/micaZ/source/TUM_LKN_Sensorboard_driver.c **** 
  49:../../../src/drivers/platform/micaZ/source/TUM_LKN_Sensorboard_driver.c **** 
  50:../../../src/drivers/platform/micaZ/source/TUM_LKN_Sensorboard_driver.c **** 
  51:../../../src/drivers/platform/micaZ/source/TUM_LKN_Sensorboard_driver.c **** // Register entries defining the state of the AD/DA converter
  52:../../../src/drivers/platform/micaZ/source/TUM_LKN_Sensorboard_driver.c **** enum
  53:../../../src/drivers/platform/micaZ/source/TUM_LKN_Sensorboard_driver.c **** {
  54:../../../src/drivers/platform/micaZ/source/TUM_LKN_Sensorboard_driver.c **** 	REG_ADC_CHAN0					= 0x00,			// channel 0
  55:../../../src/drivers/platform/micaZ/source/TUM_LKN_Sensorboard_driver.c **** 	REG_ADC_CHAN1					= 0x01,			// channel 1
  56:../../../src/drivers/platform/micaZ/source/TUM_LKN_Sensorboard_driver.c **** 	REG_ADC_CHAN2					= 0x02,			// channel 2
  57:../../../src/drivers/platform/micaZ/source/TUM_LKN_Sensorboard_driver.c **** 	REG_ADC_CHAN3					= 0x03,			// channel 3
  58:../../../src/drivers/platform/micaZ/source/TUM_LKN_Sensorboard_driver.c **** 	REG_ADC_AUTOINCREMENT		= 0x04,			// auto-increment, sequentially read/write multiple registers
  59:../../../src/drivers/platform/micaZ/source/TUM_LKN_Sensorboard_driver.c **** 	REG_ADC_FOURSE					= 0x00,			// four single-ended inputs
  60:../../../src/drivers/platform/micaZ/source/TUM_LKN_Sensorboard_driver.c **** 	REG_ADC_3DIFF					= 0x10,			// three differential inputs
  61:../../../src/drivers/platform/micaZ/source/TUM_LKN_Sensorboard_driver.c **** 	REG_ADC_SEDIFFMIX				= 0x20,			// single-ended and differential mixed
  62:../../../src/drivers/platform/micaZ/source/TUM_LKN_Sensorboard_driver.c **** 	REG_ADC_2DIFF					= 0x30,			// two differential inputs
  63:../../../src/drivers/platform/micaZ/source/TUM_LKN_Sensorboard_driver.c **** 	REG_ADC_AOUTENABLE			= 0x40			// analogue output enable flag
  64:../../../src/drivers/platform/micaZ/source/TUM_LKN_Sensorboard_driver.c **** };
  65:../../../src/drivers/platform/micaZ/source/TUM_LKN_Sensorboard_driver.c **** 
  66:../../../src/drivers/platform/micaZ/source/TUM_LKN_Sensorboard_driver.c **** 
  67:../../../src/drivers/platform/micaZ/source/TUM_LKN_Sensorboard_driver.c **** 
  68:../../../src/drivers/platform/micaZ/source/TUM_LKN_Sensorboard_driver.c **** // Control registers of the PWM LED controller
  69:../../../src/drivers/platform/micaZ/source/TUM_LKN_Sensorboard_driver.c **** enum
  70:../../../src/drivers/platform/micaZ/source/TUM_LKN_Sensorboard_driver.c **** {
  71:../../../src/drivers/platform/micaZ/source/TUM_LKN_Sensorboard_driver.c **** 	REG_LED_INPUT 					= 0x00,   		// r   Input register (writes are acknowledged but without effect)
  72:../../../src/drivers/platform/micaZ/source/TUM_LKN_Sensorboard_driver.c **** 	REG_LED_PSC0  					= 0x01,   		// r/w Frequency prescaler 0
  73:../../../src/drivers/platform/micaZ/source/TUM_LKN_Sensorboard_driver.c **** 	REG_LED_PWM0  					= 0x02,   		// r/w PWM register 0
  74:../../../src/drivers/platform/micaZ/source/TUM_LKN_Sensorboard_driver.c **** 	REG_LED_PSC1  					= 0x03,   		// r/w Frequency prescaler 1
  75:../../../src/drivers/platform/micaZ/source/TUM_LKN_Sensorboard_driver.c **** 	REG_LED_PWM1  					= 0x04,   		// r/w PWM register 1
  76:../../../src/drivers/platform/micaZ/source/TUM_LKN_Sensorboard_driver.c **** 	REG_LED_LS0   					= 0x05,    		// r/w LED selector
  77:../../../src/drivers/platform/micaZ/source/TUM_LKN_Sensorboard_driver.c **** 	REG_LED_AUTOINCREMENT		= 0x10
  78:../../../src/drivers/platform/micaZ/source/TUM_LKN_Sensorboard_driver.c **** };
  79:../../../src/drivers/platform/micaZ/source/TUM_LKN_Sensorboard_driver.c **** 
  80:../../../src/drivers/platform/micaZ/source/TUM_LKN_Sensorboard_driver.c **** 
  81:../../../src/drivers/platform/micaZ/source/TUM_LKN_Sensorboard_driver.c **** 
  82:../../../src/drivers/platform/micaZ/source/TUM_LKN_Sensorboard_driver.c **** // Register entries defining the state (on/off) of the LEDs
  83:../../../src/drivers/platform/micaZ/source/TUM_LKN_Sensorboard_driver.c **** enum
  84:../../../src/drivers/platform/micaZ/source/TUM_LKN_Sensorboard_driver.c **** {
  85:../../../src/drivers/platform/micaZ/source/TUM_LKN_Sensorboard_driver.c **** 	REG_LED_OFF        			= 0x00,
  86:../../../src/drivers/platform/micaZ/source/TUM_LKN_Sensorboard_driver.c **** 	REG_LED_ON         			= 0x01,
  87:../../../src/drivers/platform/micaZ/source/TUM_LKN_Sensorboard_driver.c **** 	REG_LED_BLINK_PWM0 			= 0x02,
  88:../../../src/drivers/platform/micaZ/source/TUM_LKN_Sensorboard_driver.c **** 	REG_LED_BLINK_PWM1 			= 0x03,
  89:../../../src/drivers/platform/micaZ/source/TUM_LKN_Sensorboard_driver.c **** };
  90:../../../src/drivers/platform/micaZ/source/TUM_LKN_Sensorboard_driver.c **** 
  91:../../../src/drivers/platform/micaZ/source/TUM_LKN_Sensorboard_driver.c **** 
  92:../../../src/drivers/platform/micaZ/source/TUM_LKN_Sensorboard_driver.c **** 
  93:../../../src/drivers/platform/micaZ/source/TUM_LKN_Sensorboard_driver.c **** 
  94:../../../src/drivers/platform/micaZ/source/TUM_LKN_Sensorboard_driver.c **** // Power timeout for the stepper motor. Given in milliseconds. Power is interrupted
  95:../../../src/drivers/platform/micaZ/source/TUM_LKN_Sensorboard_driver.c **** // after the stepper is idle for the given time.
  96:../../../src/drivers/platform/micaZ/source/TUM_LKN_Sensorboard_driver.c **** uint16_t steppertimeout = 100;
  97:../../../src/drivers/platform/micaZ/source/TUM_LKN_Sensorboard_driver.c **** 
  98:../../../src/drivers/platform/micaZ/source/TUM_LKN_Sensorboard_driver.c **** 
  99:../../../src/drivers/platform/micaZ/source/TUM_LKN_Sensorboard_driver.c **** // Bit pattern for controlling the stepper motor
 100:../../../src/drivers/platform/micaZ/source/TUM_LKN_Sensorboard_driver.c **** uint8_t steps[ 8 ] = { 0x50, 0x10, 0x90, 0x80, 0xA0, 0x20, 0x60, 0x40 };
 101:../../../src/drivers/platform/micaZ/source/TUM_LKN_Sensorboard_driver.c **** uint8_t m_currentstep = 0;
 102:../../../src/drivers/platform/micaZ/source/TUM_LKN_Sensorboard_driver.c **** 
 103:../../../src/drivers/platform/micaZ/source/TUM_LKN_Sensorboard_driver.c **** 
 104:../../../src/drivers/platform/micaZ/source/TUM_LKN_Sensorboard_driver.c **** // This will be sent on the I2C bus
 105:../../../src/drivers/platform/micaZ/source/TUM_LKN_Sensorboard_driver.c **** uint8_t i2cData[8] = { 0x00, 0x00, 0x00, 0x00, 0x00, 0x00, 0x00, 0x00 };
 106:../../../src/drivers/platform/micaZ/source/TUM_LKN_Sensorboard_driver.c **** uint8_t i2cDataLen;
 107:../../../src/drivers/platform/micaZ/source/TUM_LKN_Sensorboard_driver.c **** 
 108:../../../src/drivers/platform/micaZ/source/TUM_LKN_Sensorboard_driver.c **** 
 109:../../../src/drivers/platform/micaZ/source/TUM_LKN_Sensorboard_driver.c **** enum { i2cWrite, i2cRead } i2cDataDirection;
 110:../../../src/drivers/platform/micaZ/source/TUM_LKN_Sensorboard_driver.c **** 
 111:../../../src/drivers/platform/micaZ/source/TUM_LKN_Sensorboard_driver.c **** uint16_t i2cDestination;
 112:../../../src/drivers/platform/micaZ/source/TUM_LKN_Sensorboard_driver.c **** 
 113:../../../src/drivers/platform/micaZ/source/TUM_LKN_Sensorboard_driver.c **** // Bit pattern of last write access to the digital IO ports
 114:../../../src/drivers/platform/micaZ/source/TUM_LKN_Sensorboard_driver.c **** uint8_t m_lastxs = 0x00;
 115:../../../src/drivers/platform/micaZ/source/TUM_LKN_Sensorboard_driver.c **** 
 116:../../../src/drivers/platform/micaZ/source/TUM_LKN_Sensorboard_driver.c **** // Holds the values written to or read from the adc/dac
 117:../../../src/drivers/platform/micaZ/source/TUM_LKN_Sensorboard_driver.c **** double m_vbatt = 3.;
 118:../../../src/drivers/platform/micaZ/source/TUM_LKN_Sensorboard_driver.c **** uint8_t m_channel;
 119:../../../src/drivers/platform/micaZ/source/TUM_LKN_Sensorboard_driver.c **** 
 120:../../../src/drivers/platform/micaZ/source/TUM_LKN_Sensorboard_driver.c **** // These variables keep track of the LED states
 121:../../../src/drivers/platform/micaZ/source/TUM_LKN_Sensorboard_driver.c **** uint8_t m_ledstate = 0x00;
 122:../../../src/drivers/platform/micaZ/source/TUM_LKN_Sensorboard_driver.c **** uint8_t m_prescaler[ 2 ] = { 0x00, 0x00 };
 123:../../../src/drivers/platform/micaZ/source/TUM_LKN_Sensorboard_driver.c **** uint8_t m_pwm[ 2 ] = { 0xFF, 0xFF };
 124:../../../src/drivers/platform/micaZ/source/TUM_LKN_Sensorboard_driver.c **** 
 125:../../../src/drivers/platform/micaZ/source/TUM_LKN_Sensorboard_driver.c **** 
 126:../../../src/drivers/platform/micaZ/source/TUM_LKN_Sensorboard_driver.c **** 
 127:../../../src/drivers/platform/micaZ/source/TUM_LKN_Sensorboard_driver.c **** // ---- LOW LEVEL FUNCTIONS
 128:../../../src/drivers/platform/micaZ/source/TUM_LKN_Sensorboard_driver.c **** 
 129:../../../src/drivers/platform/micaZ/source/TUM_LKN_Sensorboard_driver.c **** 
 130:../../../src/drivers/platform/micaZ/source/TUM_LKN_Sensorboard_driver.c **** 
 131:../../../src/drivers/platform/micaZ/source/TUM_LKN_Sensorboard_driver.c **** //this is ok
 132:../../../src/drivers/platform/micaZ/source/TUM_LKN_Sensorboard_driver.c **** void writeIOs( uint8_t data )
 133:../../../src/drivers/platform/micaZ/source/TUM_LKN_Sensorboard_driver.c **** {
 134:../../../src/drivers/platform/micaZ/source/TUM_LKN_Sensorboard_driver.c **** 	i2cData[ 0 ] = m_lastxs = data;
 135:../../../src/drivers/platform/micaZ/source/TUM_LKN_Sensorboard_driver.c **** 	i2cDataLen = 1;
 136:../../../src/drivers/platform/micaZ/source/TUM_LKN_Sensorboard_driver.c **** 	i2cDataDirection = i2cWrite;
 137:../../../src/drivers/platform/micaZ/source/TUM_LKN_Sensorboard_driver.c **** 	i2cDestination = PCF8574;
 138:../../../src/drivers/platform/micaZ/source/TUM_LKN_Sensorboard_driver.c **** 
 139:../../../src/drivers/platform/micaZ/source/TUM_LKN_Sensorboard_driver.c **** 	i2cAction();
 140:../../../src/drivers/platform/micaZ/source/TUM_LKN_Sensorboard_driver.c **** }
 141:../../../src/drivers/platform/micaZ/source/TUM_LKN_Sensorboard_driver.c **** 
 142:../../../src/drivers/platform/micaZ/source/TUM_LKN_Sensorboard_driver.c **** 
 143:../../../src/drivers/platform/micaZ/source/TUM_LKN_Sensorboard_driver.c **** 
 144:../../../src/drivers/platform/micaZ/source/TUM_LKN_Sensorboard_driver.c **** void readIOs()
 145:../../../src/drivers/platform/micaZ/source/TUM_LKN_Sensorboard_driver.c **** {
 146:../../../src/drivers/platform/micaZ/source/TUM_LKN_Sensorboard_driver.c **** 	i2cDataDirection = i2cRead;
 147:../../../src/drivers/platform/micaZ/source/TUM_LKN_Sensorboard_driver.c **** 	i2cDataLen = 1;
 148:../../../src/drivers/platform/micaZ/source/TUM_LKN_Sensorboard_driver.c **** 	i2cDestination = PCF8574;
 149:../../../src/drivers/platform/micaZ/source/TUM_LKN_Sensorboard_driver.c **** 
 150:../../../src/drivers/platform/micaZ/source/TUM_LKN_Sensorboard_driver.c **** 	i2cAction();
 151:../../../src/drivers/platform/micaZ/source/TUM_LKN_Sensorboard_driver.c **** }
 152:../../../src/drivers/platform/micaZ/source/TUM_LKN_Sensorboard_driver.c **** 
 153:../../../src/drivers/platform/micaZ/source/TUM_LKN_Sensorboard_driver.c **** 
 154:../../../src/drivers/platform/micaZ/source/TUM_LKN_Sensorboard_driver.c **** 
 155:../../../src/drivers/platform/micaZ/source/TUM_LKN_Sensorboard_driver.c **** void writeDAC( uint8_t value )
 156:../../../src/drivers/platform/micaZ/source/TUM_LKN_Sensorboard_driver.c **** {
 157:../../../src/drivers/platform/micaZ/source/TUM_LKN_Sensorboard_driver.c **** 	i2cDataDirection = i2cWrite;		// write to the i2c bus
 158:../../../src/drivers/platform/micaZ/source/TUM_LKN_Sensorboard_driver.c **** 	i2cDataLen = 2;
 159:../../../src/drivers/platform/micaZ/source/TUM_LKN_Sensorboard_driver.c **** 	i2cData[ 0 ] = REG_ADC_FOURSE | REG_ADC_AOUTENABLE;
 160:../../../src/drivers/platform/micaZ/source/TUM_LKN_Sensorboard_driver.c **** 	i2cData[ 1 ] = value;
 161:../../../src/drivers/platform/micaZ/source/TUM_LKN_Sensorboard_driver.c **** 	i2cDestination = PCF8591;
 162:../../../src/drivers/platform/micaZ/source/TUM_LKN_Sensorboard_driver.c **** 
 163:../../../src/drivers/platform/micaZ/source/TUM_LKN_Sensorboard_driver.c **** 	i2cAction();
 164:../../../src/drivers/platform/micaZ/source/TUM_LKN_Sensorboard_driver.c **** }
 165:../../../src/drivers/platform/micaZ/source/TUM_LKN_Sensorboard_driver.c **** 
 166:../../../src/drivers/platform/micaZ/source/TUM_LKN_Sensorboard_driver.c **** 
 167:../../../src/drivers/platform/micaZ/source/TUM_LKN_Sensorboard_driver.c **** 
 168:../../../src/drivers/platform/micaZ/source/TUM_LKN_Sensorboard_driver.c **** void readADC( uint8_t channel )
 169:../../../src/drivers/platform/micaZ/source/TUM_LKN_Sensorboard_driver.c **** {
 170:../../../src/drivers/platform/micaZ/source/TUM_LKN_Sensorboard_driver.c **** 	//set the correct channel first
 171:../../../src/drivers/platform/micaZ/source/TUM_LKN_Sensorboard_driver.c **** 	channel &= 0x03;
 172:../../../src/drivers/platform/micaZ/source/TUM_LKN_Sensorboard_driver.c **** 	m_channel = channel;
 173:../../../src/drivers/platform/micaZ/source/TUM_LKN_Sensorboard_driver.c **** 	i2cDataDirection = i2cWrite;		// write to the i2c bus
 174:../../../src/drivers/platform/micaZ/source/TUM_LKN_Sensorboard_driver.c **** 	i2cDataLen = 1;
 175:../../../src/drivers/platform/micaZ/source/TUM_LKN_Sensorboard_driver.c **** 	i2cData[ 0 ] = REG_ADC_FOURSE | REG_ADC_AOUTENABLE | channel;
 176:../../../src/drivers/platform/micaZ/source/TUM_LKN_Sensorboard_driver.c **** 	i2cDestination = PCF8591;
 177:../../../src/drivers/platform/micaZ/source/TUM_LKN_Sensorboard_driver.c **** 
 178:../../../src/drivers/platform/micaZ/source/TUM_LKN_Sensorboard_driver.c **** 	i2cAction();
 179:../../../src/drivers/platform/micaZ/source/TUM_LKN_Sensorboard_driver.c **** 
 180:../../../src/drivers/platform/micaZ/source/TUM_LKN_Sensorboard_driver.c **** 	//and now read the analog input
 181:../../../src/drivers/platform/micaZ/source/TUM_LKN_Sensorboard_driver.c **** 	i2cDataDirection = i2cRead;	// read from the i2c bus
 182:../../../src/drivers/platform/micaZ/source/TUM_LKN_Sensorboard_driver.c **** 	i2cDataLen = 2;
 183:../../../src/drivers/platform/micaZ/source/TUM_LKN_Sensorboard_driver.c **** 	i2cDestination = PCF8591;
 184:../../../src/drivers/platform/micaZ/source/TUM_LKN_Sensorboard_driver.c **** 
 185:../../../src/drivers/platform/micaZ/source/TUM_LKN_Sensorboard_driver.c **** 	i2cAction();
 186:../../../src/drivers/platform/micaZ/source/TUM_LKN_Sensorboard_driver.c **** }
 187:../../../src/drivers/platform/micaZ/source/TUM_LKN_Sensorboard_driver.c **** 
 188:../../../src/drivers/platform/micaZ/source/TUM_LKN_Sensorboard_driver.c **** 
 189:../../../src/drivers/platform/micaZ/source/TUM_LKN_Sensorboard_driver.c **** 
 190:../../../src/drivers/platform/micaZ/source/TUM_LKN_Sensorboard_driver.c **** // Apply current values of m_led0... m_led3
 191:../../../src/drivers/platform/micaZ/source/TUM_LKN_Sensorboard_driver.c **** void setLeds()
 192:../../../src/drivers/platform/micaZ/source/TUM_LKN_Sensorboard_driver.c **** {
 193:../../../src/drivers/platform/micaZ/source/TUM_LKN_Sensorboard_driver.c **** 	// This is setting both prescalers and both PWMs
 194:../../../src/drivers/platform/micaZ/source/TUM_LKN_Sensorboard_driver.c **** 	i2cDataLen = 6;
 195:../../../src/drivers/platform/micaZ/source/TUM_LKN_Sensorboard_driver.c **** 	i2cData[0] = REG_LED_PSC0 | REG_LED_AUTOINCREMENT;
 196:../../../src/drivers/platform/micaZ/source/TUM_LKN_Sensorboard_driver.c **** 	i2cData[1] = m_prescaler[ 0 ];
 197:../../../src/drivers/platform/micaZ/source/TUM_LKN_Sensorboard_driver.c **** 	i2cData[2] = m_pwm[ 0 ];
 198:../../../src/drivers/platform/micaZ/source/TUM_LKN_Sensorboard_driver.c **** 	i2cData[3] = m_prescaler[ 1 ];
 199:../../../src/drivers/platform/micaZ/source/TUM_LKN_Sensorboard_driver.c **** 	i2cData[4] = m_pwm[ 1 ];
 200:../../../src/drivers/platform/micaZ/source/TUM_LKN_Sensorboard_driver.c **** 	i2cData[5] = m_ledstate;
 201:../../../src/drivers/platform/micaZ/source/TUM_LKN_Sensorboard_driver.c **** 	i2cDataDirection = i2cWrite;
 202:../../../src/drivers/platform/micaZ/source/TUM_LKN_Sensorboard_driver.c **** 	i2cDestination = PCA9533;
 203:../../../src/drivers/platform/micaZ/source/TUM_LKN_Sensorboard_driver.c **** 
 204:../../../src/drivers/platform/micaZ/source/TUM_LKN_Sensorboard_driver.c **** 	i2cAction();
 205:../../../src/drivers/platform/micaZ/source/TUM_LKN_Sensorboard_driver.c **** }
 206:../../../src/drivers/platform/micaZ/source/TUM_LKN_Sensorboard_driver.c **** 
 207:../../../src/drivers/platform/micaZ/source/TUM_LKN_Sensorboard_driver.c **** 
 208:../../../src/drivers/platform/micaZ/source/TUM_LKN_Sensorboard_driver.c **** 
 209:../../../src/drivers/platform/micaZ/source/TUM_LKN_Sensorboard_driver.c **** void setLedMode( uint8_t led, uint8_t mode )
 210:../../../src/drivers/platform/micaZ/source/TUM_LKN_Sensorboard_driver.c **** {
 152               	.LM0:
 153               	.LFBB1:
 154               	/* prologue: function */
 155               	/* frame size = 0 */
 211:../../../src/drivers/platform/micaZ/source/TUM_LKN_Sensorboard_driver.c **** 	led = (led & 0x03) << 1;						// every LED has two bits and there are 4 LEDs
 157               	.LM1:
 158 0000 8370      		andi r24,lo8(3)
 212:../../../src/drivers/platform/micaZ/source/TUM_LKN_Sensorboard_driver.c **** 	m_ledstate &= ~(0x03 << led);					// reset affected bits
 160               	.LM2:
 161 0002 880F      		lsl r24
 162 0004 23E0      		ldi r18,lo8(3)
 163 0006 30E0      		ldi r19,hi8(3)
 164 0008 082E      		mov r0,r24
 165 000a 00C0      		rjmp 2f
 166 000c 220F      	1:	lsl r18
 167 000e 0A94      	2:	dec r0
 168 0010 02F4      		brpl 1b
 213:../../../src/drivers/platform/micaZ/source/TUM_LKN_Sensorboard_driver.c **** 	m_ledstate |= (mode << led) & (0x03 << led);		// and write the new value
 170               	.LM3:
 171 0012 922F      		mov r25,r18
 172 0014 9095      		com r25
 173 0016 4091 0000 		lds r20,m_ledstate
 174 001a 9423      		and r25,r20
 175 001c 00C0      		rjmp 2f
 176 001e 660F      	1:	lsl r22
 177 0020 8A95      	2:	dec r24
 178 0022 02F4      		brpl 1b
 179 0024 2623      		and r18,r22
 180 0026 922B      		or r25,r18
 181 0028 9093 0000 		sts m_ledstate,r25
 182               	/* epilogue start */
 214:../../../src/drivers/platform/micaZ/source/TUM_LKN_Sensorboard_driver.c **** }
 184               	.LM4:
 185 002c 0895      		ret
 187               	.Lscope1:
 189               		.stabd	78,0,0
 192               	.global	getLedMode
 194               	getLedMode:
 195               		.stabd	46,0,0
 215:../../../src/drivers/platform/micaZ/source/TUM_LKN_Sensorboard_driver.c **** 
 216:../../../src/drivers/platform/micaZ/source/TUM_LKN_Sensorboard_driver.c **** 
 217:../../../src/drivers/platform/micaZ/source/TUM_LKN_Sensorboard_driver.c **** 
 218:../../../src/drivers/platform/micaZ/source/TUM_LKN_Sensorboard_driver.c **** uint8_t getLedMode( uint8_t led )
 219:../../../src/drivers/platform/micaZ/source/TUM_LKN_Sensorboard_driver.c **** {
 197               	.LM5:
 198               	.LFBB2:
 199               	/* prologue: function */
 200               	/* frame size = 0 */
 220:../../../src/drivers/platform/micaZ/source/TUM_LKN_Sensorboard_driver.c **** 	led = (led & 0x03) << 1;						// ...
 202               	.LM6:
 203 002e 8370      		andi r24,lo8(3)
 221:../../../src/drivers/platform/micaZ/source/TUM_LKN_Sensorboard_driver.c **** 	return( (m_ledstate & (0x03 << led)) >> led );	// return the bits corresponding to the LED
 205               	.LM7:
 206 0030 880F      		lsl r24
 207 0032 23E0      		ldi r18,lo8(3)
 208 0034 30E0      		ldi r19,hi8(3)
 209 0036 082E      		mov r0,r24
 210 0038 00C0      		rjmp 2f
 211 003a 220F      	1:	lsl r18
 212 003c 331F      		rol r19
 213 003e 0A94      	2:	dec r0
 214 0040 02F4      		brpl 1b
 215 0042 4091 0000 		lds r20,m_ledstate
 216 0046 50E0      		ldi r21,lo8(0)
 217 0048 2423      		and r18,r20
 218 004a 3523      		and r19,r21
 219 004c 00C0      		rjmp 2f
 220 004e 3595      	1:	asr r19
 221 0050 2795      		ror r18
 222 0052 8A95      	2:	dec r24
 223 0054 02F4      		brpl 1b
 222:../../../src/drivers/platform/micaZ/source/TUM_LKN_Sensorboard_driver.c **** }
 225               	.LM8:
 226 0056 822F      		mov r24,r18
 227               	/* epilogue start */
 228 0058 0895      		ret
 230               	.Lscope2:
 232               		.stabd	78,0,0
 235               	.global	S2V
 237               	S2V:
 238               		.stabd	46,0,0
 223:../../../src/drivers/platform/micaZ/source/TUM_LKN_Sensorboard_driver.c **** 
 224:../../../src/drivers/platform/micaZ/source/TUM_LKN_Sensorboard_driver.c **** 
 225:../../../src/drivers/platform/micaZ/source/TUM_LKN_Sensorboard_driver.c **** // Conversion functions
 226:../../../src/drivers/platform/micaZ/source/TUM_LKN_Sensorboard_driver.c **** 
 227:../../../src/drivers/platform/micaZ/source/TUM_LKN_Sensorboard_driver.c **** double S2V( uint8_t s ) { return (m_vbatt * ((double)s)) / 256.; }
 240               	.LM9:
 241               	.LFBB3:
 242               	/* prologue: function */
 243               	/* frame size = 0 */
 245               	.LM10:
 246 005a 90E0      		ldi r25,lo8(0)
 247 005c A0E0      		ldi r26,lo8(0)
 248 005e B0E0      		ldi r27,hi8(0)
 249 0060 BC01      		movw r22,r24
 250 0062 CD01      		movw r24,r26
 251 0064 0E94 0000 		call __floatunsisf
 252 0068 2091 0000 		lds r18,m_vbatt
 253 006c 3091 0000 		lds r19,(m_vbatt)+1
 254 0070 4091 0000 		lds r20,(m_vbatt)+2
 255 0074 5091 0000 		lds r21,(m_vbatt)+3
 256 0078 0E94 0000 		call __mulsf3
 257 007c 20E0      		ldi r18,lo8(0x3b800000)
 258 007e 30E0      		ldi r19,hi8(0x3b800000)
 259 0080 40E8      		ldi r20,hlo8(0x3b800000)
 260 0082 5BE3      		ldi r21,hhi8(0x3b800000)
 261 0084 0E94 0000 		call __mulsf3
 262               	/* epilogue start */
 263 0088 0895      		ret
 265               	.Lscope3:
 267               		.stabd	78,0,0
 270               	.global	V2S
 272               	V2S:
 273               		.stabd	46,0,0
 228:../../../src/drivers/platform/micaZ/source/TUM_LKN_Sensorboard_driver.c **** uint8_t V2S( double v ) { return (uint8_t) ( (v * 256.) / m_vbatt ); }
 275               	.LM11:
 276               	.LFBB4:
 277               	/* prologue: function */
 278               	/* frame size = 0 */
 280               	.LM12:
 281 008a 20E0      		ldi r18,lo8(0x43800000)
 282 008c 30E0      		ldi r19,hi8(0x43800000)
 283 008e 40E8      		ldi r20,hlo8(0x43800000)
 284 0090 53E4      		ldi r21,hhi8(0x43800000)
 285 0092 0E94 0000 		call __mulsf3
 286 0096 2091 0000 		lds r18,m_vbatt
 287 009a 3091 0000 		lds r19,(m_vbatt)+1
 288 009e 4091 0000 		lds r20,(m_vbatt)+2
 289 00a2 5091 0000 		lds r21,(m_vbatt)+3
 290 00a6 0E94 0000 		call __divsf3
 291 00aa 0E94 0000 		call __fixunssfsi
 292 00ae DC01      		movw r26,r24
 293 00b0 CB01      		movw r24,r22
 294               	/* epilogue start */
 295 00b2 0895      		ret
 297               	.Lscope4:
 299               		.stabd	78,0,0
 304               	.global	setBits
 306               	setBits:
 307               		.stabd	46,0,0
 229:../../../src/drivers/platform/micaZ/source/TUM_LKN_Sensorboard_driver.c **** 
 230:../../../src/drivers/platform/micaZ/source/TUM_LKN_Sensorboard_driver.c **** uint8_t setBits( uint8_t data, uint8_t mask, uint8_t bits ) { return( ( data & mask ) | bits ); }
 309               	.LM13:
 310               	.LFBB5:
 311               	/* prologue: function */
 312               	/* frame size = 0 */
 314               	.LM14:
 315 00b4 6823      		and r22,r24
 316 00b6 842F      		mov r24,r20
 317 00b8 862B      		or r24,r22
 318               	/* epilogue start */
 319 00ba 0895      		ret
 321               	.Lscope5:
 323               		.stabd	78,0,0
 326               	.global	prescalerSec2Hex
 328               	prescalerSec2Hex:
 329               		.stabd	46,0,0
 231:../../../src/drivers/platform/micaZ/source/TUM_LKN_Sensorboard_driver.c **** 
 232:../../../src/drivers/platform/micaZ/source/TUM_LKN_Sensorboard_driver.c **** 
 233:../../../src/drivers/platform/micaZ/source/TUM_LKN_Sensorboard_driver.c **** 
 234:../../../src/drivers/platform/micaZ/source/TUM_LKN_Sensorboard_driver.c **** // For a given time period (s), compute the value for the prescaler register
 235:../../../src/drivers/platform/micaZ/source/TUM_LKN_Sensorboard_driver.c **** uint8_t prescalerSec2Hex(double t)
 236:../../../src/drivers/platform/micaZ/source/TUM_LKN_Sensorboard_driver.c **** {
 331               	.LM15:
 332               	.LFBB6:
 333 00bc EF92      		push r14
 334 00be FF92      		push r15
 335 00c0 0F93      		push r16
 336 00c2 1F93      		push r17
 337               	/* prologue: function */
 338               	/* frame size = 0 */
 339 00c4 7B01      		movw r14,r22
 340 00c6 8C01      		movw r16,r24
 237:../../../src/drivers/platform/micaZ/source/TUM_LKN_Sensorboard_driver.c **** 	if (t > 255.0 * 152.0)   // 38760 sec = 10h46'00''
 342               	.LM16:
 343 00c8 20E0      		ldi r18,lo8(0x47176800)
 344 00ca 38E6      		ldi r19,hi8(0x47176800)
 345 00cc 47E1      		ldi r20,hlo8(0x47176800)
 346 00ce 57E4      		ldi r21,hhi8(0x47176800)
 347 00d0 0E94 0000 		call __gtsf2
 348 00d4 1816      		cp __zero_reg__,r24
 349 00d6 04F4      		brge .L18
 350 00d8 8FEF      		ldi r24,lo8(-1)
 351 00da 00C0      		rjmp .L14
 352               	.L18:
 238:../../../src/drivers/platform/micaZ/source/TUM_LKN_Sensorboard_driver.c **** 		return( 0xFF );
 239:../../../src/drivers/platform/micaZ/source/TUM_LKN_Sensorboard_driver.c **** 	else if (t >= 1./152.0)
 354               	.LM17:
 355 00dc C801      		movw r24,r16
 356 00de B701      		movw r22,r14
 357 00e0 26E3      		ldi r18,lo8(0x3bd79436)
 358 00e2 34E9      		ldi r19,hi8(0x3bd79436)
 359 00e4 47ED      		ldi r20,hlo8(0x3bd79436)
 360 00e6 5BE3      		ldi r21,hhi8(0x3bd79436)
 361 00e8 0E94 0000 		call __gesf2
 362 00ec 87FF      		sbrs r24,7
 363 00ee 00C0      		rjmp .L15
 364 00f0 80E0      		ldi r24,lo8(0)
 365 00f2 00C0      		rjmp .L14
 366               	.L15:
 240:../../../src/drivers/platform/micaZ/source/TUM_LKN_Sensorboard_driver.c **** 		return( (uint8_t) (t * 152 - 1) );
 368               	.LM18:
 369 00f4 C801      		movw r24,r16
 370 00f6 B701      		movw r22,r14
 371 00f8 20E0      		ldi r18,lo8(0x43180000)
 372 00fa 30E0      		ldi r19,hi8(0x43180000)
 373 00fc 48E1      		ldi r20,hlo8(0x43180000)
 374 00fe 53E4      		ldi r21,hhi8(0x43180000)
 375 0100 0E94 0000 		call __mulsf3
 376 0104 20E0      		ldi r18,lo8(0x3f800000)
 377 0106 30E0      		ldi r19,hi8(0x3f800000)
 378 0108 40E8      		ldi r20,hlo8(0x3f800000)
 379 010a 5FE3      		ldi r21,hhi8(0x3f800000)
 380 010c 0E94 0000 		call __subsf3
 381 0110 0E94 0000 		call __fixunssfsi
 382 0114 862F      		mov r24,r22
 383               	.L14:
 384               	/* epilogue start */
 241:../../../src/drivers/platform/micaZ/source/TUM_LKN_Sensorboard_driver.c **** 	else
 242:../../../src/drivers/platform/micaZ/source/TUM_LKN_Sensorboard_driver.c **** 		return( 0x00 );
 243:../../../src/drivers/platform/micaZ/source/TUM_LKN_Sensorboard_driver.c **** }
 386               	.LM19:
 387 0116 1F91      		pop r17
 388 0118 0F91      		pop r16
 389 011a FF90      		pop r15
 390 011c EF90      		pop r14
 391 011e 0895      		ret
 393               	.Lscope6:
 395               		.stabd	78,0,0
 398               	.global	pwmFrac2Hex
 400               	pwmFrac2Hex:
 401               		.stabd	46,0,0
 244:../../../src/drivers/platform/micaZ/source/TUM_LKN_Sensorboard_driver.c **** 
 245:../../../src/drivers/platform/micaZ/source/TUM_LKN_Sensorboard_driver.c **** 
 246:../../../src/drivers/platform/micaZ/source/TUM_LKN_Sensorboard_driver.c **** 
 247:../../../src/drivers/platform/micaZ/source/TUM_LKN_Sensorboard_driver.c **** // For a given fraction ([0; 1]), compute the value for the PWM register
 248:../../../src/drivers/platform/micaZ/source/TUM_LKN_Sensorboard_driver.c **** uint8_t pwmFrac2Hex(double fraction)
 249:../../../src/drivers/platform/micaZ/source/TUM_LKN_Sensorboard_driver.c **** {
 403               	.LM20:
 404               	.LFBB7:
 405 0120 EF92      		push r14
 406 0122 FF92      		push r15
 407 0124 0F93      		push r16
 408 0126 1F93      		push r17
 409               	/* prologue: function */
 410               	/* frame size = 0 */
 411 0128 7B01      		movw r14,r22
 412 012a 8C01      		movw r16,r24
 250:../../../src/drivers/platform/micaZ/source/TUM_LKN_Sensorboard_driver.c **** 	if (fraction >= 1.0)
 414               	.LM21:
 415 012c 20E0      		ldi r18,lo8(0x3f800000)
 416 012e 30E0      		ldi r19,hi8(0x3f800000)
 417 0130 40E8      		ldi r20,hlo8(0x3f800000)
 418 0132 5FE3      		ldi r21,hhi8(0x3f800000)
 419 0134 0E94 0000 		call __gesf2
 420 0138 8823      		tst r24
 421 013a 04F0      		brlt .L26
 422 013c 8FEF      		ldi r24,lo8(-1)
 423 013e 00C0      		rjmp .L22
 424               	.L26:
 251:../../../src/drivers/platform/micaZ/source/TUM_LKN_Sensorboard_driver.c **** 		return( 0xFF );
 252:../../../src/drivers/platform/micaZ/source/TUM_LKN_Sensorboard_driver.c **** 	else if (fraction >= 1.0/256.0)
 426               	.LM22:
 427 0140 C801      		movw r24,r16
 428 0142 B701      		movw r22,r14
 429 0144 20E0      		ldi r18,lo8(0x3b800000)
 430 0146 30E0      		ldi r19,hi8(0x3b800000)
 431 0148 40E8      		ldi r20,hlo8(0x3b800000)
 432 014a 5BE3      		ldi r21,hhi8(0x3b800000)
 433 014c 0E94 0000 		call __gesf2
 434 0150 87FF      		sbrs r24,7
 435 0152 00C0      		rjmp .L23
 436 0154 80E0      		ldi r24,lo8(0)
 437 0156 00C0      		rjmp .L22
 438               	.L23:
 253:../../../src/drivers/platform/micaZ/source/TUM_LKN_Sensorboard_driver.c **** 		return( (uint8_t) (fraction * 256) );
 440               	.LM23:
 441 0158 C801      		movw r24,r16
 442 015a B701      		movw r22,r14
 443 015c 20E0      		ldi r18,lo8(0x43800000)
 444 015e 30E0      		ldi r19,hi8(0x43800000)
 445 0160 40E8      		ldi r20,hlo8(0x43800000)
 446 0162 53E4      		ldi r21,hhi8(0x43800000)
 447 0164 0E94 0000 		call __mulsf3
 448 0168 0E94 0000 		call __fixunssfsi
 449 016c 862F      		mov r24,r22
 450               	.L22:
 451               	/* epilogue start */
 254:../../../src/drivers/platform/micaZ/source/TUM_LKN_Sensorboard_driver.c **** 	else
 255:../../../src/drivers/platform/micaZ/source/TUM_LKN_Sensorboard_driver.c **** 		return( 0x00 );
 256:../../../src/drivers/platform/micaZ/source/TUM_LKN_Sensorboard_driver.c **** }
 453               	.LM24:
 454 016e 1F91      		pop r17
 455 0170 0F91      		pop r16
 456 0172 FF90      		pop r15
 457 0174 EF90      		pop r14
 458 0176 0895      		ret
 460               	.Lscope7:
 462               		.stabd	78,0,0
 464               	.global	TUM_LKN_Sensorboard_getCurrentStep
 466               	TUM_LKN_Sensorboard_getCurrentStep:
 467               		.stabd	46,0,0
 257:../../../src/drivers/platform/micaZ/source/TUM_LKN_Sensorboard_driver.c **** 
 258:../../../src/drivers/platform/micaZ/source/TUM_LKN_Sensorboard_driver.c **** 
 259:../../../src/drivers/platform/micaZ/source/TUM_LKN_Sensorboard_driver.c **** 
 260:../../../src/drivers/platform/micaZ/source/TUM_LKN_Sensorboard_driver.c **** // Convenience functions
 261:../../../src/drivers/platform/micaZ/source/TUM_LKN_Sensorboard_driver.c **** void TUM_LKN_Sensorboard_init() 									{ writeIOs( 0xFF ); writeDAC( 0x00 ); }
 262:../../../src/drivers/platform/micaZ/source/TUM_LKN_Sensorboard_driver.c **** //TUM_LKN_Sensorboard_readIOs() 								{ readIOs(); }
 263:../../../src/drivers/platform/micaZ/source/TUM_LKN_Sensorboard_driver.c **** void TUM_LKN_Sensorboard_writeIOs( uint8_t data ) 			{ writeIOs( data ); }
 264:../../../src/drivers/platform/micaZ/source/TUM_LKN_Sensorboard_driver.c **** void TUM_LKN_Sensorboard_writeIO( uint8_t io, bool set ) { writeIOs( setBits( m_lastxs, ~(0x01 << i
 265:../../../src/drivers/platform/micaZ/source/TUM_LKN_Sensorboard_driver.c **** void TUM_LKN_Sensorboard_setBeeper( bool set ) 				{ writeIOs( setBits( m_lastxs, 0xF7, (set == FAL
 266:../../../src/drivers/platform/micaZ/source/TUM_LKN_Sensorboard_driver.c **** 
 267:../../../src/drivers/platform/micaZ/source/TUM_LKN_Sensorboard_driver.c **** 
 268:../../../src/drivers/platform/micaZ/source/TUM_LKN_Sensorboard_driver.c **** void TUM_LKN_Sensorboard_StepperIdle()
 269:../../../src/drivers/platform/micaZ/source/TUM_LKN_Sensorboard_driver.c **** {
 270:../../../src/drivers/platform/micaZ/source/TUM_LKN_Sensorboard_driver.c ****     writeIOs( setBits( m_lastxs, 0x0F, 0xF0 ) );
 271:../../../src/drivers/platform/micaZ/source/TUM_LKN_Sensorboard_driver.c **** }
 272:../../../src/drivers/platform/micaZ/source/TUM_LKN_Sensorboard_driver.c **** 
 273:../../../src/drivers/platform/micaZ/source/TUM_LKN_Sensorboard_driver.c **** void TUM_LKN_Sensorboard_stepCCW()
 274:../../../src/drivers/platform/micaZ/source/TUM_LKN_Sensorboard_driver.c **** {
 275:../../../src/drivers/platform/micaZ/source/TUM_LKN_Sensorboard_driver.c **** 	writeIOs( setBits( m_lastxs, 0x0F, steps[ m_currentstep ] ) );
 276:../../../src/drivers/platform/micaZ/source/TUM_LKN_Sensorboard_driver.c **** 	m_currentstep = (m_currentstep + 2) & 0x06;
 277:../../../src/drivers/platform/micaZ/source/TUM_LKN_Sensorboard_driver.c **** }
 278:../../../src/drivers/platform/micaZ/source/TUM_LKN_Sensorboard_driver.c **** 
 279:../../../src/drivers/platform/micaZ/source/TUM_LKN_Sensorboard_driver.c **** 
 280:../../../src/drivers/platform/micaZ/source/TUM_LKN_Sensorboard_driver.c **** 
 281:../../../src/drivers/platform/micaZ/source/TUM_LKN_Sensorboard_driver.c **** void TUM_LKN_Sensorboard_stepCW()
 282:../../../src/drivers/platform/micaZ/source/TUM_LKN_Sensorboard_driver.c **** {
 283:../../../src/drivers/platform/micaZ/source/TUM_LKN_Sensorboard_driver.c **** 	writeIOs( setBits( m_lastxs, 0x0F, steps[ m_currentstep ] ) );
 284:../../../src/drivers/platform/micaZ/source/TUM_LKN_Sensorboard_driver.c **** 	m_currentstep = (m_currentstep + 6) & 0x06;
 285:../../../src/drivers/platform/micaZ/source/TUM_LKN_Sensorboard_driver.c **** }
 286:../../../src/drivers/platform/micaZ/source/TUM_LKN_Sensorboard_driver.c **** 
 287:../../../src/drivers/platform/micaZ/source/TUM_LKN_Sensorboard_driver.c **** 
 288:../../../src/drivers/platform/micaZ/source/TUM_LKN_Sensorboard_driver.c **** 
 289:../../../src/drivers/platform/micaZ/source/TUM_LKN_Sensorboard_driver.c **** void TUM_LKN_Sensorboard_halfStepCCW()
 290:../../../src/drivers/platform/micaZ/source/TUM_LKN_Sensorboard_driver.c **** {
 291:../../../src/drivers/platform/micaZ/source/TUM_LKN_Sensorboard_driver.c **** 	writeIOs( setBits( m_lastxs, 0x0F, steps[ m_currentstep ] ) );
 292:../../../src/drivers/platform/micaZ/source/TUM_LKN_Sensorboard_driver.c **** 	m_currentstep = (m_currentstep + 1) & 0x07;
 293:../../../src/drivers/platform/micaZ/source/TUM_LKN_Sensorboard_driver.c **** }
 294:../../../src/drivers/platform/micaZ/source/TUM_LKN_Sensorboard_driver.c **** 
 295:../../../src/drivers/platform/micaZ/source/TUM_LKN_Sensorboard_driver.c **** 
 296:../../../src/drivers/platform/micaZ/source/TUM_LKN_Sensorboard_driver.c **** 
 297:../../../src/drivers/platform/micaZ/source/TUM_LKN_Sensorboard_driver.c **** void TUM_LKN_Sensorboard_halfStepCW()
 298:../../../src/drivers/platform/micaZ/source/TUM_LKN_Sensorboard_driver.c **** {
 299:../../../src/drivers/platform/micaZ/source/TUM_LKN_Sensorboard_driver.c **** 	writeIOs( setBits( m_lastxs, 0x0F, steps[ m_currentstep ] ) );
 300:../../../src/drivers/platform/micaZ/source/TUM_LKN_Sensorboard_driver.c **** 	m_currentstep = (m_currentstep + 7) & 0x07;
 301:../../../src/drivers/platform/micaZ/source/TUM_LKN_Sensorboard_driver.c **** }
 302:../../../src/drivers/platform/micaZ/source/TUM_LKN_Sensorboard_driver.c **** 
 303:../../../src/drivers/platform/micaZ/source/TUM_LKN_Sensorboard_driver.c **** 
 304:../../../src/drivers/platform/micaZ/source/TUM_LKN_Sensorboard_driver.c **** 
 305:../../../src/drivers/platform/micaZ/source/TUM_LKN_Sensorboard_driver.c **** unsigned char TUM_LKN_Sensorboard_getCurrentStep() { return m_currentstep; }
 469               	.LM25:
 470               	.LFBB8:
 471               	/* prologue: function */
 472               	/* frame size = 0 */
 474               	.LM26:
 475 0178 8091 0000 		lds r24,m_currentstep
 476               	/* epilogue start */
 477 017c 0895      		ret
 479               	.Lscope8:
 481               		.stabd	78,0,0
 485               	.global	TUM_LKN_Sensorboard_setControl0
 487               	TUM_LKN_Sensorboard_setControl0:
 488               		.stabd	46,0,0
 306:../../../src/drivers/platform/micaZ/source/TUM_LKN_Sensorboard_driver.c **** 
 307:../../../src/drivers/platform/micaZ/source/TUM_LKN_Sensorboard_driver.c **** void TUM_LKN_Sensorboard_readPhotoVoltage() { readADC( 0 ); }
 308:../../../src/drivers/platform/micaZ/source/TUM_LKN_Sensorboard_driver.c **** void TUM_LKN_Sensorboard_readChannel1() { readADC( 1 ); }
 309:../../../src/drivers/platform/micaZ/source/TUM_LKN_Sensorboard_driver.c **** void TUM_LKN_Sensorboard_readChannel2() { readADC( 2 ); }
 310:../../../src/drivers/platform/micaZ/source/TUM_LKN_Sensorboard_driver.c **** void TUM_LKN_Sensorboard_readChannel3() { readADC( 3 ); }
 311:../../../src/drivers/platform/micaZ/source/TUM_LKN_Sensorboard_driver.c **** void TUM_LKN_Sensorboard_readChannel( uint8_t ch ) { readADC( ch ); }
 312:../../../src/drivers/platform/micaZ/source/TUM_LKN_Sensorboard_driver.c **** void TUM_LKN_Sensorboard_writeValue( double voltage ) { writeDAC( V2S( voltage ) ); }
 313:../../../src/drivers/platform/micaZ/source/TUM_LKN_Sensorboard_driver.c **** 
 314:../../../src/drivers/platform/micaZ/source/TUM_LKN_Sensorboard_driver.c **** 
 315:../../../src/drivers/platform/micaZ/source/TUM_LKN_Sensorboard_driver.c **** 
 316:../../../src/drivers/platform/micaZ/source/TUM_LKN_Sensorboard_driver.c **** // We can define two pairs of prescaler/PWM.
 317:../../../src/drivers/platform/micaZ/source/TUM_LKN_Sensorboard_driver.c **** // blinkPeriod is in seconds, dutyCycle is in [0; 1]
 318:../../../src/drivers/platform/micaZ/source/TUM_LKN_Sensorboard_driver.c **** void TUM_LKN_Sensorboard_setControl0( double blinkPeriod, double dutyCycle )
 319:../../../src/drivers/platform/micaZ/source/TUM_LKN_Sensorboard_driver.c **** {
 490               	.LM27:
 491               	.LFBB9:
 492 017e AF92      		push r10
 493 0180 BF92      		push r11
 494 0182 CF92      		push r12
 495 0184 DF92      		push r13
 496 0186 EF92      		push r14
 497 0188 FF92      		push r15
 498 018a 0F93      		push r16
 499 018c 1F93      		push r17
 500               	/* prologue: function */
 501               	/* frame size = 0 */
 502 018e 7B01      		movw r14,r22
 503 0190 8C01      		movw r16,r24
 504 0192 5901      		movw r10,r18
 505 0194 6A01      		movw r12,r20
 506               	.LBB70:
 507               	.LBB71:
 238:../../../src/drivers/platform/micaZ/source/TUM_LKN_Sensorboard_driver.c **** 	if (t > 255.0 * 152.0)   // 38760 sec = 10h46'00''
 509               	.LM28:
 510 0196 20E0      		ldi r18,lo8(0x47176800)
 511 0198 38E6      		ldi r19,hi8(0x47176800)
 512 019a 47E1      		ldi r20,hlo8(0x47176800)
 513 019c 57E4      		ldi r21,hhi8(0x47176800)
 514 019e 0E94 0000 		call __gtsf2
 515 01a2 1816      		cp __zero_reg__,r24
 516 01a4 04F4      		brge .L41
 517 01a6 6FEF      		ldi r22,lo8(-1)
 518 01a8 00C0      		rjmp .L32
 519               	.L41:
 240:../../../src/drivers/platform/micaZ/source/TUM_LKN_Sensorboard_driver.c **** 	else if (t >= 1./152.0)
 521               	.LM29:
 522 01aa C801      		movw r24,r16
 523 01ac B701      		movw r22,r14
 524 01ae 26E3      		ldi r18,lo8(0x3bd79436)
 525 01b0 34E9      		ldi r19,hi8(0x3bd79436)
 526 01b2 47ED      		ldi r20,hlo8(0x3bd79436)
 527 01b4 5BE3      		ldi r21,hhi8(0x3bd79436)
 528 01b6 0E94 0000 		call __gesf2
 529 01ba 87FF      		sbrs r24,7
 530 01bc 00C0      		rjmp .L33
 531 01be 60E0      		ldi r22,lo8(0)
 532 01c0 00C0      		rjmp .L32
 533               	.L33:
 241:../../../src/drivers/platform/micaZ/source/TUM_LKN_Sensorboard_driver.c **** 		return( (uint8_t) (t * 152 - 1) );
 535               	.LM30:
 536 01c2 C801      		movw r24,r16
 537 01c4 B701      		movw r22,r14
 538 01c6 20E0      		ldi r18,lo8(0x43180000)
 539 01c8 30E0      		ldi r19,hi8(0x43180000)
 540 01ca 48E1      		ldi r20,hlo8(0x43180000)
 541 01cc 53E4      		ldi r21,hhi8(0x43180000)
 542 01ce 0E94 0000 		call __mulsf3
 543 01d2 20E0      		ldi r18,lo8(0x3f800000)
 544 01d4 30E0      		ldi r19,hi8(0x3f800000)
 545 01d6 40E8      		ldi r20,hlo8(0x3f800000)
 546 01d8 5FE3      		ldi r21,hhi8(0x3f800000)
 547 01da 0E94 0000 		call __subsf3
 548 01de 0E94 0000 		call __fixunssfsi
 549               	.L32:
 550               	.LBE71:
 551               	.LBE70:
 320:../../../src/drivers/platform/micaZ/source/TUM_LKN_Sensorboard_driver.c **** 	m_prescaler[ 0 ] = prescalerSec2Hex( blinkPeriod );
 553               	.LM31:
 554 01e2 6093 0000 		sts m_prescaler,r22
 555               	.LBB72:
 556               	.LBB73:
 251:../../../src/drivers/platform/micaZ/source/TUM_LKN_Sensorboard_driver.c **** 	if (fraction >= 1.0)
 558               	.LM32:
 559 01e6 C601      		movw r24,r12
 560 01e8 B501      		movw r22,r10
 561 01ea 20E0      		ldi r18,lo8(0x3f800000)
 562 01ec 30E0      		ldi r19,hi8(0x3f800000)
 563 01ee 40E8      		ldi r20,hlo8(0x3f800000)
 564 01f0 5FE3      		ldi r21,hhi8(0x3f800000)
 565 01f2 0E94 0000 		call __gesf2
 566 01f6 8823      		tst r24
 567 01f8 04F0      		brlt .L42
 568 01fa 6FEF      		ldi r22,lo8(-1)
 569 01fc 00C0      		rjmp .L36
 570               	.L42:
 253:../../../src/drivers/platform/micaZ/source/TUM_LKN_Sensorboard_driver.c **** 	else if (fraction >= 1.0/256.0)
 572               	.LM33:
 573 01fe C601      		movw r24,r12
 574 0200 B501      		movw r22,r10
 575 0202 20E0      		ldi r18,lo8(0x3b800000)
 576 0204 30E0      		ldi r19,hi8(0x3b800000)
 577 0206 40E8      		ldi r20,hlo8(0x3b800000)
 578 0208 5BE3      		ldi r21,hhi8(0x3b800000)
 579 020a 0E94 0000 		call __gesf2
 580 020e 87FF      		sbrs r24,7
 581 0210 00C0      		rjmp .L37
 582 0212 60E0      		ldi r22,lo8(0)
 583 0214 00C0      		rjmp .L36
 584               	.L37:
 254:../../../src/drivers/platform/micaZ/source/TUM_LKN_Sensorboard_driver.c **** 		return( (uint8_t) (fraction * 256) );
 586               	.LM34:
 587 0216 C601      		movw r24,r12
 588 0218 B501      		movw r22,r10
 589 021a 20E0      		ldi r18,lo8(0x43800000)
 590 021c 30E0      		ldi r19,hi8(0x43800000)
 591 021e 40E8      		ldi r20,hlo8(0x43800000)
 592 0220 53E4      		ldi r21,hhi8(0x43800000)
 593 0222 0E94 0000 		call __mulsf3
 594 0226 0E94 0000 		call __fixunssfsi
 595               	.L36:
 596               	.LBE73:
 597               	.LBE72:
 321:../../../src/drivers/platform/micaZ/source/TUM_LKN_Sensorboard_driver.c **** 	m_pwm[ 0 ] = pwmFrac2Hex( dutyCycle );
 599               	.LM35:
 600 022a 6093 0000 		sts m_pwm,r22
 601               	/* epilogue start */
 322:../../../src/drivers/platform/micaZ/source/TUM_LKN_Sensorboard_driver.c **** }
 603               	.LM36:
 604 022e 1F91      		pop r17
 605 0230 0F91      		pop r16
 606 0232 FF90      		pop r15
 607 0234 EF90      		pop r14
 608 0236 DF90      		pop r13
 609 0238 CF90      		pop r12
 610 023a BF90      		pop r11
 611 023c AF90      		pop r10
 612 023e 0895      		ret
 614               	.Lscope9:
 616               		.stabd	78,0,0
 620               	.global	TUM_LKN_Sensorboard_setControl1
 622               	TUM_LKN_Sensorboard_setControl1:
 623               		.stabd	46,0,0
 323:../../../src/drivers/platform/micaZ/source/TUM_LKN_Sensorboard_driver.c **** 
 324:../../../src/drivers/platform/micaZ/source/TUM_LKN_Sensorboard_driver.c **** 
 325:../../../src/drivers/platform/micaZ/source/TUM_LKN_Sensorboard_driver.c **** 
 326:../../../src/drivers/platform/micaZ/source/TUM_LKN_Sensorboard_driver.c **** void TUM_LKN_Sensorboard_setControl1( double blinkPeriod, double dutyCycle )
 327:../../../src/drivers/platform/micaZ/source/TUM_LKN_Sensorboard_driver.c **** {
 625               	.LM37:
 626               	.LFBB10:
 627 0240 AF92      		push r10
 628 0242 BF92      		push r11
 629 0244 CF92      		push r12
 630 0246 DF92      		push r13
 631 0248 EF92      		push r14
 632 024a FF92      		push r15
 633 024c 0F93      		push r16
 634 024e 1F93      		push r17
 635               	/* prologue: function */
 636               	/* frame size = 0 */
 637 0250 7B01      		movw r14,r22
 638 0252 8C01      		movw r16,r24
 639 0254 5901      		movw r10,r18
 640 0256 6A01      		movw r12,r20
 641               	.LBB74:
 642               	.LBB75:
 238:../../../src/drivers/platform/micaZ/source/TUM_LKN_Sensorboard_driver.c **** 	if (t > 255.0 * 152.0)   // 38760 sec = 10h46'00''
 644               	.LM38:
 645 0258 20E0      		ldi r18,lo8(0x47176800)
 646 025a 38E6      		ldi r19,hi8(0x47176800)
 647 025c 47E1      		ldi r20,hlo8(0x47176800)
 648 025e 57E4      		ldi r21,hhi8(0x47176800)
 649 0260 0E94 0000 		call __gtsf2
 650 0264 1816      		cp __zero_reg__,r24
 651 0266 04F4      		brge .L55
 652 0268 6FEF      		ldi r22,lo8(-1)
 653 026a 00C0      		rjmp .L46
 654               	.L55:
 240:../../../src/drivers/platform/micaZ/source/TUM_LKN_Sensorboard_driver.c **** 	else if (t >= 1./152.0)
 656               	.LM39:
 657 026c C801      		movw r24,r16
 658 026e B701      		movw r22,r14
 659 0270 26E3      		ldi r18,lo8(0x3bd79436)
 660 0272 34E9      		ldi r19,hi8(0x3bd79436)
 661 0274 47ED      		ldi r20,hlo8(0x3bd79436)
 662 0276 5BE3      		ldi r21,hhi8(0x3bd79436)
 663 0278 0E94 0000 		call __gesf2
 664 027c 87FF      		sbrs r24,7
 665 027e 00C0      		rjmp .L47
 666 0280 60E0      		ldi r22,lo8(0)
 667 0282 00C0      		rjmp .L46
 668               	.L47:
 241:../../../src/drivers/platform/micaZ/source/TUM_LKN_Sensorboard_driver.c **** 		return( (uint8_t) (t * 152 - 1) );
 670               	.LM40:
 671 0284 C801      		movw r24,r16
 672 0286 B701      		movw r22,r14
 673 0288 20E0      		ldi r18,lo8(0x43180000)
 674 028a 30E0      		ldi r19,hi8(0x43180000)
 675 028c 48E1      		ldi r20,hlo8(0x43180000)
 676 028e 53E4      		ldi r21,hhi8(0x43180000)
 677 0290 0E94 0000 		call __mulsf3
 678 0294 20E0      		ldi r18,lo8(0x3f800000)
 679 0296 30E0      		ldi r19,hi8(0x3f800000)
 680 0298 40E8      		ldi r20,hlo8(0x3f800000)
 681 029a 5FE3      		ldi r21,hhi8(0x3f800000)
 682 029c 0E94 0000 		call __subsf3
 683 02a0 0E94 0000 		call __fixunssfsi
 684               	.L46:
 685               	.LBE75:
 686               	.LBE74:
 328:../../../src/drivers/platform/micaZ/source/TUM_LKN_Sensorboard_driver.c **** 	m_prescaler[ 1 ] = prescalerSec2Hex( blinkPeriod );
 688               	.LM41:
 689 02a4 6093 0000 		sts m_prescaler+1,r22
 690               	.LBB76:
 691               	.LBB77:
 251:../../../src/drivers/platform/micaZ/source/TUM_LKN_Sensorboard_driver.c **** 	if (fraction >= 1.0)
 693               	.LM42:
 694 02a8 C601      		movw r24,r12
 695 02aa B501      		movw r22,r10
 696 02ac 20E0      		ldi r18,lo8(0x3f800000)
 697 02ae 30E0      		ldi r19,hi8(0x3f800000)
 698 02b0 40E8      		ldi r20,hlo8(0x3f800000)
 699 02b2 5FE3      		ldi r21,hhi8(0x3f800000)
 700 02b4 0E94 0000 		call __gesf2
 701 02b8 8823      		tst r24
 702 02ba 04F0      		brlt .L56
 703 02bc 6FEF      		ldi r22,lo8(-1)
 704 02be 00C0      		rjmp .L50
 705               	.L56:
 253:../../../src/drivers/platform/micaZ/source/TUM_LKN_Sensorboard_driver.c **** 	else if (fraction >= 1.0/256.0)
 707               	.LM43:
 708 02c0 C601      		movw r24,r12
 709 02c2 B501      		movw r22,r10
 710 02c4 20E0      		ldi r18,lo8(0x3b800000)
 711 02c6 30E0      		ldi r19,hi8(0x3b800000)
 712 02c8 40E8      		ldi r20,hlo8(0x3b800000)
 713 02ca 5BE3      		ldi r21,hhi8(0x3b800000)
 714 02cc 0E94 0000 		call __gesf2
 715 02d0 87FF      		sbrs r24,7
 716 02d2 00C0      		rjmp .L51
 717 02d4 60E0      		ldi r22,lo8(0)
 718 02d6 00C0      		rjmp .L50
 719               	.L51:
 254:../../../src/drivers/platform/micaZ/source/TUM_LKN_Sensorboard_driver.c **** 		return( (uint8_t) (fraction * 256) );
 721               	.LM44:
 722 02d8 C601      		movw r24,r12
 723 02da B501      		movw r22,r10
 724 02dc 20E0      		ldi r18,lo8(0x43800000)
 725 02de 30E0      		ldi r19,hi8(0x43800000)
 726 02e0 40E8      		ldi r20,hlo8(0x43800000)
 727 02e2 53E4      		ldi r21,hhi8(0x43800000)
 728 02e4 0E94 0000 		call __mulsf3
 729 02e8 0E94 0000 		call __fixunssfsi
 730               	.L50:
 731               	.LBE77:
 732               	.LBE76:
 329:../../../src/drivers/platform/micaZ/source/TUM_LKN_Sensorboard_driver.c **** 	m_pwm[ 1 ] = pwmFrac2Hex( dutyCycle );
 734               	.LM45:
 735 02ec 6093 0000 		sts m_pwm+1,r22
 736               	/* epilogue start */
 330:../../../src/drivers/platform/micaZ/source/TUM_LKN_Sensorboard_driver.c **** }
 738               	.LM46:
 739 02f0 1F91      		pop r17
 740 02f2 0F91      		pop r16
 741 02f4 FF90      		pop r15
 742 02f6 EF90      		pop r14
 743 02f8 DF90      		pop r13
 744 02fa CF90      		pop r12
 745 02fc BF90      		pop r11
 746 02fe AF90      		pop r10
 747 0300 0895      		ret
 749               	.Lscope10:
 751               		.stabd	78,0,0
 754               	.global	TUM_LKN_Sensorboard_setBrightness0
 756               	TUM_LKN_Sensorboard_setBrightness0:
 757               		.stabd	46,0,0
 331:../../../src/drivers/platform/micaZ/source/TUM_LKN_Sensorboard_driver.c **** 
 332:../../../src/drivers/platform/micaZ/source/TUM_LKN_Sensorboard_driver.c **** 
 333:../../../src/drivers/platform/micaZ/source/TUM_LKN_Sensorboard_driver.c **** 
 334:../../../src/drivers/platform/micaZ/source/TUM_LKN_Sensorboard_driver.c **** void TUM_LKN_Sensorboard_setBrightness0( double dutyCycle )
 335:../../../src/drivers/platform/micaZ/source/TUM_LKN_Sensorboard_driver.c **** {
 759               	.LM47:
 760               	.LFBB11:
 761 0302 EF92      		push r14
 762 0304 FF92      		push r15
 763 0306 0F93      		push r16
 764 0308 1F93      		push r17
 765               	/* prologue: function */
 766               	/* frame size = 0 */
 767 030a 7B01      		movw r14,r22
 768 030c 8C01      		movw r16,r24
 336:../../../src/drivers/platform/micaZ/source/TUM_LKN_Sensorboard_driver.c **** 	m_prescaler[ 0 ] = 0x00;   // Highest frequency possible
 770               	.LM48:
 771 030e 1092 0000 		sts m_prescaler,__zero_reg__
 772               	.LBB78:
 773               	.LBB79:
 251:../../../src/drivers/platform/micaZ/source/TUM_LKN_Sensorboard_driver.c **** 	if (fraction >= 1.0)
 775               	.LM49:
 776 0312 20E0      		ldi r18,lo8(0x3f800000)
 777 0314 30E0      		ldi r19,hi8(0x3f800000)
 778 0316 40E8      		ldi r20,hlo8(0x3f800000)
 779 0318 5FE3      		ldi r21,hhi8(0x3f800000)
 780 031a 0E94 0000 		call __gesf2
 781 031e 8823      		tst r24
 782 0320 04F0      		brlt .L64
 783 0322 6FEF      		ldi r22,lo8(-1)
 784 0324 00C0      		rjmp .L60
 785               	.L64:
 253:../../../src/drivers/platform/micaZ/source/TUM_LKN_Sensorboard_driver.c **** 	else if (fraction >= 1.0/256.0)
 787               	.LM50:
 788 0326 C801      		movw r24,r16
 789 0328 B701      		movw r22,r14
 790 032a 20E0      		ldi r18,lo8(0x3b800000)
 791 032c 30E0      		ldi r19,hi8(0x3b800000)
 792 032e 40E8      		ldi r20,hlo8(0x3b800000)
 793 0330 5BE3      		ldi r21,hhi8(0x3b800000)
 794 0332 0E94 0000 		call __gesf2
 795 0336 87FF      		sbrs r24,7
 796 0338 00C0      		rjmp .L61
 797 033a 60E0      		ldi r22,lo8(0)
 798 033c 00C0      		rjmp .L60
 799               	.L61:
 254:../../../src/drivers/platform/micaZ/source/TUM_LKN_Sensorboard_driver.c **** 		return( (uint8_t) (fraction * 256) );
 801               	.LM51:
 802 033e C801      		movw r24,r16
 803 0340 B701      		movw r22,r14
 804 0342 20E0      		ldi r18,lo8(0x43800000)
 805 0344 30E0      		ldi r19,hi8(0x43800000)
 806 0346 40E8      		ldi r20,hlo8(0x43800000)
 807 0348 53E4      		ldi r21,hhi8(0x43800000)
 808 034a 0E94 0000 		call __mulsf3
 809 034e 0E94 0000 		call __fixunssfsi
 810               	.L60:
 811               	.LBE79:
 812               	.LBE78:
 337:../../../src/drivers/platform/micaZ/source/TUM_LKN_Sensorboard_driver.c **** 	m_pwm[ 0 ] = pwmFrac2Hex( dutyCycle );
 814               	.LM52:
 815 0352 6093 0000 		sts m_pwm,r22
 816               	/* epilogue start */
 338:../../../src/drivers/platform/micaZ/source/TUM_LKN_Sensorboard_driver.c **** }
 818               	.LM53:
 819 0356 1F91      		pop r17
 820 0358 0F91      		pop r16
 821 035a FF90      		pop r15
 822 035c EF90      		pop r14
 823 035e 0895      		ret
 825               	.Lscope11:
 827               		.stabd	78,0,0
 830               	.global	TUM_LKN_Sensorboard_setBrightness1
 832               	TUM_LKN_Sensorboard_setBrightness1:
 833               		.stabd	46,0,0
 339:../../../src/drivers/platform/micaZ/source/TUM_LKN_Sensorboard_driver.c **** 
 340:../../../src/drivers/platform/micaZ/source/TUM_LKN_Sensorboard_driver.c **** 
 341:../../../src/drivers/platform/micaZ/source/TUM_LKN_Sensorboard_driver.c **** 
 342:../../../src/drivers/platform/micaZ/source/TUM_LKN_Sensorboard_driver.c **** void TUM_LKN_Sensorboard_setBrightness1( double dutyCycle )
 343:../../../src/drivers/platform/micaZ/source/TUM_LKN_Sensorboard_driver.c **** {
 835               	.LM54:
 836               	.LFBB12:
 837 0360 EF92      		push r14
 838 0362 FF92      		push r15
 839 0364 0F93      		push r16
 840 0366 1F93      		push r17
 841               	/* prologue: function */
 842               	/* frame size = 0 */
 843 0368 7B01      		movw r14,r22
 844 036a 8C01      		movw r16,r24
 344:../../../src/drivers/platform/micaZ/source/TUM_LKN_Sensorboard_driver.c **** 	m_prescaler[ 1 ] = 0x00;   // Highest frequency possible
 846               	.LM55:
 847 036c 1092 0000 		sts m_prescaler+1,__zero_reg__
 848               	.LBB80:
 849               	.LBB81:
 251:../../../src/drivers/platform/micaZ/source/TUM_LKN_Sensorboard_driver.c **** 	if (fraction >= 1.0)
 851               	.LM56:
 852 0370 20E0      		ldi r18,lo8(0x3f800000)
 853 0372 30E0      		ldi r19,hi8(0x3f800000)
 854 0374 40E8      		ldi r20,hlo8(0x3f800000)
 855 0376 5FE3      		ldi r21,hhi8(0x3f800000)
 856 0378 0E94 0000 		call __gesf2
 857 037c 8823      		tst r24
 858 037e 04F0      		brlt .L72
 859 0380 6FEF      		ldi r22,lo8(-1)
 860 0382 00C0      		rjmp .L68
 861               	.L72:
 253:../../../src/drivers/platform/micaZ/source/TUM_LKN_Sensorboard_driver.c **** 	else if (fraction >= 1.0/256.0)
 863               	.LM57:
 864 0384 C801      		movw r24,r16
 865 0386 B701      		movw r22,r14
 866 0388 20E0      		ldi r18,lo8(0x3b800000)
 867 038a 30E0      		ldi r19,hi8(0x3b800000)
 868 038c 40E8      		ldi r20,hlo8(0x3b800000)
 869 038e 5BE3      		ldi r21,hhi8(0x3b800000)
 870 0390 0E94 0000 		call __gesf2
 871 0394 87FF      		sbrs r24,7
 872 0396 00C0      		rjmp .L69
 873 0398 60E0      		ldi r22,lo8(0)
 874 039a 00C0      		rjmp .L68
 875               	.L69:
 254:../../../src/drivers/platform/micaZ/source/TUM_LKN_Sensorboard_driver.c **** 		return( (uint8_t) (fraction * 256) );
 877               	.LM58:
 878 039c C801      		movw r24,r16
 879 039e B701      		movw r22,r14
 880 03a0 20E0      		ldi r18,lo8(0x43800000)
 881 03a2 30E0      		ldi r19,hi8(0x43800000)
 882 03a4 40E8      		ldi r20,hlo8(0x43800000)
 883 03a6 53E4      		ldi r21,hhi8(0x43800000)
 884 03a8 0E94 0000 		call __mulsf3
 885 03ac 0E94 0000 		call __fixunssfsi
 886               	.L68:
 887               	.LBE81:
 888               	.LBE80:
 345:../../../src/drivers/platform/micaZ/source/TUM_LKN_Sensorboard_driver.c **** 	m_pwm[ 1 ] = pwmFrac2Hex( dutyCycle );
 890               	.LM59:
 891 03b0 6093 0000 		sts m_pwm+1,r22
 892               	/* epilogue start */
 346:../../../src/drivers/platform/micaZ/source/TUM_LKN_Sensorboard_driver.c **** }
 894               	.LM60:
 895 03b4 1F91      		pop r17
 896 03b6 0F91      		pop r16
 897 03b8 FF90      		pop r15
 898 03ba EF90      		pop r14
 899 03bc 0895      		ret
 901               	.Lscope12:
 903               		.stabd	78,0,0
 907               	.global	TWI_write
 909               	TWI_write:
 910               		.stabd	46,0,0
 347:../../../src/drivers/platform/micaZ/source/TUM_LKN_Sensorboard_driver.c **** 
 348:../../../src/drivers/platform/micaZ/source/TUM_LKN_Sensorboard_driver.c **** 
 349:../../../src/drivers/platform/micaZ/source/TUM_LKN_Sensorboard_driver.c **** 
 350:../../../src/drivers/platform/micaZ/source/TUM_LKN_Sensorboard_driver.c **** void TUM_LKN_Sensorboard_laserOn() 							{ setLedMode( 3, REG_LED_ON ); setLeds(); }
 351:../../../src/drivers/platform/micaZ/source/TUM_LKN_Sensorboard_driver.c **** void TUM_LKN_Sensorboard_laserOff() 						{ setLedMode( 3, REG_LED_OFF ); setLeds(); }
 352:../../../src/drivers/platform/micaZ/source/TUM_LKN_Sensorboard_driver.c **** void TUM_LKN_Sensorboard_laserToggle() 					{ setLedMode( 3, getLedMode( 3 ) ^ 0x01 ); setLeds(); }
 353:../../../src/drivers/platform/micaZ/source/TUM_LKN_Sensorboard_driver.c **** void TUM_LKN_Sensorboard_laserBlink( uint8_t ctl ) 	{ setLedMode( 3, 0x02 | (ctl & 0x01) ); setLeds
 354:../../../src/drivers/platform/micaZ/source/TUM_LKN_Sensorboard_driver.c **** 
 355:../../../src/drivers/platform/micaZ/source/TUM_LKN_Sensorboard_driver.c **** void TUM_LKN_Sensorboard_redOn() 							{ setLedMode( 0, REG_LED_ON ); setLeds(); }
 356:../../../src/drivers/platform/micaZ/source/TUM_LKN_Sensorboard_driver.c **** void TUM_LKN_Sensorboard_redOff() 							{ setLedMode( 0, REG_LED_OFF ); setLeds(); }
 357:../../../src/drivers/platform/micaZ/source/TUM_LKN_Sensorboard_driver.c **** void TUM_LKN_Sensorboard_redToggle() 						{ setLedMode( 0, getLedMode( 0 ) ^ 0x01 ); setLeds(); }
 358:../../../src/drivers/platform/micaZ/source/TUM_LKN_Sensorboard_driver.c **** void TUM_LKN_Sensorboard_redBlink( uint8_t ctl ) 		{ setLedMode( 0, 0x02 | (ctl & 0x01) ); setLeds(
 359:../../../src/drivers/platform/micaZ/source/TUM_LKN_Sensorboard_driver.c **** 
 360:../../../src/drivers/platform/micaZ/source/TUM_LKN_Sensorboard_driver.c **** void TUM_LKN_Sensorboard_yellowOn() 						{ setLedMode( 1, REG_LED_ON ); setLeds(); }
 361:../../../src/drivers/platform/micaZ/source/TUM_LKN_Sensorboard_driver.c **** void TUM_LKN_Sensorboard_yellowOff() 						{ setLedMode( 1, REG_LED_OFF ); setLeds(); }
 362:../../../src/drivers/platform/micaZ/source/TUM_LKN_Sensorboard_driver.c **** void TUM_LKN_Sensorboard_yellowToggle() 					{ setLedMode( 1, getLedMode( 1 ) ^ 0x01 ); setLeds(); 
 363:../../../src/drivers/platform/micaZ/source/TUM_LKN_Sensorboard_driver.c **** void TUM_LKN_Sensorboard_yellowBlink( uint8_t ctl )	{ setLedMode( 1, 0x02 | (ctl & 0x01) ); setLeds
 364:../../../src/drivers/platform/micaZ/source/TUM_LKN_Sensorboard_driver.c **** 
 365:../../../src/drivers/platform/micaZ/source/TUM_LKN_Sensorboard_driver.c **** void TUM_LKN_Sensorboard_greenOn() 							{ setLedMode( 2, REG_LED_ON ); setLeds(); }
 366:../../../src/drivers/platform/micaZ/source/TUM_LKN_Sensorboard_driver.c **** void TUM_LKN_Sensorboard_greenOff() 						{ setLedMode( 2, REG_LED_OFF ); setLeds(); }
 367:../../../src/drivers/platform/micaZ/source/TUM_LKN_Sensorboard_driver.c **** void TUM_LKN_Sensorboard_greenToggle() 					{ setLedMode( 2, getLedMode( 2 ) ^ 0x01 ); setLeds(); }
 368:../../../src/drivers/platform/micaZ/source/TUM_LKN_Sensorboard_driver.c **** void TUM_LKN_Sensorboard_greenBlink( uint8_t ctl ) 	{ setLedMode( 2, 0x02 | (ctl & 0x01) ); setLeds
 369:../../../src/drivers/platform/micaZ/source/TUM_LKN_Sensorboard_driver.c **** 
 370:../../../src/drivers/platform/micaZ/source/TUM_LKN_Sensorboard_driver.c **** 
 371:../../../src/drivers/platform/micaZ/source/TUM_LKN_Sensorboard_driver.c **** 
 372:../../../src/drivers/platform/micaZ/source/TUM_LKN_Sensorboard_driver.c **** void TWI_write(unsigned char address, unsigned char length, unsigned char* payload)
 373:../../../src/drivers/platform/micaZ/source/TUM_LKN_Sensorboard_driver.c **** {
 912               	.LM61:
 913               	.LFBB13:
 914               	/* prologue: function */
 915               	/* frame size = 0 */
 916 03be 982F      		mov r25,r24
 374:../../../src/drivers/platform/micaZ/source/TUM_LKN_Sensorboard_driver.c **** 	unsigned char datapointer;
 375:../../../src/drivers/platform/micaZ/source/TUM_LKN_Sensorboard_driver.c **** 
 376:../../../src/drivers/platform/micaZ/source/TUM_LKN_Sensorboard_driver.c **** 	PORTD |= 0x03;		//enable Portpin pullups
 918               	.LM62:
 919 03c0 82B3      		in r24,50-32
 920 03c2 8360      		ori r24,lo8(3)
 921 03c4 82BB      		out 50-32,r24
 377:../../../src/drivers/platform/micaZ/source/TUM_LKN_Sensorboard_driver.c **** 
 378:../../../src/drivers/platform/micaZ/source/TUM_LKN_Sensorboard_driver.c **** 	TWSR = 0;                             // set prescaler == 0
 923               	.LM63:
 924 03c6 1092 7100 		sts 113,__zero_reg__
 379:../../../src/drivers/platform/micaZ/source/TUM_LKN_Sensorboard_driver.c **** 	//TWBR = (F_CPU / 50000UL - 16) / 2;   // set I2C baud rate
 380:../../../src/drivers/platform/micaZ/source/TUM_LKN_Sensorboard_driver.c **** 	TWBR = 62;
 926               	.LM64:
 927 03ca 8EE3      		ldi r24,lo8(62)
 928 03cc 8093 7000 		sts 112,r24
 381:../../../src/drivers/platform/micaZ/source/TUM_LKN_Sensorboard_driver.c **** 	TWAR = 0;
 930               	.LM65:
 931 03d0 1092 7200 		sts 114,__zero_reg__
 382:../../../src/drivers/platform/micaZ/source/TUM_LKN_Sensorboard_driver.c **** 	TWCR = 0;
 933               	.LM66:
 934 03d4 1092 7400 		sts 116,__zero_reg__
 383:../../../src/drivers/platform/micaZ/source/TUM_LKN_Sensorboard_driver.c **** 
 384:../../../src/drivers/platform/micaZ/source/TUM_LKN_Sensorboard_driver.c **** 	TWCR = (1<<TWINT)|(1<<TWSTA)|(1<<TWEN);
 936               	.LM67:
 937 03d8 84EA      		ldi r24,lo8(-92)
 938 03da 8093 7400 		sts 116,r24
 939               	.L74:
 385:../../../src/drivers/platform/micaZ/source/TUM_LKN_Sensorboard_driver.c **** 	while (!(TWCR & (1<<TWINT)));
 941               	.LM68:
 942 03de 8091 7400 		lds r24,116
 943 03e2 87FF      		sbrs r24,7
 944 03e4 00C0      		rjmp .L74
 386:../../../src/drivers/platform/micaZ/source/TUM_LKN_Sensorboard_driver.c **** //		if ((TWSR & 0xF8) != START) {} //ERROR
 387:../../../src/drivers/platform/micaZ/source/TUM_LKN_Sensorboard_driver.c **** 	TWDR = address;
 946               	.LM69:
 947 03e6 9093 7300 		sts 115,r25
 388:../../../src/drivers/platform/micaZ/source/TUM_LKN_Sensorboard_driver.c **** 	TWCR = (1<<TWINT) | (1<<TWEN);								//clear TWINT to start transmission of address
 949               	.LM70:
 950 03ea 84E8      		ldi r24,lo8(-124)
 951 03ec 8093 7400 		sts 116,r24
 952               	.L75:
 389:../../../src/drivers/platform/micaZ/source/TUM_LKN_Sensorboard_driver.c **** 	while (!(TWCR & (1<<TWINT)));									//wait until transmission is complete
 954               	.LM71:
 955 03f0 8091 7400 		lds r24,116
 956 03f4 87FF      		sbrs r24,7
 957 03f6 00C0      		rjmp .L75
 958 03f8 FA01      		movw r30,r20
 959 03fa 90E0      		ldi r25,lo8(0)
 390:../../../src/drivers/platform/micaZ/source/TUM_LKN_Sensorboard_driver.c **** //	  if ((TWSR & 0xF8) != MT_SLA_ACK) {}  //ERROR
 391:../../../src/drivers/platform/micaZ/source/TUM_LKN_Sensorboard_driver.c **** 	for(datapointer = 0; datapointer < length; datapointer++)
 392:../../../src/drivers/platform/micaZ/source/TUM_LKN_Sensorboard_driver.c **** 	{
 393:../../../src/drivers/platform/micaZ/source/TUM_LKN_Sensorboard_driver.c **** 		TWDR = payload[datapointer];
 394:../../../src/drivers/platform/micaZ/source/TUM_LKN_Sensorboard_driver.c **** 		TWCR = (1<<TWINT) | (1<<TWEN);							//clear TWINT to start transmission of data
 961               	.LM72:
 962 03fc 24E8      		ldi r18,lo8(-124)
 963 03fe 00C0      		rjmp .L76
 964               	.L78:
 394:../../../src/drivers/platform/micaZ/source/TUM_LKN_Sensorboard_driver.c **** 		TWCR = (1<<TWINT) | (1<<TWEN);							//clear TWINT to start transmission of data
 966               	.LM73:
 967 0400 8081      		ld r24,Z
 968 0402 8093 7300 		sts 115,r24
 970               	.LM74:
 971 0406 2093 7400 		sts 116,r18
 972               	.L77:
 395:../../../src/drivers/platform/micaZ/source/TUM_LKN_Sensorboard_driver.c **** 		while (!(TWCR & (1<<TWINT)));								//wait until transmission is complete
 974               	.LM75:
 975 040a 8091 7400 		lds r24,116
 976 040e 87FF      		sbrs r24,7
 977 0410 00C0      		rjmp .L77
 392:../../../src/drivers/platform/micaZ/source/TUM_LKN_Sensorboard_driver.c **** 	for(datapointer = 0; datapointer < length; datapointer++)
 979               	.LM76:
 980 0412 9F5F      		subi r25,lo8(-(1))
 981 0414 3196      		adiw r30,1
 982               	.L76:
 983 0416 9617      		cp r25,r22
 984 0418 00F0      		brlo .L78
 396:../../../src/drivers/platform/micaZ/source/TUM_LKN_Sensorboard_driver.c **** //	  if ((TWSR & 0xF8) != MT_DATA_ACK) {} //ERROR
 397:../../../src/drivers/platform/micaZ/source/TUM_LKN_Sensorboard_driver.c **** 	}
 398:../../../src/drivers/platform/micaZ/source/TUM_LKN_Sensorboard_driver.c **** 	TWCR = (1<<TWINT)|(1<<TWEN)|(1<<TWSTO);				//Stop condition
 986               	.LM77:
 987 041a 84E9      		ldi r24,lo8(-108)
 988 041c 8093 7400 		sts 116,r24
 989               	/* epilogue start */
 399:../../../src/drivers/platform/micaZ/source/TUM_LKN_Sensorboard_driver.c **** }
 991               	.LM78:
 992 0420 0895      		ret
 997               	.Lscope13:
 999               		.stabd	78,0,0
 1003               	.global	TWI_read
 1005               	TWI_read:
 1006               		.stabd	46,0,0
 400:../../../src/drivers/platform/micaZ/source/TUM_LKN_Sensorboard_driver.c **** 
 401:../../../src/drivers/platform/micaZ/source/TUM_LKN_Sensorboard_driver.c **** 
 402:../../../src/drivers/platform/micaZ/source/TUM_LKN_Sensorboard_driver.c **** 
 403:../../../src/drivers/platform/micaZ/source/TUM_LKN_Sensorboard_driver.c **** void TWI_read(unsigned char address, unsigned char length, unsigned char* payload)
 404:../../../src/drivers/platform/micaZ/source/TUM_LKN_Sensorboard_driver.c **** {
 1008               	.LM79:
 1009               	.LFBB14:
 1010               	/* prologue: function */
 1011               	/* frame size = 0 */
 1012 0422 982F      		mov r25,r24
 405:../../../src/drivers/platform/micaZ/source/TUM_LKN_Sensorboard_driver.c **** 	unsigned char datapointer;
 406:../../../src/drivers/platform/micaZ/source/TUM_LKN_Sensorboard_driver.c **** 
 407:../../../src/drivers/platform/micaZ/source/TUM_LKN_Sensorboard_driver.c **** 	address |= 0x01;	//Set read mode on i2c
 408:../../../src/drivers/platform/micaZ/source/TUM_LKN_Sensorboard_driver.c **** 
 409:../../../src/drivers/platform/micaZ/source/TUM_LKN_Sensorboard_driver.c **** 	PORTD |= 0x03;		//enable Portpin pullups
 1014               	.LM80:
 1015 0424 82B3      		in r24,50-32
 1016 0426 8360      		ori r24,lo8(3)
 1017 0428 82BB      		out 50-32,r24
 410:../../../src/drivers/platform/micaZ/source/TUM_LKN_Sensorboard_driver.c **** 
 411:../../../src/drivers/platform/micaZ/source/TUM_LKN_Sensorboard_driver.c **** 	TWSR = 0;                             				// set prescaler == 0
 1019               	.LM81:
 1020 042a 1092 7100 		sts 113,__zero_reg__
 412:../../../src/drivers/platform/micaZ/source/TUM_LKN_Sensorboard_driver.c **** 	//TWBR = (F_CPU / 50000UL - 16) / 2;   				// set I2C baud rate
 413:../../../src/drivers/platform/micaZ/source/TUM_LKN_Sensorboard_driver.c **** 	TWBR = 62;
 1022               	.LM82:
 1023 042e 8EE3      		ldi r24,lo8(62)
 1024 0430 8093 7000 		sts 112,r24
 414:../../../src/drivers/platform/micaZ/source/TUM_LKN_Sensorboard_driver.c **** 	TWAR = 0;
 1026               	.LM83:
 1027 0434 1092 7200 		sts 114,__zero_reg__
 415:../../../src/drivers/platform/micaZ/source/TUM_LKN_Sensorboard_driver.c **** 	TWCR = 0;
 1029               	.LM84:
 1030 0438 1092 7400 		sts 116,__zero_reg__
 416:../../../src/drivers/platform/micaZ/source/TUM_LKN_Sensorboard_driver.c **** 
 417:../../../src/drivers/platform/micaZ/source/TUM_LKN_Sensorboard_driver.c **** 	TWCR = (1<<TWINT)|(1<<TWSTA)|(1<<TWEN);
 1032               	.LM85:
 1033 043c 84EA      		ldi r24,lo8(-92)
 1034 043e 8093 7400 		sts 116,r24
 1035               	.L84:
 418:../../../src/drivers/platform/micaZ/source/TUM_LKN_Sensorboard_driver.c **** 	while (!(TWCR & (1<<TWINT)));
 1037               	.LM86:
 1038 0442 8091 7400 		lds r24,116
 1039 0446 87FF      		sbrs r24,7
 1040 0448 00C0      		rjmp .L84
 408:../../../src/drivers/platform/micaZ/source/TUM_LKN_Sensorboard_driver.c **** 	address |= 0x01;	//Set read mode on i2c
 1042               	.LM87:
 1043 044a 9160      		ori r25,lo8(1)
 419:../../../src/drivers/platform/micaZ/source/TUM_LKN_Sensorboard_driver.c **** //		if ((TWSR & 0xF8) != START) {} //ERROR
 420:../../../src/drivers/platform/micaZ/source/TUM_LKN_Sensorboard_driver.c **** 	TWDR = address;
 1045               	.LM88:
 1046 044c 9093 7300 		sts 115,r25
 421:../../../src/drivers/platform/micaZ/source/TUM_LKN_Sensorboard_driver.c **** 	TWCR = (1<<TWINT) | (1<<TWEN);								//clear TWINT to start transmission of address
 1048               	.LM89:
 1049 0450 84E8      		ldi r24,lo8(-124)
 1050 0452 8093 7400 		sts 116,r24
 1051               	.L85:
 422:../../../src/drivers/platform/micaZ/source/TUM_LKN_Sensorboard_driver.c **** 	while (!(TWCR & (1<<TWINT)));									//wait until transmission is complete
 1053               	.LM90:
 1054 0456 8091 7400 		lds r24,116
 1055 045a 87FF      		sbrs r24,7
 1056 045c 00C0      		rjmp .L85
 1057 045e FA01      		movw r30,r20
 1058 0460 40E0      		ldi r20,lo8(0)
 423:../../../src/drivers/platform/micaZ/source/TUM_LKN_Sensorboard_driver.c **** //	  if ((TWSR & 0xF8) != MT_SLA_ACK) {}  //ERROR
 424:../../../src/drivers/platform/micaZ/source/TUM_LKN_Sensorboard_driver.c **** 	for(datapointer = 0; datapointer < length; datapointer++)
 425:../../../src/drivers/platform/micaZ/source/TUM_LKN_Sensorboard_driver.c **** 	{
 426:../../../src/drivers/platform/micaZ/source/TUM_LKN_Sensorboard_driver.c **** 		//is this the correct place for reading???
 427:../../../src/drivers/platform/micaZ/source/TUM_LKN_Sensorboard_driver.c **** 		if (datapointer < (length - 1))	TWCR = (1<<TWINT)|(1<<TWEN)|(1<<TWEA);			//clear TWINT to start t
 1060               	.LM91:
 1061 0462 262F      		mov r18,r22
 1062 0464 30E0      		ldi r19,lo8(0)
 1063 0466 2150      		subi r18,lo8(-(-1))
 1064 0468 3040      		sbci r19,hi8(-(-1))
 428:../../../src/drivers/platform/micaZ/source/TUM_LKN_Sensorboard_driver.c **** 		else 														TWCR = (1<<TWINT)|(1<<TWEN);								//clear TWINT to start transmission of dat
 1066               	.LM92:
 1067 046a 74E8      		ldi r23,lo8(-124)
 428:../../../src/drivers/platform/micaZ/source/TUM_LKN_Sensorboard_driver.c **** 		else 														TWCR = (1<<TWINT)|(1<<TWEN);								//clear TWINT to start transmission of dat
 1069               	.LM93:
 1070 046c 54EC      		ldi r21,lo8(-60)
 1071 046e 00C0      		rjmp .L86
 1072               	.L89:
 1073 0470 842F      		mov r24,r20
 1074 0472 90E0      		ldi r25,lo8(0)
 1075 0474 8217      		cp r24,r18
 1076 0476 9307      		cpc r25,r19
 1077 0478 04F4      		brge .L87
 1078 047a 5093 7400 		sts 116,r21
 1079 047e 00C0      		rjmp .L91
 1080               	.L87:
 1082               	.LM94:
 1083 0480 7093 7400 		sts 116,r23
 1084               	.L91:
 429:../../../src/drivers/platform/micaZ/source/TUM_LKN_Sensorboard_driver.c **** 		while (!(TWCR & (1<<TWINT)));								//wait until transmission is complete
 1086               	.LM95:
 1087 0484 8091 7400 		lds r24,116
 1088 0488 87FF      		sbrs r24,7
 1089 048a 00C0      		rjmp .L91
 430:../../../src/drivers/platform/micaZ/source/TUM_LKN_Sensorboard_driver.c **** 		payload[datapointer] = TWDR;
 1091               	.LM96:
 1092 048c 8091 7300 		lds r24,115
 1093 0490 8193      		st Z+,r24
 425:../../../src/drivers/platform/micaZ/source/TUM_LKN_Sensorboard_driver.c **** 	for(datapointer = 0; datapointer < length; datapointer++)
 1095               	.LM97:
 1096 0492 4F5F      		subi r20,lo8(-(1))
 1097               	.L86:
 1098 0494 4617      		cp r20,r22
 1099 0496 00F0      		brlo .L89
 431:../../../src/drivers/platform/micaZ/source/TUM_LKN_Sensorboard_driver.c **** 		//or should be read here???
 432:../../../src/drivers/platform/micaZ/source/TUM_LKN_Sensorboard_driver.c **** 	}
 433:../../../src/drivers/platform/micaZ/source/TUM_LKN_Sensorboard_driver.c **** 	TWCR = (1<<TWINT)|(1<<TWEN)|(1<<TWSTO);				//Stop condition
 1101               	.LM98:
 1102 0498 84E9      		ldi r24,lo8(-108)
 1103 049a 8093 7400 		sts 116,r24
 1104               	/* epilogue start */
 434:../../../src/drivers/platform/micaZ/source/TUM_LKN_Sensorboard_driver.c **** }
 1106               	.LM99:
 1107 049e 0895      		ret
 1112               	.Lscope14:
 1114               		.stabd	78,0,0
 1116               	.global	i2cAction
 1118               	i2cAction:
 1119               		.stabd	46,0,0
 435:../../../src/drivers/platform/micaZ/source/TUM_LKN_Sensorboard_driver.c **** 
 436:../../../src/drivers/platform/micaZ/source/TUM_LKN_Sensorboard_driver.c **** 
 437:../../../src/drivers/platform/micaZ/source/TUM_LKN_Sensorboard_driver.c **** 
 438:../../../src/drivers/platform/micaZ/source/TUM_LKN_Sensorboard_driver.c **** void i2cAction()
 439:../../../src/drivers/platform/micaZ/source/TUM_LKN_Sensorboard_driver.c **** {
 1121               	.LM100:
 1122               	.LFBB15:
 1123               	/* prologue: function */
 1124               	/* frame size = 0 */
 440:../../../src/drivers/platform/micaZ/source/TUM_LKN_Sensorboard_driver.c **** 	if( i2cDataDirection == i2cWrite )
 1126               	.LM101:
 1127 04a0 8091 0000 		lds r24,i2cDataDirection
 1128 04a4 8823      		tst r24
 1129 04a6 01F4      		brne .L96
 441:../../../src/drivers/platform/micaZ/source/TUM_LKN_Sensorboard_driver.c **** 	{
 442:../../../src/drivers/platform/micaZ/source/TUM_LKN_Sensorboard_driver.c **** 		TWI_write(i2cDestination, i2cDataLen, i2cData);
 1131               	.LM102:
 1132 04a8 8091 0000 		lds r24,i2cDestination
 1133 04ac 6091 0000 		lds r22,i2cDataLen
 1134 04b0 40E0      		ldi r20,lo8(i2cData)
 1135 04b2 50E0      		ldi r21,hi8(i2cData)
 1136 04b4 0E94 0000 		call TWI_write
 1137 04b8 0895      		ret
 1138               	.L96:
 443:../../../src/drivers/platform/micaZ/source/TUM_LKN_Sensorboard_driver.c **** 	}
 444:../../../src/drivers/platform/micaZ/source/TUM_LKN_Sensorboard_driver.c **** 	else
 445:../../../src/drivers/platform/micaZ/source/TUM_LKN_Sensorboard_driver.c **** 	{
 446:../../../src/drivers/platform/micaZ/source/TUM_LKN_Sensorboard_driver.c **** 		TWI_read(i2cDestination, i2cDataLen, i2cData);
 1140               	.LM103:
 1141 04ba 8091 0000 		lds r24,i2cDestination
 1142 04be 6091 0000 		lds r22,i2cDataLen
 1143 04c2 40E0      		ldi r20,lo8(i2cData)
 1144 04c4 50E0      		ldi r21,hi8(i2cData)
 1145 04c6 0E94 0000 		call TWI_read
 1146 04ca 0895      		ret
 1148               	.Lscope15:
 1150               		.stabd	78,0,0
 1152               	.global	setLeds
 1154               	setLeds:
 1155               		.stabd	46,0,0
 193:../../../src/drivers/platform/micaZ/source/TUM_LKN_Sensorboard_driver.c **** {
 1157               	.LM104:
 1158               	.LFBB16:
 1159               	/* prologue: function */
 1160               	/* frame size = 0 */
 195:../../../src/drivers/platform/micaZ/source/TUM_LKN_Sensorboard_driver.c **** 	i2cDataLen = 6;
 1162               	.LM105:
 1163 04cc 86E0      		ldi r24,lo8(6)
 1164 04ce 8093 0000 		sts i2cDataLen,r24
 196:../../../src/drivers/platform/micaZ/source/TUM_LKN_Sensorboard_driver.c **** 	i2cData[0] = REG_LED_PSC0 | REG_LED_AUTOINCREMENT;
 1166               	.LM106:
 1167 04d2 81E1      		ldi r24,lo8(17)
 1168 04d4 8093 0000 		sts i2cData,r24
 197:../../../src/drivers/platform/micaZ/source/TUM_LKN_Sensorboard_driver.c **** 	i2cData[1] = m_prescaler[ 0 ];
 1170               	.LM107:
 1171 04d8 8091 0000 		lds r24,m_prescaler
 1172 04dc 8093 0000 		sts i2cData+1,r24
 198:../../../src/drivers/platform/micaZ/source/TUM_LKN_Sensorboard_driver.c **** 	i2cData[2] = m_pwm[ 0 ];
 1174               	.LM108:
 1175 04e0 8091 0000 		lds r24,m_pwm
 1176 04e4 8093 0000 		sts i2cData+2,r24
 199:../../../src/drivers/platform/micaZ/source/TUM_LKN_Sensorboard_driver.c **** 	i2cData[3] = m_prescaler[ 1 ];
 1178               	.LM109:
 1179 04e8 8091 0000 		lds r24,m_prescaler+1
 1180 04ec 8093 0000 		sts i2cData+3,r24
 200:../../../src/drivers/platform/micaZ/source/TUM_LKN_Sensorboard_driver.c **** 	i2cData[4] = m_pwm[ 1 ];
 1182               	.LM110:
 1183 04f0 8091 0000 		lds r24,m_pwm+1
 1184 04f4 8093 0000 		sts i2cData+4,r24
 201:../../../src/drivers/platform/micaZ/source/TUM_LKN_Sensorboard_driver.c **** 	i2cData[5] = m_ledstate;
 1186               	.LM111:
 1187 04f8 8091 0000 		lds r24,m_ledstate
 1188 04fc 8093 0000 		sts i2cData+5,r24
 202:../../../src/drivers/platform/micaZ/source/TUM_LKN_Sensorboard_driver.c **** 	i2cDataDirection = i2cWrite;
 1190               	.LM112:
 1191 0500 1092 0000 		sts i2cDataDirection,__zero_reg__
 203:../../../src/drivers/platform/micaZ/source/TUM_LKN_Sensorboard_driver.c **** 	i2cDestination = PCA9533;
 1193               	.LM113:
 1194 0504 86EC      		ldi r24,lo8(198)
 1195 0506 90E0      		ldi r25,hi8(198)
 1196 0508 9093 0000 		sts (i2cDestination)+1,r25
 1197 050c 8093 0000 		sts i2cDestination,r24
 205:../../../src/drivers/platform/micaZ/source/TUM_LKN_Sensorboard_driver.c **** 	i2cAction();
 1199               	.LM114:
 1200 0510 0E94 0000 		call i2cAction
 1201               	/* epilogue start */
 206:../../../src/drivers/platform/micaZ/source/TUM_LKN_Sensorboard_driver.c **** }
 1203               	.LM115:
 1204 0514 0895      		ret
 1206               	.Lscope16:
 1208               		.stabd	78,0,0
 1211               	.global	TUM_LKN_Sensorboard_greenBlink
 1213               	TUM_LKN_Sensorboard_greenBlink:
 1214               		.stabd	46,0,0
 369:../../../src/drivers/platform/micaZ/source/TUM_LKN_Sensorboard_driver.c **** void TUM_LKN_Sensorboard_greenBlink( uint8_t ctl ) 	{ setLedMode( 2, 0x02 | (ctl & 0x01) ); setLeds
 1216               	.LM116:
 1217               	.LFBB17:
 1218               	/* prologue: function */
 1219               	/* frame size = 0 */
 1220               	.LBB82:
 1221               	.LBB83:
 214:../../../src/drivers/platform/micaZ/source/TUM_LKN_Sensorboard_driver.c **** 	m_ledstate |= (mode << led) & (0x03 << led);		// and write the new value
 1223               	.LM117:
 1224 0516 8170      		andi r24,lo8(1)
 1225 0518 8260      		ori r24,lo8(2)
 1226 051a 8295      		swap r24
 1227 051c 807F      		andi r24,0xf0
 1228 051e 9091 0000 		lds r25,m_ledstate
 1229 0522 9F7C      		andi r25,lo8(-49)
 1230 0524 892B      		or r24,r25
 1231 0526 8093 0000 		sts m_ledstate,r24
 1232               	.LBE83:
 1233               	.LBE82:
 369:../../../src/drivers/platform/micaZ/source/TUM_LKN_Sensorboard_driver.c **** void TUM_LKN_Sensorboard_greenBlink( uint8_t ctl ) 	{ setLedMode( 2, 0x02 | (ctl & 0x01) ); setLeds
 1235               	.LM118:
 1236 052a 0E94 0000 		call setLeds
 1237               	/* epilogue start */
 1238 052e 0895      		ret
 1240               	.Lscope17:
 1242               		.stabd	78,0,0
 1244               	.global	TUM_LKN_Sensorboard_greenToggle
 1246               	TUM_LKN_Sensorboard_greenToggle:
 1247               		.stabd	46,0,0
 368:../../../src/drivers/platform/micaZ/source/TUM_LKN_Sensorboard_driver.c **** void TUM_LKN_Sensorboard_greenToggle() 					{ setLedMode( 2, getLedMode( 2 ) ^ 0x01 ); setLeds(); }
 1249               	.LM119:
 1250               	.LFBB18:
 1251               	/* prologue: function */
 1252               	/* frame size = 0 */
 1253               	.LBB84:
 1254               	.LBB85:
 222:../../../src/drivers/platform/micaZ/source/TUM_LKN_Sensorboard_driver.c **** 	return( (m_ledstate & (0x03 << led)) >> led );	// return the bits corresponding to the LED
 1256               	.LM120:
 1257 0530 8091 0000 		lds r24,m_ledstate
 1258               	.LBE85:
 1259               	.LBE84:
 1260               	.LBB86:
 1261               	.LBB87:
 214:../../../src/drivers/platform/micaZ/source/TUM_LKN_Sensorboard_driver.c **** 	m_ledstate |= (mode << led) & (0x03 << led);		// and write the new value
 1263               	.LM121:
 1264 0534 282F      		mov r18,r24
 1265 0536 30E0      		ldi r19,lo8(0)
 1266 0538 2073      		andi r18,lo8(48)
 1267 053a 3070      		andi r19,hi8(48)
 1268 053c 94E0      		ldi r25,4
 1269 053e 3595      	1:	asr r19
 1270 0540 2795      		ror r18
 1271 0542 9A95      		dec r25
 1272 0544 01F4      		brne 1b
 1273 0546 91E0      		ldi r25,lo8(1)
 1274 0548 9227      		eor r25,r18
 1275 054a 9295      		swap r25
 1276 054c 907F      		andi r25,0xf0
 1277 054e 9073      		andi r25,lo8(48)
 1278 0550 8F7C      		andi r24,lo8(-49)
 1279 0552 982B      		or r25,r24
 1280 0554 9093 0000 		sts m_ledstate,r25
 1281               	.LBE87:
 1282               	.LBE86:
 368:../../../src/drivers/platform/micaZ/source/TUM_LKN_Sensorboard_driver.c **** void TUM_LKN_Sensorboard_greenToggle() 					{ setLedMode( 2, getLedMode( 2 ) ^ 0x01 ); setLeds(); }
 1284               	.LM122:
 1285 0558 0E94 0000 		call setLeds
 1286               	/* epilogue start */
 1287 055c 0895      		ret
 1289               	.Lscope18:
 1291               		.stabd	78,0,0
 1293               	.global	TUM_LKN_Sensorboard_greenOff
 1295               	TUM_LKN_Sensorboard_greenOff:
 1296               		.stabd	46,0,0
 367:../../../src/drivers/platform/micaZ/source/TUM_LKN_Sensorboard_driver.c **** void TUM_LKN_Sensorboard_greenOff() 						{ setLedMode( 2, REG_LED_OFF ); setLeds(); }
 1298               	.LM123:
 1299               	.LFBB19:
 1300               	/* prologue: function */
 1301               	/* frame size = 0 */
 1302               	.LBB88:
 1303               	.LBB89:
 214:../../../src/drivers/platform/micaZ/source/TUM_LKN_Sensorboard_driver.c **** 	m_ledstate |= (mode << led) & (0x03 << led);		// and write the new value
 1305               	.LM124:
 1306 055e 8091 0000 		lds r24,m_ledstate
 1307 0562 8F7C      		andi r24,lo8(-49)
 1308 0564 8093 0000 		sts m_ledstate,r24
 1309               	.LBE89:
 1310               	.LBE88:
 367:../../../src/drivers/platform/micaZ/source/TUM_LKN_Sensorboard_driver.c **** void TUM_LKN_Sensorboard_greenOff() 						{ setLedMode( 2, REG_LED_OFF ); setLeds(); }
 1312               	.LM125:
 1313 0568 0E94 0000 		call setLeds
 1314               	/* epilogue start */
 1315 056c 0895      		ret
 1317               	.Lscope19:
 1319               		.stabd	78,0,0
 1321               	.global	TUM_LKN_Sensorboard_greenOn
 1323               	TUM_LKN_Sensorboard_greenOn:
 1324               		.stabd	46,0,0
 366:../../../src/drivers/platform/micaZ/source/TUM_LKN_Sensorboard_driver.c **** void TUM_LKN_Sensorboard_greenOn() 							{ setLedMode( 2, REG_LED_ON ); setLeds(); }
 1326               	.LM126:
 1327               	.LFBB20:
 1328               	/* prologue: function */
 1329               	/* frame size = 0 */
 1330               	.LBB90:
 1331               	.LBB91:
 214:../../../src/drivers/platform/micaZ/source/TUM_LKN_Sensorboard_driver.c **** 	m_ledstate |= (mode << led) & (0x03 << led);		// and write the new value
 1333               	.LM127:
 1334 056e 8091 0000 		lds r24,m_ledstate
 1335 0572 8F7C      		andi r24,lo8(-49)
 1336 0574 8061      		ori r24,lo8(16)
 1337 0576 8093 0000 		sts m_ledstate,r24
 1338               	.LBE91:
 1339               	.LBE90:
 366:../../../src/drivers/platform/micaZ/source/TUM_LKN_Sensorboard_driver.c **** void TUM_LKN_Sensorboard_greenOn() 							{ setLedMode( 2, REG_LED_ON ); setLeds(); }
 1341               	.LM128:
 1342 057a 0E94 0000 		call setLeds
 1343               	/* epilogue start */
 1344 057e 0895      		ret
 1346               	.Lscope20:
 1348               		.stabd	78,0,0
 1351               	.global	TUM_LKN_Sensorboard_yellowBlink
 1353               	TUM_LKN_Sensorboard_yellowBlink:
 1354               		.stabd	46,0,0
 364:../../../src/drivers/platform/micaZ/source/TUM_LKN_Sensorboard_driver.c **** void TUM_LKN_Sensorboard_yellowBlink( uint8_t ctl )	{ setLedMode( 1, 0x02 | (ctl & 0x01) ); setLeds
 1356               	.LM129:
 1357               	.LFBB21:
 1358               	/* prologue: function */
 1359               	/* frame size = 0 */
 1360               	.LBB92:
 1361               	.LBB93:
 214:../../../src/drivers/platform/micaZ/source/TUM_LKN_Sensorboard_driver.c **** 	m_ledstate |= (mode << led) & (0x03 << led);		// and write the new value
 1363               	.LM130:
 1364 0580 8170      		andi r24,lo8(1)
 1365 0582 8260      		ori r24,lo8(2)
 1366 0584 880F      		lsl r24
 1367 0586 880F      		lsl r24
 1368 0588 9091 0000 		lds r25,m_ledstate
 1369 058c 937F      		andi r25,lo8(-13)
 1370 058e 892B      		or r24,r25
 1371 0590 8093 0000 		sts m_ledstate,r24
 1372               	.LBE93:
 1373               	.LBE92:
 364:../../../src/drivers/platform/micaZ/source/TUM_LKN_Sensorboard_driver.c **** void TUM_LKN_Sensorboard_yellowBlink( uint8_t ctl )	{ setLedMode( 1, 0x02 | (ctl & 0x01) ); setLeds
 1375               	.LM131:
 1376 0594 0E94 0000 		call setLeds
 1377               	/* epilogue start */
 1378 0598 0895      		ret
 1380               	.Lscope21:
 1382               		.stabd	78,0,0
 1384               	.global	TUM_LKN_Sensorboard_yellowToggle
 1386               	TUM_LKN_Sensorboard_yellowToggle:
 1387               		.stabd	46,0,0
 363:../../../src/drivers/platform/micaZ/source/TUM_LKN_Sensorboard_driver.c **** void TUM_LKN_Sensorboard_yellowToggle() 					{ setLedMode( 1, getLedMode( 1 ) ^ 0x01 ); setLeds(); 
 1389               	.LM132:
 1390               	.LFBB22:
 1391               	/* prologue: function */
 1392               	/* frame size = 0 */
 1393               	.LBB94:
 1394               	.LBB95:
 222:../../../src/drivers/platform/micaZ/source/TUM_LKN_Sensorboard_driver.c **** 	return( (m_ledstate & (0x03 << led)) >> led );	// return the bits corresponding to the LED
 1396               	.LM133:
 1397 059a 8091 0000 		lds r24,m_ledstate
 1398               	.LBE95:
 1399               	.LBE94:
 1400               	.LBB96:
 1401               	.LBB97:
 214:../../../src/drivers/platform/micaZ/source/TUM_LKN_Sensorboard_driver.c **** 	m_ledstate |= (mode << led) & (0x03 << led);		// and write the new value
 1403               	.LM134:
 1404 059e 282F      		mov r18,r24
 1405 05a0 30E0      		ldi r19,lo8(0)
 1406 05a2 2C70      		andi r18,lo8(12)
 1407 05a4 3070      		andi r19,hi8(12)
 1408 05a6 3595      		asr r19
 1409 05a8 2795      		ror r18
 1410 05aa 3595      		asr r19
 1411 05ac 2795      		ror r18
 1412 05ae 91E0      		ldi r25,lo8(1)
 1413 05b0 9227      		eor r25,r18
 1414 05b2 990F      		lsl r25
 1415 05b4 990F      		lsl r25
 1416 05b6 9C70      		andi r25,lo8(12)
 1417 05b8 837F      		andi r24,lo8(-13)
 1418 05ba 982B      		or r25,r24
 1419 05bc 9093 0000 		sts m_ledstate,r25
 1420               	.LBE97:
 1421               	.LBE96:
 363:../../../src/drivers/platform/micaZ/source/TUM_LKN_Sensorboard_driver.c **** void TUM_LKN_Sensorboard_yellowToggle() 					{ setLedMode( 1, getLedMode( 1 ) ^ 0x01 ); setLeds(); 
 1423               	.LM135:
 1424 05c0 0E94 0000 		call setLeds
 1425               	/* epilogue start */
 1426 05c4 0895      		ret
 1428               	.Lscope22:
 1430               		.stabd	78,0,0
 1432               	.global	TUM_LKN_Sensorboard_yellowOff
 1434               	TUM_LKN_Sensorboard_yellowOff:
 1435               		.stabd	46,0,0
 362:../../../src/drivers/platform/micaZ/source/TUM_LKN_Sensorboard_driver.c **** void TUM_LKN_Sensorboard_yellowOff() 						{ setLedMode( 1, REG_LED_OFF ); setLeds(); }
 1437               	.LM136:
 1438               	.LFBB23:
 1439               	/* prologue: function */
 1440               	/* frame size = 0 */
 1441               	.LBB98:
 1442               	.LBB99:
 214:../../../src/drivers/platform/micaZ/source/TUM_LKN_Sensorboard_driver.c **** 	m_ledstate |= (mode << led) & (0x03 << led);		// and write the new value
 1444               	.LM137:
 1445 05c6 8091 0000 		lds r24,m_ledstate
 1446 05ca 837F      		andi r24,lo8(-13)
 1447 05cc 8093 0000 		sts m_ledstate,r24
 1448               	.LBE99:
 1449               	.LBE98:
 362:../../../src/drivers/platform/micaZ/source/TUM_LKN_Sensorboard_driver.c **** void TUM_LKN_Sensorboard_yellowOff() 						{ setLedMode( 1, REG_LED_OFF ); setLeds(); }
 1451               	.LM138:
 1452 05d0 0E94 0000 		call setLeds
 1453               	/* epilogue start */
 1454 05d4 0895      		ret
 1456               	.Lscope23:
 1458               		.stabd	78,0,0
 1460               	.global	TUM_LKN_Sensorboard_yellowOn
 1462               	TUM_LKN_Sensorboard_yellowOn:
 1463               		.stabd	46,0,0
 361:../../../src/drivers/platform/micaZ/source/TUM_LKN_Sensorboard_driver.c **** void TUM_LKN_Sensorboard_yellowOn() 						{ setLedMode( 1, REG_LED_ON ); setLeds(); }
 1465               	.LM139:
 1466               	.LFBB24:
 1467               	/* prologue: function */
 1468               	/* frame size = 0 */
 1469               	.LBB100:
 1470               	.LBB101:
 214:../../../src/drivers/platform/micaZ/source/TUM_LKN_Sensorboard_driver.c **** 	m_ledstate |= (mode << led) & (0x03 << led);		// and write the new value
 1472               	.LM140:
 1473 05d6 8091 0000 		lds r24,m_ledstate
 1474 05da 837F      		andi r24,lo8(-13)
 1475 05dc 8460      		ori r24,lo8(4)
 1476 05de 8093 0000 		sts m_ledstate,r24
 1477               	.LBE101:
 1478               	.LBE100:
 361:../../../src/drivers/platform/micaZ/source/TUM_LKN_Sensorboard_driver.c **** void TUM_LKN_Sensorboard_yellowOn() 						{ setLedMode( 1, REG_LED_ON ); setLeds(); }
 1480               	.LM141:
 1481 05e2 0E94 0000 		call setLeds
 1482               	/* epilogue start */
 1483 05e6 0895      		ret
 1485               	.Lscope24:
 1487               		.stabd	78,0,0
 1490               	.global	TUM_LKN_Sensorboard_redBlink
 1492               	TUM_LKN_Sensorboard_redBlink:
 1493               		.stabd	46,0,0
 359:../../../src/drivers/platform/micaZ/source/TUM_LKN_Sensorboard_driver.c **** void TUM_LKN_Sensorboard_redBlink( uint8_t ctl ) 		{ setLedMode( 0, 0x02 | (ctl & 0x01) ); setLeds(
 1495               	.LM142:
 1496               	.LFBB25:
 1497               	/* prologue: function */
 1498               	/* frame size = 0 */
 1499               	.LBB102:
 1500               	.LBB103:
 214:../../../src/drivers/platform/micaZ/source/TUM_LKN_Sensorboard_driver.c **** 	m_ledstate |= (mode << led) & (0x03 << led);		// and write the new value
 1502               	.LM143:
 1503 05e8 8170      		andi r24,lo8(1)
 1504 05ea 8260      		ori r24,lo8(2)
 1505 05ec 9091 0000 		lds r25,m_ledstate
 1506 05f0 9C7F      		andi r25,lo8(-4)
 1507 05f2 892B      		or r24,r25
 1508 05f4 8093 0000 		sts m_ledstate,r24
 1509               	.LBE103:
 1510               	.LBE102:
 359:../../../src/drivers/platform/micaZ/source/TUM_LKN_Sensorboard_driver.c **** void TUM_LKN_Sensorboard_redBlink( uint8_t ctl ) 		{ setLedMode( 0, 0x02 | (ctl & 0x01) ); setLeds(
 1512               	.LM144:
 1513 05f8 0E94 0000 		call setLeds
 1514               	/* epilogue start */
 1515 05fc 0895      		ret
 1517               	.Lscope25:
 1519               		.stabd	78,0,0
 1521               	.global	TUM_LKN_Sensorboard_redToggle
 1523               	TUM_LKN_Sensorboard_redToggle:
 1524               		.stabd	46,0,0
 358:../../../src/drivers/platform/micaZ/source/TUM_LKN_Sensorboard_driver.c **** void TUM_LKN_Sensorboard_redToggle() 						{ setLedMode( 0, getLedMode( 0 ) ^ 0x01 ); setLeds(); }
 1526               	.LM145:
 1527               	.LFBB26:
 1528               	/* prologue: function */
 1529               	/* frame size = 0 */
 1530               	.LBB104:
 1531               	.LBB105:
 222:../../../src/drivers/platform/micaZ/source/TUM_LKN_Sensorboard_driver.c **** 	return( (m_ledstate & (0x03 << led)) >> led );	// return the bits corresponding to the LED
 1533               	.LM146:
 1534 05fe 8091 0000 		lds r24,m_ledstate
 1535               	.LBE105:
 1536               	.LBE104:
 1537               	.LBB106:
 1538               	.LBB107:
 214:../../../src/drivers/platform/micaZ/source/TUM_LKN_Sensorboard_driver.c **** 	m_ledstate |= (mode << led) & (0x03 << led);		// and write the new value
 1540               	.LM147:
 1541 0602 982F      		mov r25,r24
 1542 0604 9370      		andi r25,lo8(3)
 1543 0606 21E0      		ldi r18,lo8(1)
 1544 0608 9227      		eor r25,r18
 1545 060a 8C7F      		andi r24,lo8(-4)
 1546 060c 982B      		or r25,r24
 1547 060e 9093 0000 		sts m_ledstate,r25
 1548               	.LBE107:
 1549               	.LBE106:
 358:../../../src/drivers/platform/micaZ/source/TUM_LKN_Sensorboard_driver.c **** void TUM_LKN_Sensorboard_redToggle() 						{ setLedMode( 0, getLedMode( 0 ) ^ 0x01 ); setLeds(); }
 1551               	.LM148:
 1552 0612 0E94 0000 		call setLeds
 1553               	/* epilogue start */
 1554 0616 0895      		ret
 1556               	.Lscope26:
 1558               		.stabd	78,0,0
 1560               	.global	TUM_LKN_Sensorboard_redOff
 1562               	TUM_LKN_Sensorboard_redOff:
 1563               		.stabd	46,0,0
 357:../../../src/drivers/platform/micaZ/source/TUM_LKN_Sensorboard_driver.c **** void TUM_LKN_Sensorboard_redOff() 							{ setLedMode( 0, REG_LED_OFF ); setLeds(); }
 1565               	.LM149:
 1566               	.LFBB27:
 1567               	/* prologue: function */
 1568               	/* frame size = 0 */
 1569               	.LBB108:
 1570               	.LBB109:
 214:../../../src/drivers/platform/micaZ/source/TUM_LKN_Sensorboard_driver.c **** 	m_ledstate |= (mode << led) & (0x03 << led);		// and write the new value
 1572               	.LM150:
 1573 0618 8091 0000 		lds r24,m_ledstate
 1574 061c 8C7F      		andi r24,lo8(-4)
 1575 061e 8093 0000 		sts m_ledstate,r24
 1576               	.LBE109:
 1577               	.LBE108:
 357:../../../src/drivers/platform/micaZ/source/TUM_LKN_Sensorboard_driver.c **** void TUM_LKN_Sensorboard_redOff() 							{ setLedMode( 0, REG_LED_OFF ); setLeds(); }
 1579               	.LM151:
 1580 0622 0E94 0000 		call setLeds
 1581               	/* epilogue start */
 1582 0626 0895      		ret
 1584               	.Lscope27:
 1586               		.stabd	78,0,0
 1588               	.global	TUM_LKN_Sensorboard_redOn
 1590               	TUM_LKN_Sensorboard_redOn:
 1591               		.stabd	46,0,0
 356:../../../src/drivers/platform/micaZ/source/TUM_LKN_Sensorboard_driver.c **** void TUM_LKN_Sensorboard_redOn() 							{ setLedMode( 0, REG_LED_ON ); setLeds(); }
 1593               	.LM152:
 1594               	.LFBB28:
 1595               	/* prologue: function */
 1596               	/* frame size = 0 */
 1597               	.LBB110:
 1598               	.LBB111:
 214:../../../src/drivers/platform/micaZ/source/TUM_LKN_Sensorboard_driver.c **** 	m_ledstate |= (mode << led) & (0x03 << led);		// and write the new value
 1600               	.LM153:
 1601 0628 8091 0000 		lds r24,m_ledstate
 1602 062c 8C7F      		andi r24,lo8(-4)
 1603 062e 8160      		ori r24,lo8(1)
 1604 0630 8093 0000 		sts m_ledstate,r24
 1605               	.LBE111:
 1606               	.LBE110:
 356:../../../src/drivers/platform/micaZ/source/TUM_LKN_Sensorboard_driver.c **** void TUM_LKN_Sensorboard_redOn() 							{ setLedMode( 0, REG_LED_ON ); setLeds(); }
 1608               	.LM154:
 1609 0634 0E94 0000 		call setLeds
 1610               	/* epilogue start */
 1611 0638 0895      		ret
 1613               	.Lscope28:
 1615               		.stabd	78,0,0
 1618               	.global	TUM_LKN_Sensorboard_laserBlink
 1620               	TUM_LKN_Sensorboard_laserBlink:
 1621               		.stabd	46,0,0
 354:../../../src/drivers/platform/micaZ/source/TUM_LKN_Sensorboard_driver.c **** void TUM_LKN_Sensorboard_laserBlink( uint8_t ctl ) 	{ setLedMode( 3, 0x02 | (ctl & 0x01) ); setLeds
 1623               	.LM155:
 1624               	.LFBB29:
 1625               	/* prologue: function */
 1626               	/* frame size = 0 */
 1627               	.LBB112:
 1628               	.LBB113:
 214:../../../src/drivers/platform/micaZ/source/TUM_LKN_Sensorboard_driver.c **** 	m_ledstate |= (mode << led) & (0x03 << led);		// and write the new value
 1630               	.LM156:
 1631 063a 8170      		andi r24,lo8(1)
 1632 063c 8260      		ori r24,lo8(2)
 1633 063e 8295      		swap r24
 1634 0640 880F      		lsl r24
 1635 0642 880F      		lsl r24
 1636 0644 807C      		andi r24,0xc0
 1637 0646 9091 0000 		lds r25,m_ledstate
 1638 064a 9F73      		andi r25,lo8(63)
 1639 064c 892B      		or r24,r25
 1640 064e 8093 0000 		sts m_ledstate,r24
 1641               	.LBE113:
 1642               	.LBE112:
 354:../../../src/drivers/platform/micaZ/source/TUM_LKN_Sensorboard_driver.c **** void TUM_LKN_Sensorboard_laserBlink( uint8_t ctl ) 	{ setLedMode( 3, 0x02 | (ctl & 0x01) ); setLeds
 1644               	.LM157:
 1645 0652 0E94 0000 		call setLeds
 1646               	/* epilogue start */
 1647 0656 0895      		ret
 1649               	.Lscope29:
 1651               		.stabd	78,0,0
 1653               	.global	TUM_LKN_Sensorboard_laserToggle
 1655               	TUM_LKN_Sensorboard_laserToggle:
 1656               		.stabd	46,0,0
 353:../../../src/drivers/platform/micaZ/source/TUM_LKN_Sensorboard_driver.c **** void TUM_LKN_Sensorboard_laserToggle() 					{ setLedMode( 3, getLedMode( 3 ) ^ 0x01 ); setLeds(); }
 1658               	.LM158:
 1659               	.LFBB30:
 1660               	/* prologue: function */
 1661               	/* frame size = 0 */
 1662               	.LBB114:
 1663               	.LBB115:
 222:../../../src/drivers/platform/micaZ/source/TUM_LKN_Sensorboard_driver.c **** 	return( (m_ledstate & (0x03 << led)) >> led );	// return the bits corresponding to the LED
 1665               	.LM159:
 1666 0658 8091 0000 		lds r24,m_ledstate
 1667               	.LBE115:
 1668               	.LBE114:
 1669               	.LBB116:
 1670               	.LBB117:
 214:../../../src/drivers/platform/micaZ/source/TUM_LKN_Sensorboard_driver.c **** 	m_ledstate |= (mode << led) & (0x03 << led);		// and write the new value
 1672               	.LM160:
 1673 065c 982F      		mov r25,r24
 1674 065e 9295      		swap r25
 1675 0660 9695      		lsr r25
 1676 0662 9695      		lsr r25
 1677 0664 9370      		andi r25,0x3
 1678 0666 21E0      		ldi r18,lo8(1)
 1679 0668 9227      		eor r25,r18
 1680 066a 9295      		swap r25
 1681 066c 990F      		lsl r25
 1682 066e 990F      		lsl r25
 1683 0670 907C      		andi r25,0xc0
 1684 0672 8F73      		andi r24,lo8(63)
 1685 0674 982B      		or r25,r24
 1686 0676 9093 0000 		sts m_ledstate,r25
 1687               	.LBE117:
 1688               	.LBE116:
 353:../../../src/drivers/platform/micaZ/source/TUM_LKN_Sensorboard_driver.c **** void TUM_LKN_Sensorboard_laserToggle() 					{ setLedMode( 3, getLedMode( 3 ) ^ 0x01 ); setLeds(); }
 1690               	.LM161:
 1691 067a 0E94 0000 		call setLeds
 1692               	/* epilogue start */
 1693 067e 0895      		ret
 1695               	.Lscope30:
 1697               		.stabd	78,0,0
 1699               	.global	TUM_LKN_Sensorboard_laserOff
 1701               	TUM_LKN_Sensorboard_laserOff:
 1702               		.stabd	46,0,0
 352:../../../src/drivers/platform/micaZ/source/TUM_LKN_Sensorboard_driver.c **** void TUM_LKN_Sensorboard_laserOff() 						{ setLedMode( 3, REG_LED_OFF ); setLeds(); }
 1704               	.LM162:
 1705               	.LFBB31:
 1706               	/* prologue: function */
 1707               	/* frame size = 0 */
 1708               	.LBB118:
 1709               	.LBB119:
 214:../../../src/drivers/platform/micaZ/source/TUM_LKN_Sensorboard_driver.c **** 	m_ledstate |= (mode << led) & (0x03 << led);		// and write the new value
 1711               	.LM163:
 1712 0680 8091 0000 		lds r24,m_ledstate
 1713 0684 8F73      		andi r24,lo8(63)
 1714 0686 8093 0000 		sts m_ledstate,r24
 1715               	.LBE119:
 1716               	.LBE118:
 352:../../../src/drivers/platform/micaZ/source/TUM_LKN_Sensorboard_driver.c **** void TUM_LKN_Sensorboard_laserOff() 						{ setLedMode( 3, REG_LED_OFF ); setLeds(); }
 1718               	.LM164:
 1719 068a 0E94 0000 		call setLeds
 1720               	/* epilogue start */
 1721 068e 0895      		ret
 1723               	.Lscope31:
 1725               		.stabd	78,0,0
 1727               	.global	TUM_LKN_Sensorboard_laserOn
 1729               	TUM_LKN_Sensorboard_laserOn:
 1730               		.stabd	46,0,0
 351:../../../src/drivers/platform/micaZ/source/TUM_LKN_Sensorboard_driver.c **** void TUM_LKN_Sensorboard_laserOn() 							{ setLedMode( 3, REG_LED_ON ); setLeds(); }
 1732               	.LM165:
 1733               	.LFBB32:
 1734               	/* prologue: function */
 1735               	/* frame size = 0 */
 1736               	.LBB120:
 1737               	.LBB121:
 214:../../../src/drivers/platform/micaZ/source/TUM_LKN_Sensorboard_driver.c **** 	m_ledstate |= (mode << led) & (0x03 << led);		// and write the new value
 1739               	.LM166:
 1740 0690 8091 0000 		lds r24,m_ledstate
 1741 0694 8F73      		andi r24,lo8(63)
 1742 0696 8064      		ori r24,lo8(64)
 1743 0698 8093 0000 		sts m_ledstate,r24
 1744               	.LBE121:
 1745               	.LBE120:
 351:../../../src/drivers/platform/micaZ/source/TUM_LKN_Sensorboard_driver.c **** void TUM_LKN_Sensorboard_laserOn() 							{ setLedMode( 3, REG_LED_ON ); setLeds(); }
 1747               	.LM167:
 1748 069c 0E94 0000 		call setLeds
 1749               	/* epilogue start */
 1750 06a0 0895      		ret
 1752               	.Lscope32:
 1754               		.stabd	78,0,0
 1757               	.global	readADC
 1759               	readADC:
 1760               		.stabd	46,0,0
 170:../../../src/drivers/platform/micaZ/source/TUM_LKN_Sensorboard_driver.c **** {
 1762               	.LM168:
 1763               	.LFBB33:
 1764 06a2 FF92      		push r15
 1765 06a4 0F93      		push r16
 1766 06a6 1F93      		push r17
 1767               	/* prologue: function */
 1768               	/* frame size = 0 */
 172:../../../src/drivers/platform/micaZ/source/TUM_LKN_Sensorboard_driver.c **** 	channel &= 0x03;
 1770               	.LM169:
 1771 06a8 8370      		andi r24,lo8(3)
 173:../../../src/drivers/platform/micaZ/source/TUM_LKN_Sensorboard_driver.c **** 	m_channel = channel;
 1773               	.LM170:
 1774 06aa 8093 0000 		sts m_channel,r24
 174:../../../src/drivers/platform/micaZ/source/TUM_LKN_Sensorboard_driver.c **** 	i2cDataDirection = i2cWrite;		// write to the i2c bus
 1776               	.LM171:
 1777 06ae 1092 0000 		sts i2cDataDirection,__zero_reg__
 175:../../../src/drivers/platform/micaZ/source/TUM_LKN_Sensorboard_driver.c **** 	i2cDataLen = 1;
 1779               	.LM172:
 1780 06b2 FF24      		clr r15
 1781 06b4 F394      		inc r15
 1782 06b6 F092 0000 		sts i2cDataLen,r15
 176:../../../src/drivers/platform/micaZ/source/TUM_LKN_Sensorboard_driver.c **** 	i2cData[ 0 ] = REG_ADC_FOURSE | REG_ADC_AOUTENABLE | channel;
 1784               	.LM173:
 1785 06ba 8064      		ori r24,lo8(64)
 1786 06bc 8093 0000 		sts i2cData,r24
 177:../../../src/drivers/platform/micaZ/source/TUM_LKN_Sensorboard_driver.c **** 	i2cDestination = PCF8591;
 1788               	.LM174:
 1789 06c0 00E9      		ldi r16,lo8(144)
 1790 06c2 10E0      		ldi r17,hi8(144)
 1791 06c4 1093 0000 		sts (i2cDestination)+1,r17
 1792 06c8 0093 0000 		sts i2cDestination,r16
 179:../../../src/drivers/platform/micaZ/source/TUM_LKN_Sensorboard_driver.c **** 	i2cAction();
 1794               	.LM175:
 1795 06cc 0E94 0000 		call i2cAction
 182:../../../src/drivers/platform/micaZ/source/TUM_LKN_Sensorboard_driver.c **** 	i2cDataDirection = i2cRead;	// read from the i2c bus
 1797               	.LM176:
 1798 06d0 F092 0000 		sts i2cDataDirection,r15
 183:../../../src/drivers/platform/micaZ/source/TUM_LKN_Sensorboard_driver.c **** 	i2cDataLen = 2;
 1800               	.LM177:
 1801 06d4 82E0      		ldi r24,lo8(2)
 1802 06d6 8093 0000 		sts i2cDataLen,r24
 184:../../../src/drivers/platform/micaZ/source/TUM_LKN_Sensorboard_driver.c **** 	i2cDestination = PCF8591;
 1804               	.LM178:
 1805 06da 1093 0000 		sts (i2cDestination)+1,r17
 1806 06de 0093 0000 		sts i2cDestination,r16
 186:../../../src/drivers/platform/micaZ/source/TUM_LKN_Sensorboard_driver.c **** 	i2cAction();
 1808               	.LM179:
 1809 06e2 0E94 0000 		call i2cAction
 1810               	/* epilogue start */
 187:../../../src/drivers/platform/micaZ/source/TUM_LKN_Sensorboard_driver.c **** }
 1812               	.LM180:
 1813 06e6 1F91      		pop r17
 1814 06e8 0F91      		pop r16
 1815 06ea FF90      		pop r15
 1816 06ec 0895      		ret
 1818               	.Lscope33:
 1820               		.stabd	78,0,0
 1823               	.global	TUM_LKN_Sensorboard_readChannel
 1825               	TUM_LKN_Sensorboard_readChannel:
 1826               		.stabd	46,0,0
 312:../../../src/drivers/platform/micaZ/source/TUM_LKN_Sensorboard_driver.c **** void TUM_LKN_Sensorboard_readChannel( uint8_t ch ) { readADC( ch ); }
 1828               	.LM181:
 1829               	.LFBB34:
 1830               	/* prologue: function */
 1831               	/* frame size = 0 */
 312:../../../src/drivers/platform/micaZ/source/TUM_LKN_Sensorboard_driver.c **** void TUM_LKN_Sensorboard_readChannel( uint8_t ch ) { readADC( ch ); }
 1833               	.LM182:
 1834 06ee 0E94 0000 		call readADC
 1835               	/* epilogue start */
 1836 06f2 0895      		ret
 1838               	.Lscope34:
 1840               		.stabd	78,0,0
 1842               	.global	TUM_LKN_Sensorboard_readChannel3
 1844               	TUM_LKN_Sensorboard_readChannel3:
 1845               		.stabd	46,0,0
 311:../../../src/drivers/platform/micaZ/source/TUM_LKN_Sensorboard_driver.c **** void TUM_LKN_Sensorboard_readChannel3() { readADC( 3 ); }
 1847               	.LM183:
 1848               	.LFBB35:
 1849               	/* prologue: function */
 1850               	/* frame size = 0 */
 311:../../../src/drivers/platform/micaZ/source/TUM_LKN_Sensorboard_driver.c **** void TUM_LKN_Sensorboard_readChannel3() { readADC( 3 ); }
 1852               	.LM184:
 1853 06f4 83E0      		ldi r24,lo8(3)
 1854 06f6 0E94 0000 		call readADC
 1855               	/* epilogue start */
 1856 06fa 0895      		ret
 1858               	.Lscope35:
 1860               		.stabd	78,0,0
 1862               	.global	TUM_LKN_Sensorboard_readChannel2
 1864               	TUM_LKN_Sensorboard_readChannel2:
 1865               		.stabd	46,0,0
 310:../../../src/drivers/platform/micaZ/source/TUM_LKN_Sensorboard_driver.c **** void TUM_LKN_Sensorboard_readChannel2() { readADC( 2 ); }
 1867               	.LM185:
 1868               	.LFBB36:
 1869               	/* prologue: function */
 1870               	/* frame size = 0 */
 310:../../../src/drivers/platform/micaZ/source/TUM_LKN_Sensorboard_driver.c **** void TUM_LKN_Sensorboard_readChannel2() { readADC( 2 ); }
 1872               	.LM186:
 1873 06fc 82E0      		ldi r24,lo8(2)
 1874 06fe 0E94 0000 		call readADC
 1875               	/* epilogue start */
 1876 0702 0895      		ret
 1878               	.Lscope36:
 1880               		.stabd	78,0,0
 1882               	.global	TUM_LKN_Sensorboard_readChannel1
 1884               	TUM_LKN_Sensorboard_readChannel1:
 1885               		.stabd	46,0,0
 309:../../../src/drivers/platform/micaZ/source/TUM_LKN_Sensorboard_driver.c **** void TUM_LKN_Sensorboard_readChannel1() { readADC( 1 ); }
 1887               	.LM187:
 1888               	.LFBB37:
 1889               	/* prologue: function */
 1890               	/* frame size = 0 */
 309:../../../src/drivers/platform/micaZ/source/TUM_LKN_Sensorboard_driver.c **** void TUM_LKN_Sensorboard_readChannel1() { readADC( 1 ); }
 1892               	.LM188:
 1893 0704 81E0      		ldi r24,lo8(1)
 1894 0706 0E94 0000 		call readADC
 1895               	/* epilogue start */
 1896 070a 0895      		ret
 1898               	.Lscope37:
 1900               		.stabd	78,0,0
 1902               	.global	TUM_LKN_Sensorboard_readPhotoVoltage
 1904               	TUM_LKN_Sensorboard_readPhotoVoltage:
 1905               		.stabd	46,0,0
 308:../../../src/drivers/platform/micaZ/source/TUM_LKN_Sensorboard_driver.c **** void TUM_LKN_Sensorboard_readPhotoVoltage() { readADC( 0 ); }
 1907               	.LM189:
 1908               	.LFBB38:
 1909               	/* prologue: function */
 1910               	/* frame size = 0 */
 308:../../../src/drivers/platform/micaZ/source/TUM_LKN_Sensorboard_driver.c **** void TUM_LKN_Sensorboard_readPhotoVoltage() { readADC( 0 ); }
 1912               	.LM190:
 1913 070c 80E0      		ldi r24,lo8(0)
 1914 070e 0E94 0000 		call readADC
 1915               	/* epilogue start */
 1916 0712 0895      		ret
 1918               	.Lscope38:
 1920               		.stabd	78,0,0
 1923               	.global	writeDAC
 1925               	writeDAC:
 1926               		.stabd	46,0,0
 157:../../../src/drivers/platform/micaZ/source/TUM_LKN_Sensorboard_driver.c **** {
 1928               	.LM191:
 1929               	.LFBB39:
 1930               	/* prologue: function */
 1931               	/* frame size = 0 */
 158:../../../src/drivers/platform/micaZ/source/TUM_LKN_Sensorboard_driver.c **** 	i2cDataDirection = i2cWrite;		// write to the i2c bus
 1933               	.LM192:
 1934 0714 1092 0000 		sts i2cDataDirection,__zero_reg__
 159:../../../src/drivers/platform/micaZ/source/TUM_LKN_Sensorboard_driver.c **** 	i2cDataLen = 2;
 1936               	.LM193:
 1937 0718 92E0      		ldi r25,lo8(2)
 1938 071a 9093 0000 		sts i2cDataLen,r25
 160:../../../src/drivers/platform/micaZ/source/TUM_LKN_Sensorboard_driver.c **** 	i2cData[ 0 ] = REG_ADC_FOURSE | REG_ADC_AOUTENABLE;
 1940               	.LM194:
 1941 071e 90E4      		ldi r25,lo8(64)
 1942 0720 9093 0000 		sts i2cData,r25
 161:../../../src/drivers/platform/micaZ/source/TUM_LKN_Sensorboard_driver.c **** 	i2cData[ 1 ] = value;
 1944               	.LM195:
 1945 0724 8093 0000 		sts i2cData+1,r24
 162:../../../src/drivers/platform/micaZ/source/TUM_LKN_Sensorboard_driver.c **** 	i2cDestination = PCF8591;
 1947               	.LM196:
 1948 0728 80E9      		ldi r24,lo8(144)
 1949 072a 90E0      		ldi r25,hi8(144)
 1950 072c 9093 0000 		sts (i2cDestination)+1,r25
 1951 0730 8093 0000 		sts i2cDestination,r24
 164:../../../src/drivers/platform/micaZ/source/TUM_LKN_Sensorboard_driver.c **** 	i2cAction();
 1953               	.LM197:
 1954 0734 0E94 0000 		call i2cAction
 1955               	/* epilogue start */
 165:../../../src/drivers/platform/micaZ/source/TUM_LKN_Sensorboard_driver.c **** }
 1957               	.LM198:
 1958 0738 0895      		ret
 1960               	.Lscope39:
 1962               		.stabd	78,0,0
 1965               	.global	TUM_LKN_Sensorboard_writeValue
 1967               	TUM_LKN_Sensorboard_writeValue:
 1968               		.stabd	46,0,0
 313:../../../src/drivers/platform/micaZ/source/TUM_LKN_Sensorboard_driver.c **** void TUM_LKN_Sensorboard_writeValue( double voltage ) { writeDAC( V2S( voltage ) ); }
 1970               	.LM199:
 1971               	.LFBB40:
 1972               	/* prologue: function */
 1973               	/* frame size = 0 */
 313:../../../src/drivers/platform/micaZ/source/TUM_LKN_Sensorboard_driver.c **** void TUM_LKN_Sensorboard_writeValue( double voltage ) { writeDAC( V2S( voltage ) ); }
 1975               	.LM200:
 1976 073a 20E0      		ldi r18,lo8(0x43800000)
 1977 073c 30E0      		ldi r19,hi8(0x43800000)
 1978 073e 40E8      		ldi r20,hlo8(0x43800000)
 1979 0740 53E4      		ldi r21,hhi8(0x43800000)
 1980 0742 0E94 0000 		call __mulsf3
 1981 0746 2091 0000 		lds r18,m_vbatt
 1982 074a 3091 0000 		lds r19,(m_vbatt)+1
 1983 074e 4091 0000 		lds r20,(m_vbatt)+2
 1984 0752 5091 0000 		lds r21,(m_vbatt)+3
 1985 0756 0E94 0000 		call __divsf3
 1986 075a 0E94 0000 		call __fixunssfsi
 1987 075e DC01      		movw r26,r24
 1988 0760 CB01      		movw r24,r22
 1989 0762 0E94 0000 		call writeDAC
 1990               	/* epilogue start */
 1991 0766 0895      		ret
 1993               	.Lscope40:
 1995               		.stabd	78,0,0
 1997               	.global	readIOs
 1999               	readIOs:
 2000               		.stabd	46,0,0
 146:../../../src/drivers/platform/micaZ/source/TUM_LKN_Sensorboard_driver.c **** {
 2002               	.LM201:
 2003               	.LFBB41:
 2004               	/* prologue: function */
 2005               	/* frame size = 0 */
 147:../../../src/drivers/platform/micaZ/source/TUM_LKN_Sensorboard_driver.c **** 	i2cDataDirection = i2cRead;
 2007               	.LM202:
 2008 0768 81E0      		ldi r24,lo8(1)
 2009 076a 8093 0000 		sts i2cDataDirection,r24
 148:../../../src/drivers/platform/micaZ/source/TUM_LKN_Sensorboard_driver.c **** 	i2cDataLen = 1;
 2011               	.LM203:
 2012 076e 8093 0000 		sts i2cDataLen,r24
 149:../../../src/drivers/platform/micaZ/source/TUM_LKN_Sensorboard_driver.c **** 	i2cDestination = PCF8574;
 2014               	.LM204:
 2015 0772 80E4      		ldi r24,lo8(64)
 2016 0774 90E0      		ldi r25,hi8(64)
 2017 0776 9093 0000 		sts (i2cDestination)+1,r25
 2018 077a 8093 0000 		sts i2cDestination,r24
 151:../../../src/drivers/platform/micaZ/source/TUM_LKN_Sensorboard_driver.c **** 	i2cAction();
 2020               	.LM205:
 2021 077e 0E94 0000 		call i2cAction
 2022               	/* epilogue start */
 152:../../../src/drivers/platform/micaZ/source/TUM_LKN_Sensorboard_driver.c **** }
 2024               	.LM206:
 2025 0782 0895      		ret
 2027               	.Lscope41:
 2029               		.stabd	78,0,0
 2032               	.global	writeIOs
 2034               	writeIOs:
 2035               		.stabd	46,0,0
 134:../../../src/drivers/platform/micaZ/source/TUM_LKN_Sensorboard_driver.c **** {
 2037               	.LM207:
 2038               	.LFBB42:
 2039               	/* prologue: function */
 2040               	/* frame size = 0 */
 135:../../../src/drivers/platform/micaZ/source/TUM_LKN_Sensorboard_driver.c **** 	i2cData[ 0 ] = m_lastxs = data;
 2042               	.LM208:
 2043 0784 8093 0000 		sts m_lastxs,r24
 2044 0788 8093 0000 		sts i2cData,r24
 136:../../../src/drivers/platform/micaZ/source/TUM_LKN_Sensorboard_driver.c **** 	i2cDataLen = 1;
 2046               	.LM209:
 2047 078c 81E0      		ldi r24,lo8(1)
 2048 078e 8093 0000 		sts i2cDataLen,r24
 137:../../../src/drivers/platform/micaZ/source/TUM_LKN_Sensorboard_driver.c **** 	i2cDataDirection = i2cWrite;
 2050               	.LM210:
 2051 0792 1092 0000 		sts i2cDataDirection,__zero_reg__
 138:../../../src/drivers/platform/micaZ/source/TUM_LKN_Sensorboard_driver.c **** 	i2cDestination = PCF8574;
 2053               	.LM211:
 2054 0796 80E4      		ldi r24,lo8(64)
 2055 0798 90E0      		ldi r25,hi8(64)
 2056 079a 9093 0000 		sts (i2cDestination)+1,r25
 2057 079e 8093 0000 		sts i2cDestination,r24
 140:../../../src/drivers/platform/micaZ/source/TUM_LKN_Sensorboard_driver.c **** 	i2cAction();
 2059               	.LM212:
 2060 07a2 0E94 0000 		call i2cAction
 2061               	/* epilogue start */
 141:../../../src/drivers/platform/micaZ/source/TUM_LKN_Sensorboard_driver.c **** }
 2063               	.LM213:
 2064 07a6 0895      		ret
 2066               	.Lscope42:
 2068               		.stabd	78,0,0
 2070               	.global	TUM_LKN_Sensorboard_halfStepCW
 2072               	TUM_LKN_Sensorboard_halfStepCW:
 2073               		.stabd	46,0,0
 299:../../../src/drivers/platform/micaZ/source/TUM_LKN_Sensorboard_driver.c **** {
 2075               	.LM214:
 2076               	.LFBB43:
 2077               	/* prologue: function */
 2078               	/* frame size = 0 */
 300:../../../src/drivers/platform/micaZ/source/TUM_LKN_Sensorboard_driver.c **** 	writeIOs( setBits( m_lastxs, 0x0F, steps[ m_currentstep ] ) );
 2080               	.LM215:
 2081 07a8 8091 0000 		lds r24,m_currentstep
 2082 07ac E0E0      		ldi r30,lo8(steps)
 2083 07ae F0E0      		ldi r31,hi8(steps)
 2084 07b0 E80F      		add r30,r24
 2085 07b2 F11D      		adc r31,__zero_reg__
 2086 07b4 8091 0000 		lds r24,m_lastxs
 2087 07b8 8F70      		andi r24,lo8(15)
 2088 07ba 9081      		ld r25,Z
 2089 07bc 892B      		or r24,r25
 2090 07be 0E94 0000 		call writeIOs
 301:../../../src/drivers/platform/micaZ/source/TUM_LKN_Sensorboard_driver.c **** 	m_currentstep = (m_currentstep + 7) & 0x07;
 2092               	.LM216:
 2093 07c2 8091 0000 		lds r24,m_currentstep
 2094 07c6 895F      		subi r24,lo8(-(7))
 2095 07c8 8770      		andi r24,lo8(7)
 2096 07ca 8093 0000 		sts m_currentstep,r24
 2097               	/* epilogue start */
 302:../../../src/drivers/platform/micaZ/source/TUM_LKN_Sensorboard_driver.c **** }
 2099               	.LM217:
 2100 07ce 0895      		ret
 2102               	.Lscope43:
 2104               		.stabd	78,0,0
 2106               	.global	TUM_LKN_Sensorboard_halfStepCCW
 2108               	TUM_LKN_Sensorboard_halfStepCCW:
 2109               		.stabd	46,0,0
 291:../../../src/drivers/platform/micaZ/source/TUM_LKN_Sensorboard_driver.c **** {
 2111               	.LM218:
 2112               	.LFBB44:
 2113               	/* prologue: function */
 2114               	/* frame size = 0 */
 292:../../../src/drivers/platform/micaZ/source/TUM_LKN_Sensorboard_driver.c **** 	writeIOs( setBits( m_lastxs, 0x0F, steps[ m_currentstep ] ) );
 2116               	.LM219:
 2117 07d0 8091 0000 		lds r24,m_currentstep
 2118 07d4 E0E0      		ldi r30,lo8(steps)
 2119 07d6 F0E0      		ldi r31,hi8(steps)
 2120 07d8 E80F      		add r30,r24
 2121 07da F11D      		adc r31,__zero_reg__
 2122 07dc 8091 0000 		lds r24,m_lastxs
 2123 07e0 8F70      		andi r24,lo8(15)
 2124 07e2 9081      		ld r25,Z
 2125 07e4 892B      		or r24,r25
 2126 07e6 0E94 0000 		call writeIOs
 293:../../../src/drivers/platform/micaZ/source/TUM_LKN_Sensorboard_driver.c **** 	m_currentstep = (m_currentstep + 1) & 0x07;
 2128               	.LM220:
 2129 07ea 8091 0000 		lds r24,m_currentstep
 2130 07ee 8F5F      		subi r24,lo8(-(1))
 2131 07f0 8770      		andi r24,lo8(7)
 2132 07f2 8093 0000 		sts m_currentstep,r24
 2133               	/* epilogue start */
 294:../../../src/drivers/platform/micaZ/source/TUM_LKN_Sensorboard_driver.c **** }
 2135               	.LM221:
 2136 07f6 0895      		ret
 2138               	.Lscope44:
 2140               		.stabd	78,0,0
 2142               	.global	TUM_LKN_Sensorboard_stepCW
 2144               	TUM_LKN_Sensorboard_stepCW:
 2145               		.stabd	46,0,0
 283:../../../src/drivers/platform/micaZ/source/TUM_LKN_Sensorboard_driver.c **** {
 2147               	.LM222:
 2148               	.LFBB45:
 2149               	/* prologue: function */
 2150               	/* frame size = 0 */
 284:../../../src/drivers/platform/micaZ/source/TUM_LKN_Sensorboard_driver.c **** 	writeIOs( setBits( m_lastxs, 0x0F, steps[ m_currentstep ] ) );
 2152               	.LM223:
 2153 07f8 8091 0000 		lds r24,m_currentstep
 2154 07fc E0E0      		ldi r30,lo8(steps)
 2155 07fe F0E0      		ldi r31,hi8(steps)
 2156 0800 E80F      		add r30,r24
 2157 0802 F11D      		adc r31,__zero_reg__
 2158 0804 8091 0000 		lds r24,m_lastxs
 2159 0808 8F70      		andi r24,lo8(15)
 2160 080a 9081      		ld r25,Z
 2161 080c 892B      		or r24,r25
 2162 080e 0E94 0000 		call writeIOs
 285:../../../src/drivers/platform/micaZ/source/TUM_LKN_Sensorboard_driver.c **** 	m_currentstep = (m_currentstep + 6) & 0x06;
 2164               	.LM224:
 2165 0812 8091 0000 		lds r24,m_currentstep
 2166 0816 8A5F      		subi r24,lo8(-(6))
 2167 0818 8670      		andi r24,lo8(6)
 2168 081a 8093 0000 		sts m_currentstep,r24
 2169               	/* epilogue start */
 286:../../../src/drivers/platform/micaZ/source/TUM_LKN_Sensorboard_driver.c **** }
 2171               	.LM225:
 2172 081e 0895      		ret
 2174               	.Lscope45:
 2176               		.stabd	78,0,0
 2178               	.global	TUM_LKN_Sensorboard_stepCCW
 2180               	TUM_LKN_Sensorboard_stepCCW:
 2181               		.stabd	46,0,0
 275:../../../src/drivers/platform/micaZ/source/TUM_LKN_Sensorboard_driver.c **** {
 2183               	.LM226:
 2184               	.LFBB46:
 2185               	/* prologue: function */
 2186               	/* frame size = 0 */
 276:../../../src/drivers/platform/micaZ/source/TUM_LKN_Sensorboard_driver.c **** 	writeIOs( setBits( m_lastxs, 0x0F, steps[ m_currentstep ] ) );
 2188               	.LM227:
 2189 0820 8091 0000 		lds r24,m_currentstep
 2190 0824 E0E0      		ldi r30,lo8(steps)
 2191 0826 F0E0      		ldi r31,hi8(steps)
 2192 0828 E80F      		add r30,r24
 2193 082a F11D      		adc r31,__zero_reg__
 2194 082c 8091 0000 		lds r24,m_lastxs
 2195 0830 8F70      		andi r24,lo8(15)
 2196 0832 9081      		ld r25,Z
 2197 0834 892B      		or r24,r25
 2198 0836 0E94 0000 		call writeIOs
 277:../../../src/drivers/platform/micaZ/source/TUM_LKN_Sensorboard_driver.c **** 	m_currentstep = (m_currentstep + 2) & 0x06;
 2200               	.LM228:
 2201 083a 8091 0000 		lds r24,m_currentstep
 2202 083e 8E5F      		subi r24,lo8(-(2))
 2203 0840 8670      		andi r24,lo8(6)
 2204 0842 8093 0000 		sts m_currentstep,r24
 2205               	/* epilogue start */
 278:../../../src/drivers/platform/micaZ/source/TUM_LKN_Sensorboard_driver.c **** }
 2207               	.LM229:
 2208 0846 0895      		ret
 2210               	.Lscope46:
 2212               		.stabd	78,0,0
 2214               	.global	TUM_LKN_Sensorboard_StepperIdle
 2216               	TUM_LKN_Sensorboard_StepperIdle:
 2217               		.stabd	46,0,0
 270:../../../src/drivers/platform/micaZ/source/TUM_LKN_Sensorboard_driver.c **** {
 2219               	.LM230:
 2220               	.LFBB47:
 2221               	/* prologue: function */
 2222               	/* frame size = 0 */
 271:../../../src/drivers/platform/micaZ/source/TUM_LKN_Sensorboard_driver.c ****     writeIOs( setBits( m_lastxs, 0x0F, 0xF0 ) );
 2224               	.LM231:
 2225 0848 8091 0000 		lds r24,m_lastxs
 2226 084c 806F      		ori r24,lo8(-16)
 2227 084e 0E94 0000 		call writeIOs
 2228               	/* epilogue start */
 272:../../../src/drivers/platform/micaZ/source/TUM_LKN_Sensorboard_driver.c **** }
 2230               	.LM232:
 2231 0852 0895      		ret
 2233               	.Lscope47:
 2235               		.stabd	78,0,0
 2238               	.global	TUM_LKN_Sensorboard_setBeeper
 2240               	TUM_LKN_Sensorboard_setBeeper:
 2241               		.stabd	46,0,0
 266:../../../src/drivers/platform/micaZ/source/TUM_LKN_Sensorboard_driver.c **** void TUM_LKN_Sensorboard_setBeeper( bool set ) 				{ writeIOs( setBits( m_lastxs, 0xF7, (set == FAL
 2243               	.LM233:
 2244               	.LFBB48:
 2245               	/* prologue: function */
 2246               	/* frame size = 0 */
 266:../../../src/drivers/platform/micaZ/source/TUM_LKN_Sensorboard_driver.c **** void TUM_LKN_Sensorboard_setBeeper( bool set ) 				{ writeIOs( setBits( m_lastxs, 0xF7, (set == FAL
 2248               	.LM234:
 2249 0854 9091 0000 		lds r25,m_lastxs
 2250 0858 8823      		tst r24
 2251 085a 01F0      		breq .L164
 2252 085c 80E0      		ldi r24,lo8(0)
 2253 085e 00C0      		rjmp .L165
 2254               	.L164:
 2255 0860 88E0      		ldi r24,lo8(8)
 2256               	.L165:
 2257 0862 977F      		andi r25,lo8(-9)
 2258 0864 892B      		or r24,r25
 2259 0866 0E94 0000 		call writeIOs
 2260               	/* epilogue start */
 2261 086a 0895      		ret
 2263               	.Lscope48:
 2265               		.stabd	78,0,0
 2269               	.global	TUM_LKN_Sensorboard_writeIO
 2271               	TUM_LKN_Sensorboard_writeIO:
 2272               		.stabd	46,0,0
 265:../../../src/drivers/platform/micaZ/source/TUM_LKN_Sensorboard_driver.c **** void TUM_LKN_Sensorboard_writeIO( uint8_t io, bool set ) { writeIOs( setBits( m_lastxs, ~(0x01 << i
 2274               	.LM235:
 2275               	.LFBB49:
 2276               	/* prologue: function */
 2277               	/* frame size = 0 */
 265:../../../src/drivers/platform/micaZ/source/TUM_LKN_Sensorboard_driver.c **** void TUM_LKN_Sensorboard_writeIO( uint8_t io, bool set ) { writeIOs( setBits( m_lastxs, ~(0x01 << i
 2279               	.LM236:
 2280 086c 4091 0000 		lds r20,m_lastxs
 2281 0870 21E0      		ldi r18,lo8(1)
 2282 0872 30E0      		ldi r19,hi8(1)
 2283 0874 00C0      		rjmp 2f
 2284 0876 220F      	1:	lsl r18
 2285 0878 331F      		rol r19
 2286 087a 8A95      	2:	dec r24
 2287 087c 02F4      		brpl 1b
 2288 087e 6623      		tst r22
 2289 0880 01F4      		brne .L168
 2290 0882 90E0      		ldi r25,lo8(0)
 2291 0884 00C0      		rjmp .L169
 2292               	.L168:
 2293 0886 922F      		mov r25,r18
 2294               	.L169:
 2295 0888 822F      		mov r24,r18
 2296 088a 8095      		com r24
 2297 088c 8423      		and r24,r20
 2298 088e 892B      		or r24,r25
 2299 0890 0E94 0000 		call writeIOs
 2300               	/* epilogue start */
 2301 0894 0895      		ret
 2303               	.Lscope49:
 2305               		.stabd	78,0,0
 2308               	.global	TUM_LKN_Sensorboard_writeIOs
 2310               	TUM_LKN_Sensorboard_writeIOs:
 2311               		.stabd	46,0,0
 264:../../../src/drivers/platform/micaZ/source/TUM_LKN_Sensorboard_driver.c **** void TUM_LKN_Sensorboard_writeIOs( uint8_t data ) 			{ writeIOs( data ); }
 2313               	.LM237:
 2314               	.LFBB50:
 2315               	/* prologue: function */
 2316               	/* frame size = 0 */
 264:../../../src/drivers/platform/micaZ/source/TUM_LKN_Sensorboard_driver.c **** void TUM_LKN_Sensorboard_writeIOs( uint8_t data ) 			{ writeIOs( data ); }
 2318               	.LM238:
 2319 0896 0E94 0000 		call writeIOs
 2320               	/* epilogue start */
 2321 089a 0895      		ret
 2323               	.Lscope50:
 2325               		.stabd	78,0,0
 2327               	.global	TUM_LKN_Sensorboard_init
 2329               	TUM_LKN_Sensorboard_init:
 2330               		.stabd	46,0,0
 262:../../../src/drivers/platform/micaZ/source/TUM_LKN_Sensorboard_driver.c **** void TUM_LKN_Sensorboard_init() 									{ writeIOs( 0xFF ); writeDAC( 0x00 ); }
 2332               	.LM239:
 2333               	.LFBB51:
 2334               	/* prologue: function */
 2335               	/* frame size = 0 */
 262:../../../src/drivers/platform/micaZ/source/TUM_LKN_Sensorboard_driver.c **** void TUM_LKN_Sensorboard_init() 									{ writeIOs( 0xFF ); writeDAC( 0x00 ); }
 2337               	.LM240:
 2338 089c 8FEF      		ldi r24,lo8(-1)
 2339 089e 0E94 0000 		call writeIOs
 2340 08a2 80E0      		ldi r24,lo8(0)
 2341 08a4 0E94 0000 		call writeDAC
 2342               	/* epilogue start */
 2343 08a8 0895      		ret
 2345               	.Lscope51:
 2347               		.stabd	78,0,0
 2348               	.global	steppertimeout
 2349               		.data
 2352               	steppertimeout:
 2353 0000 6400      		.word	100
 2354               	.global	steps
 2357               	steps:
 2358 0002 50        		.byte	80
 2359 0003 10        		.byte	16
 2360 0004 90        		.byte	-112
 2361 0005 80        		.byte	-128
 2362 0006 A0        		.byte	-96
 2363 0007 20        		.byte	32
 2364 0008 60        		.byte	96
 2365 0009 40        		.byte	64
 2366               	.global	m_currentstep
 2367               	.global	m_currentstep
 2368               		.section .bss
 2371               	m_currentstep:
 2372 0000 00        		.skip 1,0
 2373               	.global	i2cData
 2374               	.global	i2cData
 2377               	i2cData:
 2378 0001 0000 0000 		.skip 8,0
 2378      0000 0000 
 2379               	.global	m_lastxs
 2380               	.global	m_lastxs
 2383               	m_lastxs:
 2384 0009 00        		.skip 1,0
 2385               	.global	m_vbatt
 2386               		.data
 2389               	m_vbatt:
 2390 000a 00        		.byte	0
 2391 000b 00        		.byte	0
 2392 000c 40        		.byte	64
 2393 000d 40        		.byte	64
 2394               	.global	m_ledstate
 2395               	.global	m_ledstate
 2396               		.section .bss
 2399               	m_ledstate:
 2400 000a 00        		.skip 1,0
 2401               	.global	m_prescaler
 2402               	.global	m_prescaler
 2405               	m_prescaler:
 2406 000b 0000      		.skip 2,0
 2407               	.global	m_pwm
 2408               		.data
 2411               	m_pwm:
 2412 000e FF        		.byte	-1
 2413 000f FF        		.byte	-1
 2414               		.comm _nrk_signal_list,4,1
 2415               		.comm nrk_idle_task_stk,128,1
 2416               		.comm nrk_kernel_stk_ptr,2,1
 2417               		.comm i2cDataLen,1,1
 2418               		.comm i2cDataDirection,1,1
 2419               		.comm i2cDestination,2,1
 2420               		.comm m_channel,1,1
 2437               		.text
 2439               	.Letext0:
DEFINED SYMBOLS
                            *ABS*:00000000 TUM_LKN_Sensorboard_driver.c
     /tmp/cc4qfLgY.s:2      *ABS*:0000003f __SREG__
     /tmp/cc4qfLgY.s:3      *ABS*:0000003e __SP_H__
     /tmp/cc4qfLgY.s:4      *ABS*:0000003d __SP_L__
     /tmp/cc4qfLgY.s:5      *ABS*:00000034 __CCP__
     /tmp/cc4qfLgY.s:6      *ABS*:00000000 __tmp_reg__
     /tmp/cc4qfLgY.s:7      *ABS*:00000001 __zero_reg__
     /tmp/cc4qfLgY.s:149    .text:00000000 setLedMode
     /tmp/cc4qfLgY.s:2399   .bss:0000000a m_ledstate
     /tmp/cc4qfLgY.s:194    .text:0000002e getLedMode
     /tmp/cc4qfLgY.s:237    .text:0000005a S2V
     /tmp/cc4qfLgY.s:2389   .data:0000000a m_vbatt
     /tmp/cc4qfLgY.s:272    .text:0000008a V2S
     /tmp/cc4qfLgY.s:306    .text:000000b4 setBits
     /tmp/cc4qfLgY.s:328    .text:000000bc prescalerSec2Hex
     /tmp/cc4qfLgY.s:400    .text:00000120 pwmFrac2Hex
     /tmp/cc4qfLgY.s:466    .text:00000178 TUM_LKN_Sensorboard_getCurrentStep
     /tmp/cc4qfLgY.s:2371   .bss:00000000 m_currentstep
     /tmp/cc4qfLgY.s:487    .text:0000017e TUM_LKN_Sensorboard_setControl0
     /tmp/cc4qfLgY.s:2405   .bss:0000000b m_prescaler
     /tmp/cc4qfLgY.s:2411   .data:0000000e m_pwm
     /tmp/cc4qfLgY.s:622    .text:00000240 TUM_LKN_Sensorboard_setControl1
     /tmp/cc4qfLgY.s:756    .text:00000302 TUM_LKN_Sensorboard_setBrightness0
     /tmp/cc4qfLgY.s:832    .text:00000360 TUM_LKN_Sensorboard_setBrightness1
     /tmp/cc4qfLgY.s:909    .text:000003be TWI_write
     /tmp/cc4qfLgY.s:1005   .text:00000422 TWI_read
     /tmp/cc4qfLgY.s:1118   .text:000004a0 i2cAction
                            *COM*:00000001 i2cDataDirection
                            *COM*:00000002 i2cDestination
                            *COM*:00000001 i2cDataLen
     /tmp/cc4qfLgY.s:2377   .bss:00000001 i2cData
     /tmp/cc4qfLgY.s:1154   .text:000004cc setLeds
     /tmp/cc4qfLgY.s:1213   .text:00000516 TUM_LKN_Sensorboard_greenBlink
     /tmp/cc4qfLgY.s:1246   .text:00000530 TUM_LKN_Sensorboard_greenToggle
     /tmp/cc4qfLgY.s:1295   .text:0000055e TUM_LKN_Sensorboard_greenOff
     /tmp/cc4qfLgY.s:1323   .text:0000056e TUM_LKN_Sensorboard_greenOn
     /tmp/cc4qfLgY.s:1353   .text:00000580 TUM_LKN_Sensorboard_yellowBlink
     /tmp/cc4qfLgY.s:1386   .text:0000059a TUM_LKN_Sensorboard_yellowToggle
     /tmp/cc4qfLgY.s:1434   .text:000005c6 TUM_LKN_Sensorboard_yellowOff
     /tmp/cc4qfLgY.s:1462   .text:000005d6 TUM_LKN_Sensorboard_yellowOn
     /tmp/cc4qfLgY.s:1492   .text:000005e8 TUM_LKN_Sensorboard_redBlink
     /tmp/cc4qfLgY.s:1523   .text:000005fe TUM_LKN_Sensorboard_redToggle
     /tmp/cc4qfLgY.s:1562   .text:00000618 TUM_LKN_Sensorboard_redOff
     /tmp/cc4qfLgY.s:1590   .text:00000628 TUM_LKN_Sensorboard_redOn
     /tmp/cc4qfLgY.s:1620   .text:0000063a TUM_LKN_Sensorboard_laserBlink
     /tmp/cc4qfLgY.s:1655   .text:00000658 TUM_LKN_Sensorboard_laserToggle
     /tmp/cc4qfLgY.s:1701   .text:00000680 TUM_LKN_Sensorboard_laserOff
     /tmp/cc4qfLgY.s:1729   .text:00000690 TUM_LKN_Sensorboard_laserOn
     /tmp/cc4qfLgY.s:1759   .text:000006a2 readADC
                            *COM*:00000001 m_channel
     /tmp/cc4qfLgY.s:1825   .text:000006ee TUM_LKN_Sensorboard_readChannel
     /tmp/cc4qfLgY.s:1844   .text:000006f4 TUM_LKN_Sensorboard_readChannel3
     /tmp/cc4qfLgY.s:1864   .text:000006fc TUM_LKN_Sensorboard_readChannel2
     /tmp/cc4qfLgY.s:1884   .text:00000704 TUM_LKN_Sensorboard_readChannel1
     /tmp/cc4qfLgY.s:1904   .text:0000070c TUM_LKN_Sensorboard_readPhotoVoltage
     /tmp/cc4qfLgY.s:1925   .text:00000714 writeDAC
     /tmp/cc4qfLgY.s:1967   .text:0000073a TUM_LKN_Sensorboard_writeValue
     /tmp/cc4qfLgY.s:1999   .text:00000768 readIOs
     /tmp/cc4qfLgY.s:2034   .text:00000784 writeIOs
     /tmp/cc4qfLgY.s:2383   .bss:00000009 m_lastxs
     /tmp/cc4qfLgY.s:2072   .text:000007a8 TUM_LKN_Sensorboard_halfStepCW
     /tmp/cc4qfLgY.s:2357   .data:00000002 steps
     /tmp/cc4qfLgY.s:2108   .text:000007d0 TUM_LKN_Sensorboard_halfStepCCW
     /tmp/cc4qfLgY.s:2144   .text:000007f8 TUM_LKN_Sensorboard_stepCW
     /tmp/cc4qfLgY.s:2180   .text:00000820 TUM_LKN_Sensorboard_stepCCW
     /tmp/cc4qfLgY.s:2216   .text:00000848 TUM_LKN_Sensorboard_StepperIdle
     /tmp/cc4qfLgY.s:2240   .text:00000854 TUM_LKN_Sensorboard_setBeeper
     /tmp/cc4qfLgY.s:2271   .text:0000086c TUM_LKN_Sensorboard_writeIO
     /tmp/cc4qfLgY.s:2310   .text:00000896 TUM_LKN_Sensorboard_writeIOs
     /tmp/cc4qfLgY.s:2329   .text:0000089c TUM_LKN_Sensorboard_init
     /tmp/cc4qfLgY.s:2352   .data:00000000 steppertimeout
                            *COM*:00000004 _nrk_signal_list
                            *COM*:00000080 nrk_idle_task_stk
                            *COM*:00000002 nrk_kernel_stk_ptr

UNDEFINED SYMBOLS
__do_copy_data
__do_clear_bss
__floatunsisf
__mulsf3
__divsf3
__fixunssfsi
__gtsf2
__gesf2
__subsf3
