   1               		.file	"TUM_LKN_Sensorboard_driver.c"
   2               	__SREG__ = 0x3f
   3               	__SP_H__ = 0x3e
   4               	__SP_L__ = 0x3d
   5               	__CCP__ = 0x34
   6               	__tmp_reg__ = 0
   7               	__zero_reg__ = 1
  10               		.text
  11               	.Ltext0:
 147               	.global	setLedMode
 149               	setLedMode:
 150               		.stabd	46,0,0
   1:../../../src/drivers/platform/micaZ/source/TUM_LKN_Sensorboard_driver.c **** /******************************************************************************
   2:../../../src/drivers/platform/micaZ/source/TUM_LKN_Sensorboard_driver.c **** *  Nano-RK, a real-time operating system for sensor networks.
   3:../../../src/drivers/platform/micaZ/source/TUM_LKN_Sensorboard_driver.c **** *  Copyright (C) 2011 Technische Universität München (www.vmi.ei.tum.de)
   4:../../../src/drivers/platform/micaZ/source/TUM_LKN_Sensorboard_driver.c **** *  All rights reserved.
   5:../../../src/drivers/platform/micaZ/source/TUM_LKN_Sensorboard_driver.c **** *
   6:../../../src/drivers/platform/micaZ/source/TUM_LKN_Sensorboard_driver.c **** *  This is the Open Source Version of Nano-RK included as part of a Dual
   7:../../../src/drivers/platform/micaZ/source/TUM_LKN_Sensorboard_driver.c **** *  Licensing Model. If you are unsure which license to use please refer to:
   8:../../../src/drivers/platform/micaZ/source/TUM_LKN_Sensorboard_driver.c **** *  http://www.nanork.org/nano-RK/wiki/Licensing
   9:../../../src/drivers/platform/micaZ/source/TUM_LKN_Sensorboard_driver.c **** *
  10:../../../src/drivers/platform/micaZ/source/TUM_LKN_Sensorboard_driver.c **** *  This program is free software: you can redistribute it and/or modify
  11:../../../src/drivers/platform/micaZ/source/TUM_LKN_Sensorboard_driver.c **** *  it under the terms of the GNU General Public License as published by
  12:../../../src/drivers/platform/micaZ/source/TUM_LKN_Sensorboard_driver.c **** *  the Free Software Foundation, version 2.0 of the License.
  13:../../../src/drivers/platform/micaZ/source/TUM_LKN_Sensorboard_driver.c **** *
  14:../../../src/drivers/platform/micaZ/source/TUM_LKN_Sensorboard_driver.c **** *  This program is distributed in the hope that it will be useful,
  15:../../../src/drivers/platform/micaZ/source/TUM_LKN_Sensorboard_driver.c **** *  but WITHOUT ANY WARRANTY; without even the implied warranty of
  16:../../../src/drivers/platform/micaZ/source/TUM_LKN_Sensorboard_driver.c **** *  MERCHANTABILITY or FITNESS FOR A PARTICULAR PURPOSE.  See the
  17:../../../src/drivers/platform/micaZ/source/TUM_LKN_Sensorboard_driver.c **** *  GNU General Public License for more details.
  18:../../../src/drivers/platform/micaZ/source/TUM_LKN_Sensorboard_driver.c **** *
  19:../../../src/drivers/platform/micaZ/source/TUM_LKN_Sensorboard_driver.c **** *  You should have received a copy of the GNU General Public License
  20:../../../src/drivers/platform/micaZ/source/TUM_LKN_Sensorboard_driver.c **** *  along with this program.  If not, see <http://www.gnu.org/licenses/>.
  21:../../../src/drivers/platform/micaZ/source/TUM_LKN_Sensorboard_driver.c **** *
  22:../../../src/drivers/platform/micaZ/source/TUM_LKN_Sensorboard_driver.c **** *
  23:../../../src/drivers/platform/micaZ/source/TUM_LKN_Sensorboard_driver.c **** *  Contributing Authors (specific to this file):
  24:../../../src/drivers/platform/micaZ/source/TUM_LKN_Sensorboard_driver.c **** *  Peter Diener and others
  25:../../../src/drivers/platform/micaZ/source/TUM_LKN_Sensorboard_driver.c **** *
  26:../../../src/drivers/platform/micaZ/source/TUM_LKN_Sensorboard_driver.c **** ***************************************************************************************/
  27:../../../src/drivers/platform/micaZ/source/TUM_LKN_Sensorboard_driver.c **** //#include <I2C.h>
  28:../../../src/drivers/platform/micaZ/source/TUM_LKN_Sensorboard_driver.c **** #include <nrk.h>
  29:../../../src/drivers/platform/micaZ/source/TUM_LKN_Sensorboard_driver.c **** #include <include.h>
  30:../../../src/drivers/platform/micaZ/source/TUM_LKN_Sensorboard_driver.c **** #include <ulib.h>
  31:../../../src/drivers/platform/micaZ/source/TUM_LKN_Sensorboard_driver.c **** #include <stdio.h>
  32:../../../src/drivers/platform/micaZ/source/TUM_LKN_Sensorboard_driver.c **** #include <stdlib.h>
  33:../../../src/drivers/platform/micaZ/source/TUM_LKN_Sensorboard_driver.c **** #include <hal.h>
  34:../../../src/drivers/platform/micaZ/source/TUM_LKN_Sensorboard_driver.c **** 
  35:../../../src/drivers/platform/micaZ/source/TUM_LKN_Sensorboard_driver.c **** #include "TUM_LKN_Sensorboard_driver.h"
  36:../../../src/drivers/platform/micaZ/source/TUM_LKN_Sensorboard_driver.c **** 
  37:../../../src/drivers/platform/micaZ/source/TUM_LKN_Sensorboard_driver.c **** 
  38:../../../src/drivers/platform/micaZ/source/TUM_LKN_Sensorboard_driver.c **** // Anmerkung: Diesen Treiber sollte man mal komplett neu schreiben.
  39:../../../src/drivers/platform/micaZ/source/TUM_LKN_Sensorboard_driver.c **** 
  40:../../../src/drivers/platform/micaZ/source/TUM_LKN_Sensorboard_driver.c **** 
  41:../../../src/drivers/platform/micaZ/source/TUM_LKN_Sensorboard_driver.c **** 
  42:../../../src/drivers/platform/micaZ/source/TUM_LKN_Sensorboard_driver.c **** // Hardware addresses
  43:../../../src/drivers/platform/micaZ/source/TUM_LKN_Sensorboard_driver.c **** enum
  44:../../../src/drivers/platform/micaZ/source/TUM_LKN_Sensorboard_driver.c **** {
  45:../../../src/drivers/platform/micaZ/source/TUM_LKN_Sensorboard_driver.c **** 	PCF8574 = 0x40,   		// digital IO PCF8574/external addr switch = 0
  46:../../../src/drivers/platform/micaZ/source/TUM_LKN_Sensorboard_driver.c **** 	PCF8591 = 0x90,       	// ADC PCF8591/external addr switch = 0
  47:../../../src/drivers/platform/micaZ/source/TUM_LKN_Sensorboard_driver.c **** 	PCA9533 = 0xC6   			// pwm led controller PCA9533
  48:../../../src/drivers/platform/micaZ/source/TUM_LKN_Sensorboard_driver.c **** };
  49:../../../src/drivers/platform/micaZ/source/TUM_LKN_Sensorboard_driver.c **** 
  50:../../../src/drivers/platform/micaZ/source/TUM_LKN_Sensorboard_driver.c **** 
  51:../../../src/drivers/platform/micaZ/source/TUM_LKN_Sensorboard_driver.c **** 
  52:../../../src/drivers/platform/micaZ/source/TUM_LKN_Sensorboard_driver.c **** // Register entries defining the state of the AD/DA converter
  53:../../../src/drivers/platform/micaZ/source/TUM_LKN_Sensorboard_driver.c **** enum
  54:../../../src/drivers/platform/micaZ/source/TUM_LKN_Sensorboard_driver.c **** {
  55:../../../src/drivers/platform/micaZ/source/TUM_LKN_Sensorboard_driver.c **** 	REG_ADC_CHAN0					= 0x00,			// channel 0
  56:../../../src/drivers/platform/micaZ/source/TUM_LKN_Sensorboard_driver.c **** 	REG_ADC_CHAN1					= 0x01,			// channel 1
  57:../../../src/drivers/platform/micaZ/source/TUM_LKN_Sensorboard_driver.c **** 	REG_ADC_CHAN2					= 0x02,			// channel 2
  58:../../../src/drivers/platform/micaZ/source/TUM_LKN_Sensorboard_driver.c **** 	REG_ADC_CHAN3					= 0x03,			// channel 3
  59:../../../src/drivers/platform/micaZ/source/TUM_LKN_Sensorboard_driver.c **** 	REG_ADC_AUTOINCREMENT		= 0x04,			// auto-increment, sequentially read/write multiple registers
  60:../../../src/drivers/platform/micaZ/source/TUM_LKN_Sensorboard_driver.c **** 	REG_ADC_FOURSE					= 0x00,			// four single-ended inputs
  61:../../../src/drivers/platform/micaZ/source/TUM_LKN_Sensorboard_driver.c **** 	REG_ADC_3DIFF					= 0x10,			// three differential inputs
  62:../../../src/drivers/platform/micaZ/source/TUM_LKN_Sensorboard_driver.c **** 	REG_ADC_SEDIFFMIX				= 0x20,			// single-ended and differential mixed
  63:../../../src/drivers/platform/micaZ/source/TUM_LKN_Sensorboard_driver.c **** 	REG_ADC_2DIFF					= 0x30,			// two differential inputs
  64:../../../src/drivers/platform/micaZ/source/TUM_LKN_Sensorboard_driver.c **** 	REG_ADC_AOUTENABLE			= 0x40			// analogue output enable flag
  65:../../../src/drivers/platform/micaZ/source/TUM_LKN_Sensorboard_driver.c **** };
  66:../../../src/drivers/platform/micaZ/source/TUM_LKN_Sensorboard_driver.c **** 
  67:../../../src/drivers/platform/micaZ/source/TUM_LKN_Sensorboard_driver.c **** 
  68:../../../src/drivers/platform/micaZ/source/TUM_LKN_Sensorboard_driver.c **** 
  69:../../../src/drivers/platform/micaZ/source/TUM_LKN_Sensorboard_driver.c **** // Control registers of the PWM LED controller
  70:../../../src/drivers/platform/micaZ/source/TUM_LKN_Sensorboard_driver.c **** enum
  71:../../../src/drivers/platform/micaZ/source/TUM_LKN_Sensorboard_driver.c **** {
  72:../../../src/drivers/platform/micaZ/source/TUM_LKN_Sensorboard_driver.c **** 	REG_LED_INPUT 					= 0x00,   		// r   Input register (writes are acknowledged but without effect)
  73:../../../src/drivers/platform/micaZ/source/TUM_LKN_Sensorboard_driver.c **** 	REG_LED_PSC0  					= 0x01,   		// r/w Frequency prescaler 0
  74:../../../src/drivers/platform/micaZ/source/TUM_LKN_Sensorboard_driver.c **** 	REG_LED_PWM0  					= 0x02,   		// r/w PWM register 0
  75:../../../src/drivers/platform/micaZ/source/TUM_LKN_Sensorboard_driver.c **** 	REG_LED_PSC1  					= 0x03,   		// r/w Frequency prescaler 1
  76:../../../src/drivers/platform/micaZ/source/TUM_LKN_Sensorboard_driver.c **** 	REG_LED_PWM1  					= 0x04,   		// r/w PWM register 1
  77:../../../src/drivers/platform/micaZ/source/TUM_LKN_Sensorboard_driver.c **** 	REG_LED_LS0   					= 0x05,    		// r/w LED selector
  78:../../../src/drivers/platform/micaZ/source/TUM_LKN_Sensorboard_driver.c **** 	REG_LED_AUTOINCREMENT		= 0x10
  79:../../../src/drivers/platform/micaZ/source/TUM_LKN_Sensorboard_driver.c **** };
  80:../../../src/drivers/platform/micaZ/source/TUM_LKN_Sensorboard_driver.c **** 
  81:../../../src/drivers/platform/micaZ/source/TUM_LKN_Sensorboard_driver.c **** 
  82:../../../src/drivers/platform/micaZ/source/TUM_LKN_Sensorboard_driver.c **** 
  83:../../../src/drivers/platform/micaZ/source/TUM_LKN_Sensorboard_driver.c **** // Register entries defining the state (on/off) of the LEDs
  84:../../../src/drivers/platform/micaZ/source/TUM_LKN_Sensorboard_driver.c **** enum
  85:../../../src/drivers/platform/micaZ/source/TUM_LKN_Sensorboard_driver.c **** {
  86:../../../src/drivers/platform/micaZ/source/TUM_LKN_Sensorboard_driver.c **** 	REG_LED_OFF        			= 0x00,
  87:../../../src/drivers/platform/micaZ/source/TUM_LKN_Sensorboard_driver.c **** 	REG_LED_ON         			= 0x01,
  88:../../../src/drivers/platform/micaZ/source/TUM_LKN_Sensorboard_driver.c **** 	REG_LED_BLINK_PWM0 			= 0x02,
  89:../../../src/drivers/platform/micaZ/source/TUM_LKN_Sensorboard_driver.c **** 	REG_LED_BLINK_PWM1 			= 0x03,
  90:../../../src/drivers/platform/micaZ/source/TUM_LKN_Sensorboard_driver.c **** };
  91:../../../src/drivers/platform/micaZ/source/TUM_LKN_Sensorboard_driver.c **** 
  92:../../../src/drivers/platform/micaZ/source/TUM_LKN_Sensorboard_driver.c **** 
  93:../../../src/drivers/platform/micaZ/source/TUM_LKN_Sensorboard_driver.c **** 
  94:../../../src/drivers/platform/micaZ/source/TUM_LKN_Sensorboard_driver.c **** 
  95:../../../src/drivers/platform/micaZ/source/TUM_LKN_Sensorboard_driver.c **** // Power timeout for the stepper motor. Given in milliseconds. Power is interrupted
  96:../../../src/drivers/platform/micaZ/source/TUM_LKN_Sensorboard_driver.c **** // after the stepper is idle for the given time.
  97:../../../src/drivers/platform/micaZ/source/TUM_LKN_Sensorboard_driver.c **** uint16_t steppertimeout = 100;
  98:../../../src/drivers/platform/micaZ/source/TUM_LKN_Sensorboard_driver.c **** 
  99:../../../src/drivers/platform/micaZ/source/TUM_LKN_Sensorboard_driver.c **** 
 100:../../../src/drivers/platform/micaZ/source/TUM_LKN_Sensorboard_driver.c **** // Bit pattern for controlling the stepper motor
 101:../../../src/drivers/platform/micaZ/source/TUM_LKN_Sensorboard_driver.c **** uint8_t steps[ 8 ] = { 0x50, 0x10, 0x90, 0x80, 0xA0, 0x20, 0x60, 0x40 };
 102:../../../src/drivers/platform/micaZ/source/TUM_LKN_Sensorboard_driver.c **** uint8_t m_currentstep = 0;
 103:../../../src/drivers/platform/micaZ/source/TUM_LKN_Sensorboard_driver.c **** 
 104:../../../src/drivers/platform/micaZ/source/TUM_LKN_Sensorboard_driver.c **** 
 105:../../../src/drivers/platform/micaZ/source/TUM_LKN_Sensorboard_driver.c **** // This will be sent on the I2C bus
 106:../../../src/drivers/platform/micaZ/source/TUM_LKN_Sensorboard_driver.c **** uint8_t i2cData[8] = { 0x00, 0x00, 0x00, 0x00, 0x00, 0x00, 0x00, 0x00 };
 107:../../../src/drivers/platform/micaZ/source/TUM_LKN_Sensorboard_driver.c **** uint8_t i2cDataLen;
 108:../../../src/drivers/platform/micaZ/source/TUM_LKN_Sensorboard_driver.c **** 
 109:../../../src/drivers/platform/micaZ/source/TUM_LKN_Sensorboard_driver.c **** 
 110:../../../src/drivers/platform/micaZ/source/TUM_LKN_Sensorboard_driver.c **** enum { i2cWrite, i2cRead } i2cDataDirection;
 111:../../../src/drivers/platform/micaZ/source/TUM_LKN_Sensorboard_driver.c **** 
 112:../../../src/drivers/platform/micaZ/source/TUM_LKN_Sensorboard_driver.c **** uint16_t i2cDestination;
 113:../../../src/drivers/platform/micaZ/source/TUM_LKN_Sensorboard_driver.c **** 
 114:../../../src/drivers/platform/micaZ/source/TUM_LKN_Sensorboard_driver.c **** // Bit pattern of last write access to the digital IO ports
 115:../../../src/drivers/platform/micaZ/source/TUM_LKN_Sensorboard_driver.c **** uint8_t m_lastxs = 0x00;
 116:../../../src/drivers/platform/micaZ/source/TUM_LKN_Sensorboard_driver.c **** 
 117:../../../src/drivers/platform/micaZ/source/TUM_LKN_Sensorboard_driver.c **** // Holds the values written to or read from the adc/dac
 118:../../../src/drivers/platform/micaZ/source/TUM_LKN_Sensorboard_driver.c **** double m_vbatt = 3.;
 119:../../../src/drivers/platform/micaZ/source/TUM_LKN_Sensorboard_driver.c **** uint8_t m_channel;
 120:../../../src/drivers/platform/micaZ/source/TUM_LKN_Sensorboard_driver.c **** 
 121:../../../src/drivers/platform/micaZ/source/TUM_LKN_Sensorboard_driver.c **** // These variables keep track of the LED states
 122:../../../src/drivers/platform/micaZ/source/TUM_LKN_Sensorboard_driver.c **** uint8_t m_ledstate = 0x00;
 123:../../../src/drivers/platform/micaZ/source/TUM_LKN_Sensorboard_driver.c **** uint8_t m_prescaler[ 2 ] = { 0x00, 0x00 };
 124:../../../src/drivers/platform/micaZ/source/TUM_LKN_Sensorboard_driver.c **** uint8_t m_pwm[ 2 ] = { 0xFF, 0xFF };
 125:../../../src/drivers/platform/micaZ/source/TUM_LKN_Sensorboard_driver.c **** 
 126:../../../src/drivers/platform/micaZ/source/TUM_LKN_Sensorboard_driver.c **** 
 127:../../../src/drivers/platform/micaZ/source/TUM_LKN_Sensorboard_driver.c **** 
 128:../../../src/drivers/platform/micaZ/source/TUM_LKN_Sensorboard_driver.c **** // ---- LOW LEVEL FUNCTIONS
 129:../../../src/drivers/platform/micaZ/source/TUM_LKN_Sensorboard_driver.c **** 
 130:../../../src/drivers/platform/micaZ/source/TUM_LKN_Sensorboard_driver.c **** 
 131:../../../src/drivers/platform/micaZ/source/TUM_LKN_Sensorboard_driver.c **** 
 132:../../../src/drivers/platform/micaZ/source/TUM_LKN_Sensorboard_driver.c **** //this is ok
 133:../../../src/drivers/platform/micaZ/source/TUM_LKN_Sensorboard_driver.c **** void writeIOs( uint8_t data )
 134:../../../src/drivers/platform/micaZ/source/TUM_LKN_Sensorboard_driver.c **** {
 135:../../../src/drivers/platform/micaZ/source/TUM_LKN_Sensorboard_driver.c **** 	i2cData[ 0 ] = m_lastxs = data;
 136:../../../src/drivers/platform/micaZ/source/TUM_LKN_Sensorboard_driver.c **** 	i2cDataLen = 1;
 137:../../../src/drivers/platform/micaZ/source/TUM_LKN_Sensorboard_driver.c **** 	i2cDataDirection = i2cWrite;
 138:../../../src/drivers/platform/micaZ/source/TUM_LKN_Sensorboard_driver.c **** 	i2cDestination = PCF8574;
 139:../../../src/drivers/platform/micaZ/source/TUM_LKN_Sensorboard_driver.c **** 
 140:../../../src/drivers/platform/micaZ/source/TUM_LKN_Sensorboard_driver.c **** 	i2cAction();
 141:../../../src/drivers/platform/micaZ/source/TUM_LKN_Sensorboard_driver.c **** }
 142:../../../src/drivers/platform/micaZ/source/TUM_LKN_Sensorboard_driver.c **** 
 143:../../../src/drivers/platform/micaZ/source/TUM_LKN_Sensorboard_driver.c **** 
 144:../../../src/drivers/platform/micaZ/source/TUM_LKN_Sensorboard_driver.c **** 
 145:../../../src/drivers/platform/micaZ/source/TUM_LKN_Sensorboard_driver.c **** void readIOs()
 146:../../../src/drivers/platform/micaZ/source/TUM_LKN_Sensorboard_driver.c **** {
 147:../../../src/drivers/platform/micaZ/source/TUM_LKN_Sensorboard_driver.c **** 	i2cDataDirection = i2cRead;
 148:../../../src/drivers/platform/micaZ/source/TUM_LKN_Sensorboard_driver.c **** 	i2cDataLen = 1;
 149:../../../src/drivers/platform/micaZ/source/TUM_LKN_Sensorboard_driver.c **** 	i2cDestination = PCF8574;
 150:../../../src/drivers/platform/micaZ/source/TUM_LKN_Sensorboard_driver.c **** 
 151:../../../src/drivers/platform/micaZ/source/TUM_LKN_Sensorboard_driver.c **** 	i2cAction();
 152:../../../src/drivers/platform/micaZ/source/TUM_LKN_Sensorboard_driver.c **** }
 153:../../../src/drivers/platform/micaZ/source/TUM_LKN_Sensorboard_driver.c **** 
 154:../../../src/drivers/platform/micaZ/source/TUM_LKN_Sensorboard_driver.c **** 
 155:../../../src/drivers/platform/micaZ/source/TUM_LKN_Sensorboard_driver.c **** 
 156:../../../src/drivers/platform/micaZ/source/TUM_LKN_Sensorboard_driver.c **** void writeDAC( uint8_t value )
 157:../../../src/drivers/platform/micaZ/source/TUM_LKN_Sensorboard_driver.c **** {
 158:../../../src/drivers/platform/micaZ/source/TUM_LKN_Sensorboard_driver.c **** 	i2cDataDirection = i2cWrite;		// write to the i2c bus
 159:../../../src/drivers/platform/micaZ/source/TUM_LKN_Sensorboard_driver.c **** 	i2cDataLen = 2;
 160:../../../src/drivers/platform/micaZ/source/TUM_LKN_Sensorboard_driver.c **** 	i2cData[ 0 ] = REG_ADC_FOURSE | REG_ADC_AOUTENABLE;
 161:../../../src/drivers/platform/micaZ/source/TUM_LKN_Sensorboard_driver.c **** 	i2cData[ 1 ] = value;
 162:../../../src/drivers/platform/micaZ/source/TUM_LKN_Sensorboard_driver.c **** 	i2cDestination = PCF8591;
 163:../../../src/drivers/platform/micaZ/source/TUM_LKN_Sensorboard_driver.c **** 
 164:../../../src/drivers/platform/micaZ/source/TUM_LKN_Sensorboard_driver.c **** 	i2cAction();
 165:../../../src/drivers/platform/micaZ/source/TUM_LKN_Sensorboard_driver.c **** }
 166:../../../src/drivers/platform/micaZ/source/TUM_LKN_Sensorboard_driver.c **** 
 167:../../../src/drivers/platform/micaZ/source/TUM_LKN_Sensorboard_driver.c **** 
 168:../../../src/drivers/platform/micaZ/source/TUM_LKN_Sensorboard_driver.c **** 
 169:../../../src/drivers/platform/micaZ/source/TUM_LKN_Sensorboard_driver.c **** void readADC( uint8_t channel )
 170:../../../src/drivers/platform/micaZ/source/TUM_LKN_Sensorboard_driver.c **** {
 171:../../../src/drivers/platform/micaZ/source/TUM_LKN_Sensorboard_driver.c **** 	//set the correct channel first
 172:../../../src/drivers/platform/micaZ/source/TUM_LKN_Sensorboard_driver.c **** 	channel &= 0x03;
 173:../../../src/drivers/platform/micaZ/source/TUM_LKN_Sensorboard_driver.c **** 	m_channel = channel;
 174:../../../src/drivers/platform/micaZ/source/TUM_LKN_Sensorboard_driver.c **** 	i2cDataDirection = i2cWrite;		// write to the i2c bus
 175:../../../src/drivers/platform/micaZ/source/TUM_LKN_Sensorboard_driver.c **** 	i2cDataLen = 1;
 176:../../../src/drivers/platform/micaZ/source/TUM_LKN_Sensorboard_driver.c **** 	i2cData[ 0 ] = REG_ADC_FOURSE | REG_ADC_AOUTENABLE | channel;
 177:../../../src/drivers/platform/micaZ/source/TUM_LKN_Sensorboard_driver.c **** 	i2cDestination = PCF8591;
 178:../../../src/drivers/platform/micaZ/source/TUM_LKN_Sensorboard_driver.c **** 
 179:../../../src/drivers/platform/micaZ/source/TUM_LKN_Sensorboard_driver.c **** 	i2cAction();
 180:../../../src/drivers/platform/micaZ/source/TUM_LKN_Sensorboard_driver.c **** 
 181:../../../src/drivers/platform/micaZ/source/TUM_LKN_Sensorboard_driver.c **** 	//and now read the analog input
 182:../../../src/drivers/platform/micaZ/source/TUM_LKN_Sensorboard_driver.c **** 	i2cDataDirection = i2cRead;	// read from the i2c bus
 183:../../../src/drivers/platform/micaZ/source/TUM_LKN_Sensorboard_driver.c **** 	i2cDataLen = 2;
 184:../../../src/drivers/platform/micaZ/source/TUM_LKN_Sensorboard_driver.c **** 	i2cDestination = PCF8591;
 185:../../../src/drivers/platform/micaZ/source/TUM_LKN_Sensorboard_driver.c **** 
 186:../../../src/drivers/platform/micaZ/source/TUM_LKN_Sensorboard_driver.c **** 	i2cAction();
 187:../../../src/drivers/platform/micaZ/source/TUM_LKN_Sensorboard_driver.c **** }
 188:../../../src/drivers/platform/micaZ/source/TUM_LKN_Sensorboard_driver.c **** 
 189:../../../src/drivers/platform/micaZ/source/TUM_LKN_Sensorboard_driver.c **** 
 190:../../../src/drivers/platform/micaZ/source/TUM_LKN_Sensorboard_driver.c **** 
 191:../../../src/drivers/platform/micaZ/source/TUM_LKN_Sensorboard_driver.c **** // Apply current values of m_led0... m_led3
 192:../../../src/drivers/platform/micaZ/source/TUM_LKN_Sensorboard_driver.c **** void setLeds()
 193:../../../src/drivers/platform/micaZ/source/TUM_LKN_Sensorboard_driver.c **** {
 194:../../../src/drivers/platform/micaZ/source/TUM_LKN_Sensorboard_driver.c **** 	// This is setting both prescalers and both PWMs
 195:../../../src/drivers/platform/micaZ/source/TUM_LKN_Sensorboard_driver.c **** 	i2cDataLen = 6;
 196:../../../src/drivers/platform/micaZ/source/TUM_LKN_Sensorboard_driver.c **** 	i2cData[0] = REG_LED_PSC0 | REG_LED_AUTOINCREMENT;
 197:../../../src/drivers/platform/micaZ/source/TUM_LKN_Sensorboard_driver.c **** 	i2cData[1] = m_prescaler[ 0 ];
 198:../../../src/drivers/platform/micaZ/source/TUM_LKN_Sensorboard_driver.c **** 	i2cData[2] = m_pwm[ 0 ];
 199:../../../src/drivers/platform/micaZ/source/TUM_LKN_Sensorboard_driver.c **** 	i2cData[3] = m_prescaler[ 1 ];
 200:../../../src/drivers/platform/micaZ/source/TUM_LKN_Sensorboard_driver.c **** 	i2cData[4] = m_pwm[ 1 ];
 201:../../../src/drivers/platform/micaZ/source/TUM_LKN_Sensorboard_driver.c **** 	i2cData[5] = m_ledstate;
 202:../../../src/drivers/platform/micaZ/source/TUM_LKN_Sensorboard_driver.c **** 	i2cDataDirection = i2cWrite;
 203:../../../src/drivers/platform/micaZ/source/TUM_LKN_Sensorboard_driver.c **** 	i2cDestination = PCA9533;
 204:../../../src/drivers/platform/micaZ/source/TUM_LKN_Sensorboard_driver.c **** 
 205:../../../src/drivers/platform/micaZ/source/TUM_LKN_Sensorboard_driver.c **** 	i2cAction();
 206:../../../src/drivers/platform/micaZ/source/TUM_LKN_Sensorboard_driver.c **** }
 207:../../../src/drivers/platform/micaZ/source/TUM_LKN_Sensorboard_driver.c **** 
 208:../../../src/drivers/platform/micaZ/source/TUM_LKN_Sensorboard_driver.c **** 
 209:../../../src/drivers/platform/micaZ/source/TUM_LKN_Sensorboard_driver.c **** 
 210:../../../src/drivers/platform/micaZ/source/TUM_LKN_Sensorboard_driver.c **** void setLedMode( uint8_t led, uint8_t mode )
 211:../../../src/drivers/platform/micaZ/source/TUM_LKN_Sensorboard_driver.c **** {
 152               	.LM0:
 153               	.LFBB1:
 154               	/* prologue: function */
 155               	/* frame size = 0 */
 156               	/* stack size = 0 */
 157               	.L__stack_usage = 0
 212:../../../src/drivers/platform/micaZ/source/TUM_LKN_Sensorboard_driver.c **** 	led = (led & 0x03) << 1;						// every LED has two bits and there are 4 LEDs
 159               	.LM1:
 160 0000 8370      		andi r24,lo8(3)
 161 0002 880F      		lsl r24
 213:../../../src/drivers/platform/micaZ/source/TUM_LKN_Sensorboard_driver.c **** 	m_ledstate &= ~(0x03 << led);					// reset affected bits
 163               	.LM2:
 164 0004 23E0      		ldi r18,lo8(3)
 165 0006 30E0      		ldi r19,hi8(3)
 166 0008 082E      		mov r0,r24
 167 000a 00C0      		rjmp 2f
 168 000c 220F      	1:	lsl r18
 169 000e 331F      		rol r19
 170 0010 0A94      	2:	dec r0
 171 0012 02F4      		brpl 1b
 172 0014 922F      		mov r25,r18
 173 0016 9095      		com r25
 174 0018 4091 0000 		lds r20,m_ledstate
 175 001c 9423      		and r25,r20
 214:../../../src/drivers/platform/micaZ/source/TUM_LKN_Sensorboard_driver.c **** 	m_ledstate |= (mode << led) & (0x03 << led);		// and write the new value
 177               	.LM3:
 178 001e 00C0      		rjmp 2f
 179 0020 660F      	1:	lsl r22
 180 0022 8A95      	2:	dec r24
 181 0024 02F4      		brpl 1b
 182 0026 6223      		and r22,r18
 183 0028 962B      		or r25,r22
 184 002a 9093 0000 		sts m_ledstate,r25
 185               	/* epilogue start */
 215:../../../src/drivers/platform/micaZ/source/TUM_LKN_Sensorboard_driver.c **** }
 187               	.LM4:
 188 002e 0895      		ret
 190               	.Lscope1:
 192               		.stabd	78,0,0
 195               	.global	getLedMode
 197               	getLedMode:
 198               		.stabd	46,0,0
 216:../../../src/drivers/platform/micaZ/source/TUM_LKN_Sensorboard_driver.c **** 
 217:../../../src/drivers/platform/micaZ/source/TUM_LKN_Sensorboard_driver.c **** 
 218:../../../src/drivers/platform/micaZ/source/TUM_LKN_Sensorboard_driver.c **** 
 219:../../../src/drivers/platform/micaZ/source/TUM_LKN_Sensorboard_driver.c **** uint8_t getLedMode( uint8_t led )
 220:../../../src/drivers/platform/micaZ/source/TUM_LKN_Sensorboard_driver.c **** {
 200               	.LM5:
 201               	.LFBB2:
 202               	/* prologue: function */
 203               	/* frame size = 0 */
 204               	/* stack size = 0 */
 205               	.L__stack_usage = 0
 221:../../../src/drivers/platform/micaZ/source/TUM_LKN_Sensorboard_driver.c **** 	led = (led & 0x03) << 1;						// ...
 207               	.LM6:
 208 0030 482F      		mov r20,r24
 209 0032 4370      		andi r20,lo8(3)
 210 0034 440F      		lsl r20
 222:../../../src/drivers/platform/micaZ/source/TUM_LKN_Sensorboard_driver.c **** 	return( (m_ledstate & (0x03 << led)) >> led );	// return the bits corresponding to the LED
 212               	.LM7:
 213 0036 83E0      		ldi r24,lo8(3)
 214 0038 90E0      		ldi r25,hi8(3)
 215 003a 042E      		mov r0,r20
 216 003c 00C0      		rjmp 2f
 217 003e 880F      	1:	lsl r24
 218 0040 991F      		rol r25
 219 0042 0A94      	2:	dec r0
 220 0044 02F4      		brpl 1b
 221 0046 2091 0000 		lds r18,m_ledstate
 222 004a 30E0      		ldi r19,lo8(0)
 223 004c 8223      		and r24,r18
 224 004e 9323      		and r25,r19
 225 0050 00C0      		rjmp 2f
 226 0052 9595      	1:	asr r25
 227 0054 8795      		ror r24
 228 0056 4A95      	2:	dec r20
 229 0058 02F4      		brpl 1b
 230               	/* epilogue start */
 223:../../../src/drivers/platform/micaZ/source/TUM_LKN_Sensorboard_driver.c **** }
 232               	.LM8:
 233 005a 0895      		ret
 235               	.Lscope2:
 237               		.stabd	78,0,0
 240               	.global	S2V
 242               	S2V:
 243               		.stabd	46,0,0
 224:../../../src/drivers/platform/micaZ/source/TUM_LKN_Sensorboard_driver.c **** 
 225:../../../src/drivers/platform/micaZ/source/TUM_LKN_Sensorboard_driver.c **** 
 226:../../../src/drivers/platform/micaZ/source/TUM_LKN_Sensorboard_driver.c **** // Conversion functions
 227:../../../src/drivers/platform/micaZ/source/TUM_LKN_Sensorboard_driver.c **** 
 228:../../../src/drivers/platform/micaZ/source/TUM_LKN_Sensorboard_driver.c **** double S2V( uint8_t s ) { return (m_vbatt * ((double)s)) / 256.; }
 245               	.LM9:
 246               	.LFBB3:
 247               	/* prologue: function */
 248               	/* frame size = 0 */
 249               	/* stack size = 0 */
 250               	.L__stack_usage = 0
 252               	.LM10:
 253 005c 682F      		mov r22,r24
 254 005e 70E0      		ldi r23,lo8(0)
 255 0060 80E0      		ldi r24,lo8(0)
 256 0062 90E0      		ldi r25,hi8(0)
 257 0064 0E94 0000 		call __floatunsisf
 258 0068 2091 0000 		lds r18,m_vbatt
 259 006c 3091 0000 		lds r19,m_vbatt+1
 260 0070 4091 0000 		lds r20,m_vbatt+2
 261 0074 5091 0000 		lds r21,m_vbatt+3
 262 0078 0E94 0000 		call __mulsf3
 263 007c 20E0      		ldi r18,lo8(0x3b800000)
 264 007e 30E0      		ldi r19,hi8(0x3b800000)
 265 0080 40E8      		ldi r20,hlo8(0x3b800000)
 266 0082 5BE3      		ldi r21,hhi8(0x3b800000)
 267 0084 0E94 0000 		call __mulsf3
 268               	/* epilogue start */
 269 0088 0895      		ret
 271               	.Lscope3:
 273               		.stabd	78,0,0
 276               	.global	V2S
 278               	V2S:
 279               		.stabd	46,0,0
 229:../../../src/drivers/platform/micaZ/source/TUM_LKN_Sensorboard_driver.c **** uint8_t V2S( double v ) { return (uint8_t) ( (v * 256.) / m_vbatt ); }
 281               	.LM11:
 282               	.LFBB4:
 283               	/* prologue: function */
 284               	/* frame size = 0 */
 285               	/* stack size = 0 */
 286               	.L__stack_usage = 0
 288               	.LM12:
 289 008a 20E0      		ldi r18,lo8(0x43800000)
 290 008c 30E0      		ldi r19,hi8(0x43800000)
 291 008e 40E8      		ldi r20,hlo8(0x43800000)
 292 0090 53E4      		ldi r21,hhi8(0x43800000)
 293 0092 0E94 0000 		call __mulsf3
 294 0096 2091 0000 		lds r18,m_vbatt
 295 009a 3091 0000 		lds r19,m_vbatt+1
 296 009e 4091 0000 		lds r20,m_vbatt+2
 297 00a2 5091 0000 		lds r21,m_vbatt+3
 298 00a6 0E94 0000 		call __divsf3
 299 00aa 0E94 0000 		call __fixunssfsi
 300 00ae 862F      		mov r24,r22
 301               	/* epilogue start */
 302 00b0 0895      		ret
 304               	.Lscope4:
 306               		.stabd	78,0,0
 311               	.global	setBits
 313               	setBits:
 314               		.stabd	46,0,0
 230:../../../src/drivers/platform/micaZ/source/TUM_LKN_Sensorboard_driver.c **** 
 231:../../../src/drivers/platform/micaZ/source/TUM_LKN_Sensorboard_driver.c **** uint8_t setBits( uint8_t data, uint8_t mask, uint8_t bits ) { return( ( data & mask ) | bits ); }
 316               	.LM13:
 317               	.LFBB5:
 318               	/* prologue: function */
 319               	/* frame size = 0 */
 320               	/* stack size = 0 */
 321               	.L__stack_usage = 0
 323               	.LM14:
 324 00b2 6823      		and r22,r24
 325 00b4 842F      		mov r24,r20
 326 00b6 862B      		or r24,r22
 327               	/* epilogue start */
 328 00b8 0895      		ret
 330               	.Lscope5:
 332               		.stabd	78,0,0
 335               	.global	prescalerSec2Hex
 337               	prescalerSec2Hex:
 338               		.stabd	46,0,0
 232:../../../src/drivers/platform/micaZ/source/TUM_LKN_Sensorboard_driver.c **** 
 233:../../../src/drivers/platform/micaZ/source/TUM_LKN_Sensorboard_driver.c **** 
 234:../../../src/drivers/platform/micaZ/source/TUM_LKN_Sensorboard_driver.c **** 
 235:../../../src/drivers/platform/micaZ/source/TUM_LKN_Sensorboard_driver.c **** // For a given time period (s), compute the value for the prescaler register
 236:../../../src/drivers/platform/micaZ/source/TUM_LKN_Sensorboard_driver.c **** uint8_t prescalerSec2Hex(double t)
 237:../../../src/drivers/platform/micaZ/source/TUM_LKN_Sensorboard_driver.c **** {
 340               	.LM15:
 341               	.LFBB6:
 342 00ba EF92      		push r14
 343 00bc FF92      		push r15
 344 00be 0F93      		push r16
 345 00c0 1F93      		push r17
 346               	/* prologue: function */
 347               	/* frame size = 0 */
 348               	/* stack size = 4 */
 349               	.L__stack_usage = 4
 350 00c2 7B01      		movw r14,r22
 351 00c4 8C01      		movw r16,r24
 238:../../../src/drivers/platform/micaZ/source/TUM_LKN_Sensorboard_driver.c **** 	if (t > 255.0 * 152.0)   // 38760 sec = 10h46'00''
 353               	.LM16:
 354 00c6 20E0      		ldi r18,lo8(0x47176800)
 355 00c8 38E6      		ldi r19,hi8(0x47176800)
 356 00ca 47E1      		ldi r20,hlo8(0x47176800)
 357 00cc 57E4      		ldi r21,hhi8(0x47176800)
 358 00ce 0E94 0000 		call __gtsf2
 359 00d2 1816      		cp __zero_reg__,r24
 360 00d4 04F0      		brlt .L9
 239:../../../src/drivers/platform/micaZ/source/TUM_LKN_Sensorboard_driver.c **** 		return( 0xFF );
 240:../../../src/drivers/platform/micaZ/source/TUM_LKN_Sensorboard_driver.c **** 	else if (t >= 1./152.0)
 362               	.LM17:
 363 00d6 C801      		movw r24,r16
 364 00d8 B701      		movw r22,r14
 365 00da 26E3      		ldi r18,lo8(0x3bd79436)
 366 00dc 34E9      		ldi r19,hi8(0x3bd79436)
 367 00de 47ED      		ldi r20,hlo8(0x3bd79436)
 368 00e0 5BE3      		ldi r21,hhi8(0x3bd79436)
 369 00e2 0E94 0000 		call __gesf2
 370 00e6 87FD      		sbrc r24,7
 371 00e8 00C0      		rjmp .L12
 241:../../../src/drivers/platform/micaZ/source/TUM_LKN_Sensorboard_driver.c **** 		return( (uint8_t) (t * 152 - 1) );
 373               	.LM18:
 374 00ea C801      		movw r24,r16
 375 00ec B701      		movw r22,r14
 376 00ee 20E0      		ldi r18,lo8(0x43180000)
 377 00f0 30E0      		ldi r19,hi8(0x43180000)
 378 00f2 48E1      		ldi r20,hlo8(0x43180000)
 379 00f4 53E4      		ldi r21,hhi8(0x43180000)
 380 00f6 0E94 0000 		call __mulsf3
 381 00fa 20E0      		ldi r18,lo8(0x3f800000)
 382 00fc 30E0      		ldi r19,hi8(0x3f800000)
 383 00fe 40E8      		ldi r20,hlo8(0x3f800000)
 384 0100 5FE3      		ldi r21,hhi8(0x3f800000)
 385 0102 0E94 0000 		call __subsf3
 386 0106 0E94 0000 		call __fixunssfsi
 387 010a 862F      		mov r24,r22
 388 010c 00C0      		rjmp .L7
 389               	.L9:
 239:../../../src/drivers/platform/micaZ/source/TUM_LKN_Sensorboard_driver.c **** 		return( 0xFF );
 391               	.LM19:
 392 010e 8FEF      		ldi r24,lo8(-1)
 393 0110 00C0      		rjmp .L7
 394               	.L12:
 242:../../../src/drivers/platform/micaZ/source/TUM_LKN_Sensorboard_driver.c **** 	else
 243:../../../src/drivers/platform/micaZ/source/TUM_LKN_Sensorboard_driver.c **** 		return( 0x00 );
 396               	.LM20:
 397 0112 80E0      		ldi r24,lo8(0)
 398               	.L7:
 399               	/* epilogue start */
 244:../../../src/drivers/platform/micaZ/source/TUM_LKN_Sensorboard_driver.c **** }
 401               	.LM21:
 402 0114 1F91      		pop r17
 403 0116 0F91      		pop r16
 404 0118 FF90      		pop r15
 405 011a EF90      		pop r14
 406 011c 0895      		ret
 408               	.Lscope6:
 410               		.stabd	78,0,0
 413               	.global	pwmFrac2Hex
 415               	pwmFrac2Hex:
 416               		.stabd	46,0,0
 245:../../../src/drivers/platform/micaZ/source/TUM_LKN_Sensorboard_driver.c **** 
 246:../../../src/drivers/platform/micaZ/source/TUM_LKN_Sensorboard_driver.c **** 
 247:../../../src/drivers/platform/micaZ/source/TUM_LKN_Sensorboard_driver.c **** 
 248:../../../src/drivers/platform/micaZ/source/TUM_LKN_Sensorboard_driver.c **** // For a given fraction ([0; 1]), compute the value for the PWM register
 249:../../../src/drivers/platform/micaZ/source/TUM_LKN_Sensorboard_driver.c **** uint8_t pwmFrac2Hex(double fraction)
 250:../../../src/drivers/platform/micaZ/source/TUM_LKN_Sensorboard_driver.c **** {
 418               	.LM22:
 419               	.LFBB7:
 420 011e EF92      		push r14
 421 0120 FF92      		push r15
 422 0122 0F93      		push r16
 423 0124 1F93      		push r17
 424               	/* prologue: function */
 425               	/* frame size = 0 */
 426               	/* stack size = 4 */
 427               	.L__stack_usage = 4
 428 0126 7B01      		movw r14,r22
 429 0128 8C01      		movw r16,r24
 251:../../../src/drivers/platform/micaZ/source/TUM_LKN_Sensorboard_driver.c **** 	if (fraction >= 1.0)
 431               	.LM23:
 432 012a 20E0      		ldi r18,lo8(0x3f800000)
 433 012c 30E0      		ldi r19,hi8(0x3f800000)
 434 012e 40E8      		ldi r20,hlo8(0x3f800000)
 435 0130 5FE3      		ldi r21,hhi8(0x3f800000)
 436 0132 0E94 0000 		call __gesf2
 437 0136 87FF      		sbrs r24,7
 438 0138 00C0      		rjmp .L16
 252:../../../src/drivers/platform/micaZ/source/TUM_LKN_Sensorboard_driver.c **** 		return( 0xFF );
 253:../../../src/drivers/platform/micaZ/source/TUM_LKN_Sensorboard_driver.c **** 	else if (fraction >= 1.0/256.0)
 440               	.LM24:
 441 013a C801      		movw r24,r16
 442 013c B701      		movw r22,r14
 443 013e 20E0      		ldi r18,lo8(0x3b800000)
 444 0140 30E0      		ldi r19,hi8(0x3b800000)
 445 0142 40E8      		ldi r20,hlo8(0x3b800000)
 446 0144 5BE3      		ldi r21,hhi8(0x3b800000)
 447 0146 0E94 0000 		call __gesf2
 448 014a 87FD      		sbrc r24,7
 449 014c 00C0      		rjmp .L19
 254:../../../src/drivers/platform/micaZ/source/TUM_LKN_Sensorboard_driver.c **** 		return( (uint8_t) (fraction * 256) );
 451               	.LM25:
 452 014e C801      		movw r24,r16
 453 0150 B701      		movw r22,r14
 454 0152 20E0      		ldi r18,lo8(0x43800000)
 455 0154 30E0      		ldi r19,hi8(0x43800000)
 456 0156 40E8      		ldi r20,hlo8(0x43800000)
 457 0158 53E4      		ldi r21,hhi8(0x43800000)
 458 015a 0E94 0000 		call __mulsf3
 459 015e 0E94 0000 		call __fixunssfsi
 460 0162 862F      		mov r24,r22
 461 0164 00C0      		rjmp .L14
 462               	.L16:
 252:../../../src/drivers/platform/micaZ/source/TUM_LKN_Sensorboard_driver.c **** 		return( 0xFF );
 464               	.LM26:
 465 0166 8FEF      		ldi r24,lo8(-1)
 466 0168 00C0      		rjmp .L14
 467               	.L19:
 255:../../../src/drivers/platform/micaZ/source/TUM_LKN_Sensorboard_driver.c **** 	else
 256:../../../src/drivers/platform/micaZ/source/TUM_LKN_Sensorboard_driver.c **** 		return( 0x00 );
 469               	.LM27:
 470 016a 80E0      		ldi r24,lo8(0)
 471               	.L14:
 472               	/* epilogue start */
 257:../../../src/drivers/platform/micaZ/source/TUM_LKN_Sensorboard_driver.c **** }
 474               	.LM28:
 475 016c 1F91      		pop r17
 476 016e 0F91      		pop r16
 477 0170 FF90      		pop r15
 478 0172 EF90      		pop r14
 479 0174 0895      		ret
 481               	.Lscope7:
 483               		.stabd	78,0,0
 485               	.global	TUM_LKN_Sensorboard_getCurrentStep
 487               	TUM_LKN_Sensorboard_getCurrentStep:
 488               		.stabd	46,0,0
 258:../../../src/drivers/platform/micaZ/source/TUM_LKN_Sensorboard_driver.c **** 
 259:../../../src/drivers/platform/micaZ/source/TUM_LKN_Sensorboard_driver.c **** 
 260:../../../src/drivers/platform/micaZ/source/TUM_LKN_Sensorboard_driver.c **** 
 261:../../../src/drivers/platform/micaZ/source/TUM_LKN_Sensorboard_driver.c **** // Convenience functions
 262:../../../src/drivers/platform/micaZ/source/TUM_LKN_Sensorboard_driver.c **** void TUM_LKN_Sensorboard_init() 									{ writeIOs( 0xFF ); writeDAC( 0x00 ); }
 263:../../../src/drivers/platform/micaZ/source/TUM_LKN_Sensorboard_driver.c **** //TUM_LKN_Sensorboard_readIOs() 								{ readIOs(); }
 264:../../../src/drivers/platform/micaZ/source/TUM_LKN_Sensorboard_driver.c **** void TUM_LKN_Sensorboard_writeIOs( uint8_t data ) 			{ writeIOs( data ); }
 265:../../../src/drivers/platform/micaZ/source/TUM_LKN_Sensorboard_driver.c **** void TUM_LKN_Sensorboard_writeIO( uint8_t io, bool set ) { writeIOs( setBits( m_lastxs, ~(0x01 << i
 266:../../../src/drivers/platform/micaZ/source/TUM_LKN_Sensorboard_driver.c **** void TUM_LKN_Sensorboard_setBeeper( bool set ) 				{ writeIOs( setBits( m_lastxs, 0xF7, (set == FAL
 267:../../../src/drivers/platform/micaZ/source/TUM_LKN_Sensorboard_driver.c **** 
 268:../../../src/drivers/platform/micaZ/source/TUM_LKN_Sensorboard_driver.c **** 
 269:../../../src/drivers/platform/micaZ/source/TUM_LKN_Sensorboard_driver.c **** void TUM_LKN_Sensorboard_StepperIdle()
 270:../../../src/drivers/platform/micaZ/source/TUM_LKN_Sensorboard_driver.c **** {
 271:../../../src/drivers/platform/micaZ/source/TUM_LKN_Sensorboard_driver.c ****     writeIOs( setBits( m_lastxs, 0x0F, 0xF0 ) );
 272:../../../src/drivers/platform/micaZ/source/TUM_LKN_Sensorboard_driver.c **** }
 273:../../../src/drivers/platform/micaZ/source/TUM_LKN_Sensorboard_driver.c **** 
 274:../../../src/drivers/platform/micaZ/source/TUM_LKN_Sensorboard_driver.c **** void TUM_LKN_Sensorboard_stepCCW()
 275:../../../src/drivers/platform/micaZ/source/TUM_LKN_Sensorboard_driver.c **** {
 276:../../../src/drivers/platform/micaZ/source/TUM_LKN_Sensorboard_driver.c **** 	writeIOs( setBits( m_lastxs, 0x0F, steps[ m_currentstep ] ) );
 277:../../../src/drivers/platform/micaZ/source/TUM_LKN_Sensorboard_driver.c **** 	m_currentstep = (m_currentstep + 2) & 0x06;
 278:../../../src/drivers/platform/micaZ/source/TUM_LKN_Sensorboard_driver.c **** }
 279:../../../src/drivers/platform/micaZ/source/TUM_LKN_Sensorboard_driver.c **** 
 280:../../../src/drivers/platform/micaZ/source/TUM_LKN_Sensorboard_driver.c **** 
 281:../../../src/drivers/platform/micaZ/source/TUM_LKN_Sensorboard_driver.c **** 
 282:../../../src/drivers/platform/micaZ/source/TUM_LKN_Sensorboard_driver.c **** void TUM_LKN_Sensorboard_stepCW()
 283:../../../src/drivers/platform/micaZ/source/TUM_LKN_Sensorboard_driver.c **** {
 284:../../../src/drivers/platform/micaZ/source/TUM_LKN_Sensorboard_driver.c **** 	writeIOs( setBits( m_lastxs, 0x0F, steps[ m_currentstep ] ) );
 285:../../../src/drivers/platform/micaZ/source/TUM_LKN_Sensorboard_driver.c **** 	m_currentstep = (m_currentstep + 6) & 0x06;
 286:../../../src/drivers/platform/micaZ/source/TUM_LKN_Sensorboard_driver.c **** }
 287:../../../src/drivers/platform/micaZ/source/TUM_LKN_Sensorboard_driver.c **** 
 288:../../../src/drivers/platform/micaZ/source/TUM_LKN_Sensorboard_driver.c **** 
 289:../../../src/drivers/platform/micaZ/source/TUM_LKN_Sensorboard_driver.c **** 
 290:../../../src/drivers/platform/micaZ/source/TUM_LKN_Sensorboard_driver.c **** void TUM_LKN_Sensorboard_halfStepCCW()
 291:../../../src/drivers/platform/micaZ/source/TUM_LKN_Sensorboard_driver.c **** {
 292:../../../src/drivers/platform/micaZ/source/TUM_LKN_Sensorboard_driver.c **** 	writeIOs( setBits( m_lastxs, 0x0F, steps[ m_currentstep ] ) );
 293:../../../src/drivers/platform/micaZ/source/TUM_LKN_Sensorboard_driver.c **** 	m_currentstep = (m_currentstep + 1) & 0x07;
 294:../../../src/drivers/platform/micaZ/source/TUM_LKN_Sensorboard_driver.c **** }
 295:../../../src/drivers/platform/micaZ/source/TUM_LKN_Sensorboard_driver.c **** 
 296:../../../src/drivers/platform/micaZ/source/TUM_LKN_Sensorboard_driver.c **** 
 297:../../../src/drivers/platform/micaZ/source/TUM_LKN_Sensorboard_driver.c **** 
 298:../../../src/drivers/platform/micaZ/source/TUM_LKN_Sensorboard_driver.c **** void TUM_LKN_Sensorboard_halfStepCW()
 299:../../../src/drivers/platform/micaZ/source/TUM_LKN_Sensorboard_driver.c **** {
 300:../../../src/drivers/platform/micaZ/source/TUM_LKN_Sensorboard_driver.c **** 	writeIOs( setBits( m_lastxs, 0x0F, steps[ m_currentstep ] ) );
 301:../../../src/drivers/platform/micaZ/source/TUM_LKN_Sensorboard_driver.c **** 	m_currentstep = (m_currentstep + 7) & 0x07;
 302:../../../src/drivers/platform/micaZ/source/TUM_LKN_Sensorboard_driver.c **** }
 303:../../../src/drivers/platform/micaZ/source/TUM_LKN_Sensorboard_driver.c **** 
 304:../../../src/drivers/platform/micaZ/source/TUM_LKN_Sensorboard_driver.c **** 
 305:../../../src/drivers/platform/micaZ/source/TUM_LKN_Sensorboard_driver.c **** 
 306:../../../src/drivers/platform/micaZ/source/TUM_LKN_Sensorboard_driver.c **** unsigned char TUM_LKN_Sensorboard_getCurrentStep() { return m_currentstep; }
 490               	.LM29:
 491               	.LFBB8:
 492               	/* prologue: function */
 493               	/* frame size = 0 */
 494               	/* stack size = 0 */
 495               	.L__stack_usage = 0
 497               	.LM30:
 498 0176 8091 0000 		lds r24,m_currentstep
 499               	/* epilogue start */
 500 017a 0895      		ret
 502               	.Lscope8:
 504               		.stabd	78,0,0
 508               	.global	TUM_LKN_Sensorboard_setControl0
 510               	TUM_LKN_Sensorboard_setControl0:
 511               		.stabd	46,0,0
 307:../../../src/drivers/platform/micaZ/source/TUM_LKN_Sensorboard_driver.c **** 
 308:../../../src/drivers/platform/micaZ/source/TUM_LKN_Sensorboard_driver.c **** void TUM_LKN_Sensorboard_readPhotoVoltage() { readADC( 0 ); }
 309:../../../src/drivers/platform/micaZ/source/TUM_LKN_Sensorboard_driver.c **** void TUM_LKN_Sensorboard_readChannel1() { readADC( 1 ); }
 310:../../../src/drivers/platform/micaZ/source/TUM_LKN_Sensorboard_driver.c **** void TUM_LKN_Sensorboard_readChannel2() { readADC( 2 ); }
 311:../../../src/drivers/platform/micaZ/source/TUM_LKN_Sensorboard_driver.c **** void TUM_LKN_Sensorboard_readChannel3() { readADC( 3 ); }
 312:../../../src/drivers/platform/micaZ/source/TUM_LKN_Sensorboard_driver.c **** void TUM_LKN_Sensorboard_readChannel( uint8_t ch ) { readADC( ch ); }
 313:../../../src/drivers/platform/micaZ/source/TUM_LKN_Sensorboard_driver.c **** void TUM_LKN_Sensorboard_writeValue( double voltage ) { writeDAC( V2S( voltage ) ); }
 314:../../../src/drivers/platform/micaZ/source/TUM_LKN_Sensorboard_driver.c **** 
 315:../../../src/drivers/platform/micaZ/source/TUM_LKN_Sensorboard_driver.c **** 
 316:../../../src/drivers/platform/micaZ/source/TUM_LKN_Sensorboard_driver.c **** 
 317:../../../src/drivers/platform/micaZ/source/TUM_LKN_Sensorboard_driver.c **** // We can define two pairs of prescaler/PWM.
 318:../../../src/drivers/platform/micaZ/source/TUM_LKN_Sensorboard_driver.c **** // blinkPeriod is in seconds, dutyCycle is in [0; 1]
 319:../../../src/drivers/platform/micaZ/source/TUM_LKN_Sensorboard_driver.c **** void TUM_LKN_Sensorboard_setControl0( double blinkPeriod, double dutyCycle )
 320:../../../src/drivers/platform/micaZ/source/TUM_LKN_Sensorboard_driver.c **** {
 513               	.LM31:
 514               	.LFBB9:
 515 017c EF92      		push r14
 516 017e FF92      		push r15
 517 0180 0F93      		push r16
 518 0182 1F93      		push r17
 519               	/* prologue: function */
 520               	/* frame size = 0 */
 521               	/* stack size = 4 */
 522               	.L__stack_usage = 4
 523 0184 7901      		movw r14,r18
 524 0186 8A01      		movw r16,r20
 321:../../../src/drivers/platform/micaZ/source/TUM_LKN_Sensorboard_driver.c **** 	m_prescaler[ 0 ] = prescalerSec2Hex( blinkPeriod );
 526               	.LM32:
 527 0188 0E94 0000 		call prescalerSec2Hex
 528 018c 8093 0000 		sts m_prescaler,r24
 322:../../../src/drivers/platform/micaZ/source/TUM_LKN_Sensorboard_driver.c **** 	m_pwm[ 0 ] = pwmFrac2Hex( dutyCycle );
 530               	.LM33:
 531 0190 C801      		movw r24,r16
 532 0192 B701      		movw r22,r14
 533 0194 0E94 0000 		call pwmFrac2Hex
 534 0198 8093 0000 		sts m_pwm,r24
 535               	/* epilogue start */
 323:../../../src/drivers/platform/micaZ/source/TUM_LKN_Sensorboard_driver.c **** }
 537               	.LM34:
 538 019c 1F91      		pop r17
 539 019e 0F91      		pop r16
 540 01a0 FF90      		pop r15
 541 01a2 EF90      		pop r14
 542 01a4 0895      		ret
 544               	.Lscope9:
 546               		.stabd	78,0,0
 550               	.global	TUM_LKN_Sensorboard_setControl1
 552               	TUM_LKN_Sensorboard_setControl1:
 553               		.stabd	46,0,0
 324:../../../src/drivers/platform/micaZ/source/TUM_LKN_Sensorboard_driver.c **** 
 325:../../../src/drivers/platform/micaZ/source/TUM_LKN_Sensorboard_driver.c **** 
 326:../../../src/drivers/platform/micaZ/source/TUM_LKN_Sensorboard_driver.c **** 
 327:../../../src/drivers/platform/micaZ/source/TUM_LKN_Sensorboard_driver.c **** void TUM_LKN_Sensorboard_setControl1( double blinkPeriod, double dutyCycle )
 328:../../../src/drivers/platform/micaZ/source/TUM_LKN_Sensorboard_driver.c **** {
 555               	.LM35:
 556               	.LFBB10:
 557 01a6 EF92      		push r14
 558 01a8 FF92      		push r15
 559 01aa 0F93      		push r16
 560 01ac 1F93      		push r17
 561               	/* prologue: function */
 562               	/* frame size = 0 */
 563               	/* stack size = 4 */
 564               	.L__stack_usage = 4
 565 01ae 7901      		movw r14,r18
 566 01b0 8A01      		movw r16,r20
 329:../../../src/drivers/platform/micaZ/source/TUM_LKN_Sensorboard_driver.c **** 	m_prescaler[ 1 ] = prescalerSec2Hex( blinkPeriod );
 568               	.LM36:
 569 01b2 0E94 0000 		call prescalerSec2Hex
 570 01b6 8093 0000 		sts m_prescaler+1,r24
 330:../../../src/drivers/platform/micaZ/source/TUM_LKN_Sensorboard_driver.c **** 	m_pwm[ 1 ] = pwmFrac2Hex( dutyCycle );
 572               	.LM37:
 573 01ba C801      		movw r24,r16
 574 01bc B701      		movw r22,r14
 575 01be 0E94 0000 		call pwmFrac2Hex
 576 01c2 8093 0000 		sts m_pwm+1,r24
 577               	/* epilogue start */
 331:../../../src/drivers/platform/micaZ/source/TUM_LKN_Sensorboard_driver.c **** }
 579               	.LM38:
 580 01c6 1F91      		pop r17
 581 01c8 0F91      		pop r16
 582 01ca FF90      		pop r15
 583 01cc EF90      		pop r14
 584 01ce 0895      		ret
 586               	.Lscope10:
 588               		.stabd	78,0,0
 591               	.global	TUM_LKN_Sensorboard_setBrightness0
 593               	TUM_LKN_Sensorboard_setBrightness0:
 594               		.stabd	46,0,0
 332:../../../src/drivers/platform/micaZ/source/TUM_LKN_Sensorboard_driver.c **** 
 333:../../../src/drivers/platform/micaZ/source/TUM_LKN_Sensorboard_driver.c **** 
 334:../../../src/drivers/platform/micaZ/source/TUM_LKN_Sensorboard_driver.c **** 
 335:../../../src/drivers/platform/micaZ/source/TUM_LKN_Sensorboard_driver.c **** void TUM_LKN_Sensorboard_setBrightness0( double dutyCycle )
 336:../../../src/drivers/platform/micaZ/source/TUM_LKN_Sensorboard_driver.c **** {
 596               	.LM39:
 597               	.LFBB11:
 598               	/* prologue: function */
 599               	/* frame size = 0 */
 600               	/* stack size = 0 */
 601               	.L__stack_usage = 0
 337:../../../src/drivers/platform/micaZ/source/TUM_LKN_Sensorboard_driver.c **** 	m_prescaler[ 0 ] = 0x00;   // Highest frequency possible
 603               	.LM40:
 604 01d0 1092 0000 		sts m_prescaler,__zero_reg__
 338:../../../src/drivers/platform/micaZ/source/TUM_LKN_Sensorboard_driver.c **** 	m_pwm[ 0 ] = pwmFrac2Hex( dutyCycle );
 606               	.LM41:
 607 01d4 0E94 0000 		call pwmFrac2Hex
 608 01d8 8093 0000 		sts m_pwm,r24
 609               	/* epilogue start */
 339:../../../src/drivers/platform/micaZ/source/TUM_LKN_Sensorboard_driver.c **** }
 611               	.LM42:
 612 01dc 0895      		ret
 614               	.Lscope11:
 616               		.stabd	78,0,0
 619               	.global	TUM_LKN_Sensorboard_setBrightness1
 621               	TUM_LKN_Sensorboard_setBrightness1:
 622               		.stabd	46,0,0
 340:../../../src/drivers/platform/micaZ/source/TUM_LKN_Sensorboard_driver.c **** 
 341:../../../src/drivers/platform/micaZ/source/TUM_LKN_Sensorboard_driver.c **** 
 342:../../../src/drivers/platform/micaZ/source/TUM_LKN_Sensorboard_driver.c **** 
 343:../../../src/drivers/platform/micaZ/source/TUM_LKN_Sensorboard_driver.c **** void TUM_LKN_Sensorboard_setBrightness1( double dutyCycle )
 344:../../../src/drivers/platform/micaZ/source/TUM_LKN_Sensorboard_driver.c **** {
 624               	.LM43:
 625               	.LFBB12:
 626               	/* prologue: function */
 627               	/* frame size = 0 */
 628               	/* stack size = 0 */
 629               	.L__stack_usage = 0
 345:../../../src/drivers/platform/micaZ/source/TUM_LKN_Sensorboard_driver.c **** 	m_prescaler[ 1 ] = 0x00;   // Highest frequency possible
 631               	.LM44:
 632 01de 1092 0000 		sts m_prescaler+1,__zero_reg__
 346:../../../src/drivers/platform/micaZ/source/TUM_LKN_Sensorboard_driver.c **** 	m_pwm[ 1 ] = pwmFrac2Hex( dutyCycle );
 634               	.LM45:
 635 01e2 0E94 0000 		call pwmFrac2Hex
 636 01e6 8093 0000 		sts m_pwm+1,r24
 637               	/* epilogue start */
 347:../../../src/drivers/platform/micaZ/source/TUM_LKN_Sensorboard_driver.c **** }
 639               	.LM46:
 640 01ea 0895      		ret
 642               	.Lscope12:
 644               		.stabd	78,0,0
 648               	.global	TWI_write
 650               	TWI_write:
 651               		.stabd	46,0,0
 348:../../../src/drivers/platform/micaZ/source/TUM_LKN_Sensorboard_driver.c **** 
 349:../../../src/drivers/platform/micaZ/source/TUM_LKN_Sensorboard_driver.c **** 
 350:../../../src/drivers/platform/micaZ/source/TUM_LKN_Sensorboard_driver.c **** 
 351:../../../src/drivers/platform/micaZ/source/TUM_LKN_Sensorboard_driver.c **** void TUM_LKN_Sensorboard_laserOn() 							{ setLedMode( 3, REG_LED_ON ); setLeds(); }
 352:../../../src/drivers/platform/micaZ/source/TUM_LKN_Sensorboard_driver.c **** void TUM_LKN_Sensorboard_laserOff() 						{ setLedMode( 3, REG_LED_OFF ); setLeds(); }
 353:../../../src/drivers/platform/micaZ/source/TUM_LKN_Sensorboard_driver.c **** void TUM_LKN_Sensorboard_laserToggle() 					{ setLedMode( 3, getLedMode( 3 ) ^ 0x01 ); setLeds(); }
 354:../../../src/drivers/platform/micaZ/source/TUM_LKN_Sensorboard_driver.c **** void TUM_LKN_Sensorboard_laserBlink( uint8_t ctl ) 	{ setLedMode( 3, 0x02 | (ctl & 0x01) ); setLeds
 355:../../../src/drivers/platform/micaZ/source/TUM_LKN_Sensorboard_driver.c **** 
 356:../../../src/drivers/platform/micaZ/source/TUM_LKN_Sensorboard_driver.c **** void TUM_LKN_Sensorboard_redOn() 							{ setLedMode( 0, REG_LED_ON ); setLeds(); }
 357:../../../src/drivers/platform/micaZ/source/TUM_LKN_Sensorboard_driver.c **** void TUM_LKN_Sensorboard_redOff() 							{ setLedMode( 0, REG_LED_OFF ); setLeds(); }
 358:../../../src/drivers/platform/micaZ/source/TUM_LKN_Sensorboard_driver.c **** void TUM_LKN_Sensorboard_redToggle() 						{ setLedMode( 0, getLedMode( 0 ) ^ 0x01 ); setLeds(); }
 359:../../../src/drivers/platform/micaZ/source/TUM_LKN_Sensorboard_driver.c **** void TUM_LKN_Sensorboard_redBlink( uint8_t ctl ) 		{ setLedMode( 0, 0x02 | (ctl & 0x01) ); setLeds(
 360:../../../src/drivers/platform/micaZ/source/TUM_LKN_Sensorboard_driver.c **** 
 361:../../../src/drivers/platform/micaZ/source/TUM_LKN_Sensorboard_driver.c **** void TUM_LKN_Sensorboard_yellowOn() 						{ setLedMode( 1, REG_LED_ON ); setLeds(); }
 362:../../../src/drivers/platform/micaZ/source/TUM_LKN_Sensorboard_driver.c **** void TUM_LKN_Sensorboard_yellowOff() 						{ setLedMode( 1, REG_LED_OFF ); setLeds(); }
 363:../../../src/drivers/platform/micaZ/source/TUM_LKN_Sensorboard_driver.c **** void TUM_LKN_Sensorboard_yellowToggle() 					{ setLedMode( 1, getLedMode( 1 ) ^ 0x01 ); setLeds(); 
 364:../../../src/drivers/platform/micaZ/source/TUM_LKN_Sensorboard_driver.c **** void TUM_LKN_Sensorboard_yellowBlink( uint8_t ctl )	{ setLedMode( 1, 0x02 | (ctl & 0x01) ); setLeds
 365:../../../src/drivers/platform/micaZ/source/TUM_LKN_Sensorboard_driver.c **** 
 366:../../../src/drivers/platform/micaZ/source/TUM_LKN_Sensorboard_driver.c **** void TUM_LKN_Sensorboard_greenOn() 							{ setLedMode( 2, REG_LED_ON ); setLeds(); }
 367:../../../src/drivers/platform/micaZ/source/TUM_LKN_Sensorboard_driver.c **** void TUM_LKN_Sensorboard_greenOff() 						{ setLedMode( 2, REG_LED_OFF ); setLeds(); }
 368:../../../src/drivers/platform/micaZ/source/TUM_LKN_Sensorboard_driver.c **** void TUM_LKN_Sensorboard_greenToggle() 					{ setLedMode( 2, getLedMode( 2 ) ^ 0x01 ); setLeds(); }
 369:../../../src/drivers/platform/micaZ/source/TUM_LKN_Sensorboard_driver.c **** void TUM_LKN_Sensorboard_greenBlink( uint8_t ctl ) 	{ setLedMode( 2, 0x02 | (ctl & 0x01) ); setLeds
 370:../../../src/drivers/platform/micaZ/source/TUM_LKN_Sensorboard_driver.c **** 
 371:../../../src/drivers/platform/micaZ/source/TUM_LKN_Sensorboard_driver.c **** 
 372:../../../src/drivers/platform/micaZ/source/TUM_LKN_Sensorboard_driver.c **** 
 373:../../../src/drivers/platform/micaZ/source/TUM_LKN_Sensorboard_driver.c **** void TWI_write(unsigned char address, unsigned char length, unsigned char* payload)
 374:../../../src/drivers/platform/micaZ/source/TUM_LKN_Sensorboard_driver.c **** {
 653               	.LM47:
 654               	.LFBB13:
 655               	/* prologue: function */
 656               	/* frame size = 0 */
 657               	/* stack size = 0 */
 658               	.L__stack_usage = 0
 375:../../../src/drivers/platform/micaZ/source/TUM_LKN_Sensorboard_driver.c **** 	unsigned char datapointer;
 376:../../../src/drivers/platform/micaZ/source/TUM_LKN_Sensorboard_driver.c **** 
 377:../../../src/drivers/platform/micaZ/source/TUM_LKN_Sensorboard_driver.c **** 	PORTD |= 0x03;		//enable Portpin pullups
 660               	.LM48:
 661 01ec 92B3      		in r25,50-32
 662 01ee 9360      		ori r25,lo8(3)
 663 01f0 92BB      		out 50-32,r25
 378:../../../src/drivers/platform/micaZ/source/TUM_LKN_Sensorboard_driver.c **** 
 379:../../../src/drivers/platform/micaZ/source/TUM_LKN_Sensorboard_driver.c **** 	TWSR = 0;                             // set prescaler == 0
 665               	.LM49:
 666 01f2 1092 7100 		sts 113,__zero_reg__
 380:../../../src/drivers/platform/micaZ/source/TUM_LKN_Sensorboard_driver.c **** 	//TWBR = (F_CPU / 50000UL - 16) / 2;   // set I2C baud rate
 381:../../../src/drivers/platform/micaZ/source/TUM_LKN_Sensorboard_driver.c **** 	TWBR = 62;
 668               	.LM50:
 669 01f6 9EE3      		ldi r25,lo8(62)
 670 01f8 9093 7000 		sts 112,r25
 382:../../../src/drivers/platform/micaZ/source/TUM_LKN_Sensorboard_driver.c **** 	TWAR = 0;
 672               	.LM51:
 673 01fc 1092 7200 		sts 114,__zero_reg__
 383:../../../src/drivers/platform/micaZ/source/TUM_LKN_Sensorboard_driver.c **** 	TWCR = 0;
 675               	.LM52:
 676 0200 1092 7400 		sts 116,__zero_reg__
 384:../../../src/drivers/platform/micaZ/source/TUM_LKN_Sensorboard_driver.c **** 
 385:../../../src/drivers/platform/micaZ/source/TUM_LKN_Sensorboard_driver.c **** 	TWCR = (1<<TWINT)|(1<<TWSTA)|(1<<TWEN);
 678               	.LM53:
 679 0204 94EA      		ldi r25,lo8(-92)
 680 0206 9093 7400 		sts 116,r25
 681               	.L26:
 386:../../../src/drivers/platform/micaZ/source/TUM_LKN_Sensorboard_driver.c **** 	while (!(TWCR & (1<<TWINT)));
 683               	.LM54:
 684 020a 9091 7400 		lds r25,116
 685 020e 97FF      		sbrs r25,7
 686 0210 00C0      		rjmp .L26
 387:../../../src/drivers/platform/micaZ/source/TUM_LKN_Sensorboard_driver.c **** //		if ((TWSR & 0xF8) != START) {} //ERROR
 388:../../../src/drivers/platform/micaZ/source/TUM_LKN_Sensorboard_driver.c **** 	TWDR = address;
 688               	.LM55:
 689 0212 8093 7300 		sts 115,r24
 389:../../../src/drivers/platform/micaZ/source/TUM_LKN_Sensorboard_driver.c **** 	TWCR = (1<<TWINT) | (1<<TWEN);								//clear TWINT to start transmission of address
 691               	.LM56:
 692 0216 84E8      		ldi r24,lo8(-124)
 693 0218 8093 7400 		sts 116,r24
 694               	.L27:
 390:../../../src/drivers/platform/micaZ/source/TUM_LKN_Sensorboard_driver.c **** 	while (!(TWCR & (1<<TWINT)));									//wait until transmission is complete
 696               	.LM57:
 697 021c 8091 7400 		lds r24,116
 698 0220 87FF      		sbrs r24,7
 699 0222 00C0      		rjmp .L27
 701               	.LM58:
 702 0224 842F      		mov r24,r20
 703 0226 952F      		mov r25,r21
 704 0228 FC01      		movw r30,r24
 705 022a 80E0      		ldi r24,lo8(0)
 391:../../../src/drivers/platform/micaZ/source/TUM_LKN_Sensorboard_driver.c **** //	  if ((TWSR & 0xF8) != MT_SLA_ACK) {}  //ERROR
 392:../../../src/drivers/platform/micaZ/source/TUM_LKN_Sensorboard_driver.c **** 	for(datapointer = 0; datapointer < length; datapointer++)
 393:../../../src/drivers/platform/micaZ/source/TUM_LKN_Sensorboard_driver.c **** 	{
 394:../../../src/drivers/platform/micaZ/source/TUM_LKN_Sensorboard_driver.c **** 		TWDR = payload[datapointer];
 395:../../../src/drivers/platform/micaZ/source/TUM_LKN_Sensorboard_driver.c **** 		TWCR = (1<<TWINT) | (1<<TWEN);							//clear TWINT to start transmission of data
 707               	.LM59:
 708 022c 94E8      		ldi r25,lo8(-124)
 709 022e 00C0      		rjmp .L28
 710               	.L30:
 394:../../../src/drivers/platform/micaZ/source/TUM_LKN_Sensorboard_driver.c **** 		TWDR = payload[datapointer];
 712               	.LM60:
 713 0230 2191      		ld r18,Z+
 714 0232 2093 7300 		sts 115,r18
 716               	.LM61:
 717 0236 9093 7400 		sts 116,r25
 718               	.L29:
 396:../../../src/drivers/platform/micaZ/source/TUM_LKN_Sensorboard_driver.c **** 		while (!(TWCR & (1<<TWINT)));								//wait until transmission is complete
 720               	.LM62:
 721 023a 2091 7400 		lds r18,116
 722 023e 27FF      		sbrs r18,7
 723 0240 00C0      		rjmp .L29
 392:../../../src/drivers/platform/micaZ/source/TUM_LKN_Sensorboard_driver.c **** 	for(datapointer = 0; datapointer < length; datapointer++)
 725               	.LM63:
 726 0242 8F5F      		subi r24,lo8(-(1))
 727               	.L28:
 392:../../../src/drivers/platform/micaZ/source/TUM_LKN_Sensorboard_driver.c **** 	for(datapointer = 0; datapointer < length; datapointer++)
 729               	.LM64:
 730 0244 8617      		cp r24,r22
 731 0246 00F0      		brlo .L30
 397:../../../src/drivers/platform/micaZ/source/TUM_LKN_Sensorboard_driver.c **** //	  if ((TWSR & 0xF8) != MT_DATA_ACK) {} //ERROR
 398:../../../src/drivers/platform/micaZ/source/TUM_LKN_Sensorboard_driver.c **** 	}
 399:../../../src/drivers/platform/micaZ/source/TUM_LKN_Sensorboard_driver.c **** 	TWCR = (1<<TWINT)|(1<<TWEN)|(1<<TWSTO);				//Stop condition
 733               	.LM65:
 734 0248 84E9      		ldi r24,lo8(-108)
 735 024a 8093 7400 		sts 116,r24
 736               	/* epilogue start */
 400:../../../src/drivers/platform/micaZ/source/TUM_LKN_Sensorboard_driver.c **** }
 738               	.LM66:
 739 024e 0895      		ret
 744               	.Lscope13:
 746               		.stabd	78,0,0
 750               	.global	TWI_read
 752               	TWI_read:
 753               		.stabd	46,0,0
 401:../../../src/drivers/platform/micaZ/source/TUM_LKN_Sensorboard_driver.c **** 
 402:../../../src/drivers/platform/micaZ/source/TUM_LKN_Sensorboard_driver.c **** 
 403:../../../src/drivers/platform/micaZ/source/TUM_LKN_Sensorboard_driver.c **** 
 404:../../../src/drivers/platform/micaZ/source/TUM_LKN_Sensorboard_driver.c **** void TWI_read(unsigned char address, unsigned char length, unsigned char* payload)
 405:../../../src/drivers/platform/micaZ/source/TUM_LKN_Sensorboard_driver.c **** {
 755               	.LM67:
 756               	.LFBB14:
 757               	/* prologue: function */
 758               	/* frame size = 0 */
 759               	/* stack size = 0 */
 760               	.L__stack_usage = 0
 406:../../../src/drivers/platform/micaZ/source/TUM_LKN_Sensorboard_driver.c **** 	unsigned char datapointer;
 407:../../../src/drivers/platform/micaZ/source/TUM_LKN_Sensorboard_driver.c **** 
 408:../../../src/drivers/platform/micaZ/source/TUM_LKN_Sensorboard_driver.c **** 	address |= 0x01;	//Set read mode on i2c
 762               	.LM68:
 763 0250 8160      		ori r24,lo8(1)
 409:../../../src/drivers/platform/micaZ/source/TUM_LKN_Sensorboard_driver.c **** 
 410:../../../src/drivers/platform/micaZ/source/TUM_LKN_Sensorboard_driver.c **** 	PORTD |= 0x03;		//enable Portpin pullups
 765               	.LM69:
 766 0252 92B3      		in r25,50-32
 767 0254 9360      		ori r25,lo8(3)
 768 0256 92BB      		out 50-32,r25
 411:../../../src/drivers/platform/micaZ/source/TUM_LKN_Sensorboard_driver.c **** 
 412:../../../src/drivers/platform/micaZ/source/TUM_LKN_Sensorboard_driver.c **** 	TWSR = 0;                             				// set prescaler == 0
 770               	.LM70:
 771 0258 1092 7100 		sts 113,__zero_reg__
 413:../../../src/drivers/platform/micaZ/source/TUM_LKN_Sensorboard_driver.c **** 	//TWBR = (F_CPU / 50000UL - 16) / 2;   				// set I2C baud rate
 414:../../../src/drivers/platform/micaZ/source/TUM_LKN_Sensorboard_driver.c **** 	TWBR = 62;
 773               	.LM71:
 774 025c 9EE3      		ldi r25,lo8(62)
 775 025e 9093 7000 		sts 112,r25
 415:../../../src/drivers/platform/micaZ/source/TUM_LKN_Sensorboard_driver.c **** 	TWAR = 0;
 777               	.LM72:
 778 0262 1092 7200 		sts 114,__zero_reg__
 416:../../../src/drivers/platform/micaZ/source/TUM_LKN_Sensorboard_driver.c **** 	TWCR = 0;
 780               	.LM73:
 781 0266 1092 7400 		sts 116,__zero_reg__
 417:../../../src/drivers/platform/micaZ/source/TUM_LKN_Sensorboard_driver.c **** 
 418:../../../src/drivers/platform/micaZ/source/TUM_LKN_Sensorboard_driver.c **** 	TWCR = (1<<TWINT)|(1<<TWSTA)|(1<<TWEN);
 783               	.LM74:
 784 026a 94EA      		ldi r25,lo8(-92)
 785 026c 9093 7400 		sts 116,r25
 786               	.L35:
 419:../../../src/drivers/platform/micaZ/source/TUM_LKN_Sensorboard_driver.c **** 	while (!(TWCR & (1<<TWINT)));
 788               	.LM75:
 789 0270 9091 7400 		lds r25,116
 790 0274 97FF      		sbrs r25,7
 791 0276 00C0      		rjmp .L35
 420:../../../src/drivers/platform/micaZ/source/TUM_LKN_Sensorboard_driver.c **** //		if ((TWSR & 0xF8) != START) {} //ERROR
 421:../../../src/drivers/platform/micaZ/source/TUM_LKN_Sensorboard_driver.c **** 	TWDR = address;
 793               	.LM76:
 794 0278 8093 7300 		sts 115,r24
 422:../../../src/drivers/platform/micaZ/source/TUM_LKN_Sensorboard_driver.c **** 	TWCR = (1<<TWINT) | (1<<TWEN);								//clear TWINT to start transmission of address
 796               	.LM77:
 797 027c 84E8      		ldi r24,lo8(-124)
 798 027e 8093 7400 		sts 116,r24
 799               	.L36:
 423:../../../src/drivers/platform/micaZ/source/TUM_LKN_Sensorboard_driver.c **** 	while (!(TWCR & (1<<TWINT)));									//wait until transmission is complete
 801               	.LM78:
 802 0282 8091 7400 		lds r24,116
 803 0286 87FF      		sbrs r24,7
 804 0288 00C0      		rjmp .L36
 806               	.LM79:
 807 028a 842F      		mov r24,r20
 808 028c 952F      		mov r25,r21
 809 028e FC01      		movw r30,r24
 810 0290 80E0      		ldi r24,lo8(0)
 811 0292 90E0      		ldi r25,hi8(0)
 424:../../../src/drivers/platform/micaZ/source/TUM_LKN_Sensorboard_driver.c **** //	  if ((TWSR & 0xF8) != MT_SLA_ACK) {}  //ERROR
 425:../../../src/drivers/platform/micaZ/source/TUM_LKN_Sensorboard_driver.c **** 	for(datapointer = 0; datapointer < length; datapointer++)
 426:../../../src/drivers/platform/micaZ/source/TUM_LKN_Sensorboard_driver.c **** 	{
 427:../../../src/drivers/platform/micaZ/source/TUM_LKN_Sensorboard_driver.c **** 		//is this the correct place for reading???
 428:../../../src/drivers/platform/micaZ/source/TUM_LKN_Sensorboard_driver.c **** 		if (datapointer < (length - 1))	TWCR = (1<<TWINT)|(1<<TWEN)|(1<<TWEA);			//clear TWINT to start t
 813               	.LM80:
 814 0294 262F      		mov r18,r22
 815 0296 30E0      		ldi r19,lo8(0)
 816 0298 2150      		subi r18,lo8(-(-1))
 817 029a 3040      		sbci r19,hi8(-(-1))
 429:../../../src/drivers/platform/micaZ/source/TUM_LKN_Sensorboard_driver.c **** 		else 														TWCR = (1<<TWINT)|(1<<TWEN);								//clear TWINT to start transmission of dat
 819               	.LM81:
 820 029c 54E8      		ldi r21,lo8(-124)
 428:../../../src/drivers/platform/micaZ/source/TUM_LKN_Sensorboard_driver.c **** 		if (datapointer < (length - 1))	TWCR = (1<<TWINT)|(1<<TWEN)|(1<<TWEA);			//clear TWINT to start t
 822               	.LM82:
 823 029e 44EC      		ldi r20,lo8(-60)
 824 02a0 00C0      		rjmp .L37
 825               	.L41:
 826 02a2 8217      		cp r24,r18
 827 02a4 9307      		cpc r25,r19
 828 02a6 04F4      		brge .L38
 428:../../../src/drivers/platform/micaZ/source/TUM_LKN_Sensorboard_driver.c **** 		if (datapointer < (length - 1))	TWCR = (1<<TWINT)|(1<<TWEN)|(1<<TWEA);			//clear TWINT to start t
 830               	.LM83:
 831 02a8 4093 7400 		sts 116,r20
 832 02ac 00C0      		rjmp .L42
 833               	.L38:
 835               	.LM84:
 836 02ae 5093 7400 		sts 116,r21
 837               	.L42:
 430:../../../src/drivers/platform/micaZ/source/TUM_LKN_Sensorboard_driver.c **** 		while (!(TWCR & (1<<TWINT)));								//wait until transmission is complete
 839               	.LM85:
 840 02b2 7091 7400 		lds r23,116
 841 02b6 77FF      		sbrs r23,7
 842 02b8 00C0      		rjmp .L42
 431:../../../src/drivers/platform/micaZ/source/TUM_LKN_Sensorboard_driver.c **** 		payload[datapointer] = TWDR;
 844               	.LM86:
 845 02ba 7091 7300 		lds r23,115
 846 02be 7193      		st Z+,r23
 847 02c0 0196      		adiw r24,1
 848               	.L37:
 425:../../../src/drivers/platform/micaZ/source/TUM_LKN_Sensorboard_driver.c **** 	for(datapointer = 0; datapointer < length; datapointer++)
 850               	.LM87:
 851 02c2 8617      		cp r24,r22
 852 02c4 00F0      		brlo .L41
 432:../../../src/drivers/platform/micaZ/source/TUM_LKN_Sensorboard_driver.c **** 		//or should be read here???
 433:../../../src/drivers/platform/micaZ/source/TUM_LKN_Sensorboard_driver.c **** 	}
 434:../../../src/drivers/platform/micaZ/source/TUM_LKN_Sensorboard_driver.c **** 	TWCR = (1<<TWINT)|(1<<TWEN)|(1<<TWSTO);				//Stop condition
 854               	.LM88:
 855 02c6 84E9      		ldi r24,lo8(-108)
 856 02c8 8093 7400 		sts 116,r24
 857               	/* epilogue start */
 435:../../../src/drivers/platform/micaZ/source/TUM_LKN_Sensorboard_driver.c **** }
 859               	.LM89:
 860 02cc 0895      		ret
 862               	.Lscope14:
 864               		.stabd	78,0,0
 866               	.global	i2cAction
 868               	i2cAction:
 869               		.stabd	46,0,0
 436:../../../src/drivers/platform/micaZ/source/TUM_LKN_Sensorboard_driver.c **** 
 437:../../../src/drivers/platform/micaZ/source/TUM_LKN_Sensorboard_driver.c **** 
 438:../../../src/drivers/platform/micaZ/source/TUM_LKN_Sensorboard_driver.c **** 
 439:../../../src/drivers/platform/micaZ/source/TUM_LKN_Sensorboard_driver.c **** void i2cAction()
 440:../../../src/drivers/platform/micaZ/source/TUM_LKN_Sensorboard_driver.c **** {
 871               	.LM90:
 872               	.LFBB15:
 873               	/* prologue: function */
 874               	/* frame size = 0 */
 875               	/* stack size = 0 */
 876               	.L__stack_usage = 0
 441:../../../src/drivers/platform/micaZ/source/TUM_LKN_Sensorboard_driver.c **** 	if( i2cDataDirection == i2cWrite )
 878               	.LM91:
 879 02ce 8091 0000 		lds r24,i2cDataDirection
 880 02d2 8823      		tst r24
 881 02d4 01F4      		brne .L47
 442:../../../src/drivers/platform/micaZ/source/TUM_LKN_Sensorboard_driver.c **** 	{
 443:../../../src/drivers/platform/micaZ/source/TUM_LKN_Sensorboard_driver.c **** 		TWI_write(i2cDestination, i2cDataLen, i2cData);
 883               	.LM92:
 884 02d6 8091 0000 		lds r24,i2cDestination
 885 02da 6091 0000 		lds r22,i2cDataLen
 886 02de 40E0      		ldi r20,lo8(i2cData)
 887 02e0 50E0      		ldi r21,hi8(i2cData)
 888 02e2 0E94 0000 		call TWI_write
 889 02e6 0895      		ret
 890               	.L47:
 444:../../../src/drivers/platform/micaZ/source/TUM_LKN_Sensorboard_driver.c **** 	}
 445:../../../src/drivers/platform/micaZ/source/TUM_LKN_Sensorboard_driver.c **** 	else
 446:../../../src/drivers/platform/micaZ/source/TUM_LKN_Sensorboard_driver.c **** 	{
 447:../../../src/drivers/platform/micaZ/source/TUM_LKN_Sensorboard_driver.c **** 		TWI_read(i2cDestination, i2cDataLen, i2cData);
 892               	.LM93:
 893 02e8 8091 0000 		lds r24,i2cDestination
 894 02ec 6091 0000 		lds r22,i2cDataLen
 895 02f0 40E0      		ldi r20,lo8(i2cData)
 896 02f2 50E0      		ldi r21,hi8(i2cData)
 897 02f4 0E94 0000 		call TWI_read
 898 02f8 0895      		ret
 900               	.Lscope15:
 902               		.stabd	78,0,0
 904               	.global	setLeds
 906               	setLeds:
 907               		.stabd	46,0,0
 193:../../../src/drivers/platform/micaZ/source/TUM_LKN_Sensorboard_driver.c **** {
 909               	.LM94:
 910               	.LFBB16:
 911               	/* prologue: function */
 912               	/* frame size = 0 */
 913               	/* stack size = 0 */
 914               	.L__stack_usage = 0
 195:../../../src/drivers/platform/micaZ/source/TUM_LKN_Sensorboard_driver.c **** 	i2cDataLen = 6;
 916               	.LM95:
 917 02fa 86E0      		ldi r24,lo8(6)
 918 02fc 8093 0000 		sts i2cDataLen,r24
 196:../../../src/drivers/platform/micaZ/source/TUM_LKN_Sensorboard_driver.c **** 	i2cData[0] = REG_LED_PSC0 | REG_LED_AUTOINCREMENT;
 920               	.LM96:
 921 0300 81E1      		ldi r24,lo8(17)
 922 0302 8093 0000 		sts i2cData,r24
 197:../../../src/drivers/platform/micaZ/source/TUM_LKN_Sensorboard_driver.c **** 	i2cData[1] = m_prescaler[ 0 ];
 924               	.LM97:
 925 0306 8091 0000 		lds r24,m_prescaler
 926 030a 8093 0000 		sts i2cData+1,r24
 198:../../../src/drivers/platform/micaZ/source/TUM_LKN_Sensorboard_driver.c **** 	i2cData[2] = m_pwm[ 0 ];
 928               	.LM98:
 929 030e 8091 0000 		lds r24,m_pwm
 930 0312 8093 0000 		sts i2cData+2,r24
 199:../../../src/drivers/platform/micaZ/source/TUM_LKN_Sensorboard_driver.c **** 	i2cData[3] = m_prescaler[ 1 ];
 932               	.LM99:
 933 0316 8091 0000 		lds r24,m_prescaler+1
 934 031a 8093 0000 		sts i2cData+3,r24
 200:../../../src/drivers/platform/micaZ/source/TUM_LKN_Sensorboard_driver.c **** 	i2cData[4] = m_pwm[ 1 ];
 936               	.LM100:
 937 031e 8091 0000 		lds r24,m_pwm+1
 938 0322 8093 0000 		sts i2cData+4,r24
 201:../../../src/drivers/platform/micaZ/source/TUM_LKN_Sensorboard_driver.c **** 	i2cData[5] = m_ledstate;
 940               	.LM101:
 941 0326 8091 0000 		lds r24,m_ledstate
 942 032a 8093 0000 		sts i2cData+5,r24
 202:../../../src/drivers/platform/micaZ/source/TUM_LKN_Sensorboard_driver.c **** 	i2cDataDirection = i2cWrite;
 944               	.LM102:
 945 032e 1092 0000 		sts i2cDataDirection,__zero_reg__
 203:../../../src/drivers/platform/micaZ/source/TUM_LKN_Sensorboard_driver.c **** 	i2cDestination = PCA9533;
 947               	.LM103:
 948 0332 86EC      		ldi r24,lo8(198)
 949 0334 90E0      		ldi r25,hi8(198)
 950 0336 9093 0000 		sts i2cDestination+1,r25
 951 033a 8093 0000 		sts i2cDestination,r24
 205:../../../src/drivers/platform/micaZ/source/TUM_LKN_Sensorboard_driver.c **** 	i2cAction();
 953               	.LM104:
 954 033e 0E94 0000 		call i2cAction
 955               	/* epilogue start */
 206:../../../src/drivers/platform/micaZ/source/TUM_LKN_Sensorboard_driver.c **** }
 957               	.LM105:
 958 0342 0895      		ret
 960               	.Lscope16:
 962               		.stabd	78,0,0
 965               	.global	TUM_LKN_Sensorboard_greenBlink
 967               	TUM_LKN_Sensorboard_greenBlink:
 968               		.stabd	46,0,0
 369:../../../src/drivers/platform/micaZ/source/TUM_LKN_Sensorboard_driver.c **** void TUM_LKN_Sensorboard_greenBlink( uint8_t ctl ) 	{ setLedMode( 2, 0x02 | (ctl & 0x01) ); setLeds
 970               	.LM106:
 971               	.LFBB17:
 972               	/* prologue: function */
 973               	/* frame size = 0 */
 974               	/* stack size = 0 */
 975               	.L__stack_usage = 0
 369:../../../src/drivers/platform/micaZ/source/TUM_LKN_Sensorboard_driver.c **** void TUM_LKN_Sensorboard_greenBlink( uint8_t ctl ) 	{ setLedMode( 2, 0x02 | (ctl & 0x01) ); setLeds
 977               	.LM107:
 978 0344 682F      		mov r22,r24
 979 0346 6170      		andi r22,lo8(1)
 980 0348 6260      		ori r22,lo8(2)
 981 034a 82E0      		ldi r24,lo8(2)
 982 034c 0E94 0000 		call setLedMode
 983 0350 0E94 0000 		call setLeds
 984               	/* epilogue start */
 985 0354 0895      		ret
 987               	.Lscope17:
 989               		.stabd	78,0,0
 991               	.global	TUM_LKN_Sensorboard_greenToggle
 993               	TUM_LKN_Sensorboard_greenToggle:
 994               		.stabd	46,0,0
 368:../../../src/drivers/platform/micaZ/source/TUM_LKN_Sensorboard_driver.c **** void TUM_LKN_Sensorboard_greenToggle() 					{ setLedMode( 2, getLedMode( 2 ) ^ 0x01 ); setLeds(); }
 996               	.LM108:
 997               	.LFBB18:
 998               	/* prologue: function */
 999               	/* frame size = 0 */
 1000               	/* stack size = 0 */
 1001               	.L__stack_usage = 0
 368:../../../src/drivers/platform/micaZ/source/TUM_LKN_Sensorboard_driver.c **** void TUM_LKN_Sensorboard_greenToggle() 					{ setLedMode( 2, getLedMode( 2 ) ^ 0x01 ); setLeds(); }
 1003               	.LM109:
 1004 0356 82E0      		ldi r24,lo8(2)
 1005 0358 0E94 0000 		call getLedMode
 1006 035c 61E0      		ldi r22,lo8(1)
 1007 035e 6827      		eor r22,r24
 1008 0360 82E0      		ldi r24,lo8(2)
 1009 0362 0E94 0000 		call setLedMode
 1010 0366 0E94 0000 		call setLeds
 1011               	/* epilogue start */
 1012 036a 0895      		ret
 1014               	.Lscope18:
 1016               		.stabd	78,0,0
 1018               	.global	TUM_LKN_Sensorboard_greenOff
 1020               	TUM_LKN_Sensorboard_greenOff:
 1021               		.stabd	46,0,0
 367:../../../src/drivers/platform/micaZ/source/TUM_LKN_Sensorboard_driver.c **** void TUM_LKN_Sensorboard_greenOff() 						{ setLedMode( 2, REG_LED_OFF ); setLeds(); }
 1023               	.LM110:
 1024               	.LFBB19:
 1025               	/* prologue: function */
 1026               	/* frame size = 0 */
 1027               	/* stack size = 0 */
 1028               	.L__stack_usage = 0
 367:../../../src/drivers/platform/micaZ/source/TUM_LKN_Sensorboard_driver.c **** void TUM_LKN_Sensorboard_greenOff() 						{ setLedMode( 2, REG_LED_OFF ); setLeds(); }
 1030               	.LM111:
 1031 036c 82E0      		ldi r24,lo8(2)
 1032 036e 60E0      		ldi r22,lo8(0)
 1033 0370 0E94 0000 		call setLedMode
 1034 0374 0E94 0000 		call setLeds
 1035               	/* epilogue start */
 1036 0378 0895      		ret
 1038               	.Lscope19:
 1040               		.stabd	78,0,0
 1042               	.global	TUM_LKN_Sensorboard_greenOn
 1044               	TUM_LKN_Sensorboard_greenOn:
 1045               		.stabd	46,0,0
 366:../../../src/drivers/platform/micaZ/source/TUM_LKN_Sensorboard_driver.c **** void TUM_LKN_Sensorboard_greenOn() 							{ setLedMode( 2, REG_LED_ON ); setLeds(); }
 1047               	.LM112:
 1048               	.LFBB20:
 1049               	/* prologue: function */
 1050               	/* frame size = 0 */
 1051               	/* stack size = 0 */
 1052               	.L__stack_usage = 0
 366:../../../src/drivers/platform/micaZ/source/TUM_LKN_Sensorboard_driver.c **** void TUM_LKN_Sensorboard_greenOn() 							{ setLedMode( 2, REG_LED_ON ); setLeds(); }
 1054               	.LM113:
 1055 037a 82E0      		ldi r24,lo8(2)
 1056 037c 61E0      		ldi r22,lo8(1)
 1057 037e 0E94 0000 		call setLedMode
 1058 0382 0E94 0000 		call setLeds
 1059               	/* epilogue start */
 1060 0386 0895      		ret
 1062               	.Lscope20:
 1064               		.stabd	78,0,0
 1067               	.global	TUM_LKN_Sensorboard_yellowBlink
 1069               	TUM_LKN_Sensorboard_yellowBlink:
 1070               		.stabd	46,0,0
 364:../../../src/drivers/platform/micaZ/source/TUM_LKN_Sensorboard_driver.c **** void TUM_LKN_Sensorboard_yellowBlink( uint8_t ctl )	{ setLedMode( 1, 0x02 | (ctl & 0x01) ); setLeds
 1072               	.LM114:
 1073               	.LFBB21:
 1074               	/* prologue: function */
 1075               	/* frame size = 0 */
 1076               	/* stack size = 0 */
 1077               	.L__stack_usage = 0
 364:../../../src/drivers/platform/micaZ/source/TUM_LKN_Sensorboard_driver.c **** void TUM_LKN_Sensorboard_yellowBlink( uint8_t ctl )	{ setLedMode( 1, 0x02 | (ctl & 0x01) ); setLeds
 1079               	.LM115:
 1080 0388 682F      		mov r22,r24
 1081 038a 6170      		andi r22,lo8(1)
 1082 038c 6260      		ori r22,lo8(2)
 1083 038e 81E0      		ldi r24,lo8(1)
 1084 0390 0E94 0000 		call setLedMode
 1085 0394 0E94 0000 		call setLeds
 1086               	/* epilogue start */
 1087 0398 0895      		ret
 1089               	.Lscope21:
 1091               		.stabd	78,0,0
 1093               	.global	TUM_LKN_Sensorboard_yellowToggle
 1095               	TUM_LKN_Sensorboard_yellowToggle:
 1096               		.stabd	46,0,0
 363:../../../src/drivers/platform/micaZ/source/TUM_LKN_Sensorboard_driver.c **** void TUM_LKN_Sensorboard_yellowToggle() 					{ setLedMode( 1, getLedMode( 1 ) ^ 0x01 ); setLeds(); 
 1098               	.LM116:
 1099               	.LFBB22:
 1100               	/* prologue: function */
 1101               	/* frame size = 0 */
 1102               	/* stack size = 0 */
 1103               	.L__stack_usage = 0
 363:../../../src/drivers/platform/micaZ/source/TUM_LKN_Sensorboard_driver.c **** void TUM_LKN_Sensorboard_yellowToggle() 					{ setLedMode( 1, getLedMode( 1 ) ^ 0x01 ); setLeds(); 
 1105               	.LM117:
 1106 039a 81E0      		ldi r24,lo8(1)
 1107 039c 0E94 0000 		call getLedMode
 1108 03a0 61E0      		ldi r22,lo8(1)
 1109 03a2 6827      		eor r22,r24
 1110 03a4 81E0      		ldi r24,lo8(1)
 1111 03a6 0E94 0000 		call setLedMode
 1112 03aa 0E94 0000 		call setLeds
 1113               	/* epilogue start */
 1114 03ae 0895      		ret
 1116               	.Lscope22:
 1118               		.stabd	78,0,0
 1120               	.global	TUM_LKN_Sensorboard_yellowOff
 1122               	TUM_LKN_Sensorboard_yellowOff:
 1123               		.stabd	46,0,0
 362:../../../src/drivers/platform/micaZ/source/TUM_LKN_Sensorboard_driver.c **** void TUM_LKN_Sensorboard_yellowOff() 						{ setLedMode( 1, REG_LED_OFF ); setLeds(); }
 1125               	.LM118:
 1126               	.LFBB23:
 1127               	/* prologue: function */
 1128               	/* frame size = 0 */
 1129               	/* stack size = 0 */
 1130               	.L__stack_usage = 0
 362:../../../src/drivers/platform/micaZ/source/TUM_LKN_Sensorboard_driver.c **** void TUM_LKN_Sensorboard_yellowOff() 						{ setLedMode( 1, REG_LED_OFF ); setLeds(); }
 1132               	.LM119:
 1133 03b0 81E0      		ldi r24,lo8(1)
 1134 03b2 60E0      		ldi r22,lo8(0)
 1135 03b4 0E94 0000 		call setLedMode
 1136 03b8 0E94 0000 		call setLeds
 1137               	/* epilogue start */
 1138 03bc 0895      		ret
 1140               	.Lscope23:
 1142               		.stabd	78,0,0
 1144               	.global	TUM_LKN_Sensorboard_yellowOn
 1146               	TUM_LKN_Sensorboard_yellowOn:
 1147               		.stabd	46,0,0
 361:../../../src/drivers/platform/micaZ/source/TUM_LKN_Sensorboard_driver.c **** void TUM_LKN_Sensorboard_yellowOn() 						{ setLedMode( 1, REG_LED_ON ); setLeds(); }
 1149               	.LM120:
 1150               	.LFBB24:
 1151               	/* prologue: function */
 1152               	/* frame size = 0 */
 1153               	/* stack size = 0 */
 1154               	.L__stack_usage = 0
 361:../../../src/drivers/platform/micaZ/source/TUM_LKN_Sensorboard_driver.c **** void TUM_LKN_Sensorboard_yellowOn() 						{ setLedMode( 1, REG_LED_ON ); setLeds(); }
 1156               	.LM121:
 1157 03be 81E0      		ldi r24,lo8(1)
 1158 03c0 61E0      		ldi r22,lo8(1)
 1159 03c2 0E94 0000 		call setLedMode
 1160 03c6 0E94 0000 		call setLeds
 1161               	/* epilogue start */
 1162 03ca 0895      		ret
 1164               	.Lscope24:
 1166               		.stabd	78,0,0
 1169               	.global	TUM_LKN_Sensorboard_redBlink
 1171               	TUM_LKN_Sensorboard_redBlink:
 1172               		.stabd	46,0,0
 359:../../../src/drivers/platform/micaZ/source/TUM_LKN_Sensorboard_driver.c **** void TUM_LKN_Sensorboard_redBlink( uint8_t ctl ) 		{ setLedMode( 0, 0x02 | (ctl & 0x01) ); setLeds(
 1174               	.LM122:
 1175               	.LFBB25:
 1176               	/* prologue: function */
 1177               	/* frame size = 0 */
 1178               	/* stack size = 0 */
 1179               	.L__stack_usage = 0
 359:../../../src/drivers/platform/micaZ/source/TUM_LKN_Sensorboard_driver.c **** void TUM_LKN_Sensorboard_redBlink( uint8_t ctl ) 		{ setLedMode( 0, 0x02 | (ctl & 0x01) ); setLeds(
 1181               	.LM123:
 1182 03cc 682F      		mov r22,r24
 1183 03ce 6170      		andi r22,lo8(1)
 1184 03d0 6260      		ori r22,lo8(2)
 1185 03d2 80E0      		ldi r24,lo8(0)
 1186 03d4 0E94 0000 		call setLedMode
 1187 03d8 0E94 0000 		call setLeds
 1188               	/* epilogue start */
 1189 03dc 0895      		ret
 1191               	.Lscope25:
 1193               		.stabd	78,0,0
 1195               	.global	TUM_LKN_Sensorboard_redToggle
 1197               	TUM_LKN_Sensorboard_redToggle:
 1198               		.stabd	46,0,0
 358:../../../src/drivers/platform/micaZ/source/TUM_LKN_Sensorboard_driver.c **** void TUM_LKN_Sensorboard_redToggle() 						{ setLedMode( 0, getLedMode( 0 ) ^ 0x01 ); setLeds(); }
 1200               	.LM124:
 1201               	.LFBB26:
 1202               	/* prologue: function */
 1203               	/* frame size = 0 */
 1204               	/* stack size = 0 */
 1205               	.L__stack_usage = 0
 358:../../../src/drivers/platform/micaZ/source/TUM_LKN_Sensorboard_driver.c **** void TUM_LKN_Sensorboard_redToggle() 						{ setLedMode( 0, getLedMode( 0 ) ^ 0x01 ); setLeds(); }
 1207               	.LM125:
 1208 03de 80E0      		ldi r24,lo8(0)
 1209 03e0 0E94 0000 		call getLedMode
 1210 03e4 61E0      		ldi r22,lo8(1)
 1211 03e6 6827      		eor r22,r24
 1212 03e8 80E0      		ldi r24,lo8(0)
 1213 03ea 0E94 0000 		call setLedMode
 1214 03ee 0E94 0000 		call setLeds
 1215               	/* epilogue start */
 1216 03f2 0895      		ret
 1218               	.Lscope26:
 1220               		.stabd	78,0,0
 1222               	.global	TUM_LKN_Sensorboard_redOff
 1224               	TUM_LKN_Sensorboard_redOff:
 1225               		.stabd	46,0,0
 357:../../../src/drivers/platform/micaZ/source/TUM_LKN_Sensorboard_driver.c **** void TUM_LKN_Sensorboard_redOff() 							{ setLedMode( 0, REG_LED_OFF ); setLeds(); }
 1227               	.LM126:
 1228               	.LFBB27:
 1229               	/* prologue: function */
 1230               	/* frame size = 0 */
 1231               	/* stack size = 0 */
 1232               	.L__stack_usage = 0
 357:../../../src/drivers/platform/micaZ/source/TUM_LKN_Sensorboard_driver.c **** void TUM_LKN_Sensorboard_redOff() 							{ setLedMode( 0, REG_LED_OFF ); setLeds(); }
 1234               	.LM127:
 1235 03f4 80E0      		ldi r24,lo8(0)
 1236 03f6 60E0      		ldi r22,lo8(0)
 1237 03f8 0E94 0000 		call setLedMode
 1238 03fc 0E94 0000 		call setLeds
 1239               	/* epilogue start */
 1240 0400 0895      		ret
 1242               	.Lscope27:
 1244               		.stabd	78,0,0
 1246               	.global	TUM_LKN_Sensorboard_redOn
 1248               	TUM_LKN_Sensorboard_redOn:
 1249               		.stabd	46,0,0
 356:../../../src/drivers/platform/micaZ/source/TUM_LKN_Sensorboard_driver.c **** void TUM_LKN_Sensorboard_redOn() 							{ setLedMode( 0, REG_LED_ON ); setLeds(); }
 1251               	.LM128:
 1252               	.LFBB28:
 1253               	/* prologue: function */
 1254               	/* frame size = 0 */
 1255               	/* stack size = 0 */
 1256               	.L__stack_usage = 0
 356:../../../src/drivers/platform/micaZ/source/TUM_LKN_Sensorboard_driver.c **** void TUM_LKN_Sensorboard_redOn() 							{ setLedMode( 0, REG_LED_ON ); setLeds(); }
 1258               	.LM129:
 1259 0402 80E0      		ldi r24,lo8(0)
 1260 0404 61E0      		ldi r22,lo8(1)
 1261 0406 0E94 0000 		call setLedMode
 1262 040a 0E94 0000 		call setLeds
 1263               	/* epilogue start */
 1264 040e 0895      		ret
 1266               	.Lscope28:
 1268               		.stabd	78,0,0
 1271               	.global	TUM_LKN_Sensorboard_laserBlink
 1273               	TUM_LKN_Sensorboard_laserBlink:
 1274               		.stabd	46,0,0
 354:../../../src/drivers/platform/micaZ/source/TUM_LKN_Sensorboard_driver.c **** void TUM_LKN_Sensorboard_laserBlink( uint8_t ctl ) 	{ setLedMode( 3, 0x02 | (ctl & 0x01) ); setLeds
 1276               	.LM130:
 1277               	.LFBB29:
 1278               	/* prologue: function */
 1279               	/* frame size = 0 */
 1280               	/* stack size = 0 */
 1281               	.L__stack_usage = 0
 354:../../../src/drivers/platform/micaZ/source/TUM_LKN_Sensorboard_driver.c **** void TUM_LKN_Sensorboard_laserBlink( uint8_t ctl ) 	{ setLedMode( 3, 0x02 | (ctl & 0x01) ); setLeds
 1283               	.LM131:
 1284 0410 682F      		mov r22,r24
 1285 0412 6170      		andi r22,lo8(1)
 1286 0414 6260      		ori r22,lo8(2)
 1287 0416 83E0      		ldi r24,lo8(3)
 1288 0418 0E94 0000 		call setLedMode
 1289 041c 0E94 0000 		call setLeds
 1290               	/* epilogue start */
 1291 0420 0895      		ret
 1293               	.Lscope29:
 1295               		.stabd	78,0,0
 1297               	.global	TUM_LKN_Sensorboard_laserToggle
 1299               	TUM_LKN_Sensorboard_laserToggle:
 1300               		.stabd	46,0,0
 353:../../../src/drivers/platform/micaZ/source/TUM_LKN_Sensorboard_driver.c **** void TUM_LKN_Sensorboard_laserToggle() 					{ setLedMode( 3, getLedMode( 3 ) ^ 0x01 ); setLeds(); }
 1302               	.LM132:
 1303               	.LFBB30:
 1304               	/* prologue: function */
 1305               	/* frame size = 0 */
 1306               	/* stack size = 0 */
 1307               	.L__stack_usage = 0
 353:../../../src/drivers/platform/micaZ/source/TUM_LKN_Sensorboard_driver.c **** void TUM_LKN_Sensorboard_laserToggle() 					{ setLedMode( 3, getLedMode( 3 ) ^ 0x01 ); setLeds(); }
 1309               	.LM133:
 1310 0422 83E0      		ldi r24,lo8(3)
 1311 0424 0E94 0000 		call getLedMode
 1312 0428 61E0      		ldi r22,lo8(1)
 1313 042a 6827      		eor r22,r24
 1314 042c 83E0      		ldi r24,lo8(3)
 1315 042e 0E94 0000 		call setLedMode
 1316 0432 0E94 0000 		call setLeds
 1317               	/* epilogue start */
 1318 0436 0895      		ret
 1320               	.Lscope30:
 1322               		.stabd	78,0,0
 1324               	.global	TUM_LKN_Sensorboard_laserOff
 1326               	TUM_LKN_Sensorboard_laserOff:
 1327               		.stabd	46,0,0
 352:../../../src/drivers/platform/micaZ/source/TUM_LKN_Sensorboard_driver.c **** void TUM_LKN_Sensorboard_laserOff() 						{ setLedMode( 3, REG_LED_OFF ); setLeds(); }
 1329               	.LM134:
 1330               	.LFBB31:
 1331               	/* prologue: function */
 1332               	/* frame size = 0 */
 1333               	/* stack size = 0 */
 1334               	.L__stack_usage = 0
 352:../../../src/drivers/platform/micaZ/source/TUM_LKN_Sensorboard_driver.c **** void TUM_LKN_Sensorboard_laserOff() 						{ setLedMode( 3, REG_LED_OFF ); setLeds(); }
 1336               	.LM135:
 1337 0438 83E0      		ldi r24,lo8(3)
 1338 043a 60E0      		ldi r22,lo8(0)
 1339 043c 0E94 0000 		call setLedMode
 1340 0440 0E94 0000 		call setLeds
 1341               	/* epilogue start */
 1342 0444 0895      		ret
 1344               	.Lscope31:
 1346               		.stabd	78,0,0
 1348               	.global	TUM_LKN_Sensorboard_laserOn
 1350               	TUM_LKN_Sensorboard_laserOn:
 1351               		.stabd	46,0,0
 351:../../../src/drivers/platform/micaZ/source/TUM_LKN_Sensorboard_driver.c **** void TUM_LKN_Sensorboard_laserOn() 							{ setLedMode( 3, REG_LED_ON ); setLeds(); }
 1353               	.LM136:
 1354               	.LFBB32:
 1355               	/* prologue: function */
 1356               	/* frame size = 0 */
 1357               	/* stack size = 0 */
 1358               	.L__stack_usage = 0
 351:../../../src/drivers/platform/micaZ/source/TUM_LKN_Sensorboard_driver.c **** void TUM_LKN_Sensorboard_laserOn() 							{ setLedMode( 3, REG_LED_ON ); setLeds(); }
 1360               	.LM137:
 1361 0446 83E0      		ldi r24,lo8(3)
 1362 0448 61E0      		ldi r22,lo8(1)
 1363 044a 0E94 0000 		call setLedMode
 1364 044e 0E94 0000 		call setLeds
 1365               	/* epilogue start */
 1366 0452 0895      		ret
 1368               	.Lscope32:
 1370               		.stabd	78,0,0
 1373               	.global	readADC
 1375               	readADC:
 1376               		.stabd	46,0,0
 170:../../../src/drivers/platform/micaZ/source/TUM_LKN_Sensorboard_driver.c **** {
 1378               	.LM138:
 1379               	.LFBB33:
 1380 0454 1F93      		push r17
 1381 0456 CF93      		push r28
 1382 0458 DF93      		push r29
 1383               	/* prologue: function */
 1384               	/* frame size = 0 */
 1385               	/* stack size = 3 */
 1386               	.L__stack_usage = 3
 172:../../../src/drivers/platform/micaZ/source/TUM_LKN_Sensorboard_driver.c **** 	channel &= 0x03;
 1388               	.LM139:
 1389 045a 8370      		andi r24,lo8(3)
 173:../../../src/drivers/platform/micaZ/source/TUM_LKN_Sensorboard_driver.c **** 	m_channel = channel;
 1391               	.LM140:
 1392 045c 8093 0000 		sts m_channel,r24
 174:../../../src/drivers/platform/micaZ/source/TUM_LKN_Sensorboard_driver.c **** 	i2cDataDirection = i2cWrite;		// write to the i2c bus
 1394               	.LM141:
 1395 0460 1092 0000 		sts i2cDataDirection,__zero_reg__
 175:../../../src/drivers/platform/micaZ/source/TUM_LKN_Sensorboard_driver.c **** 	i2cDataLen = 1;
 1397               	.LM142:
 1398 0464 11E0      		ldi r17,lo8(1)
 1399 0466 1093 0000 		sts i2cDataLen,r17
 176:../../../src/drivers/platform/micaZ/source/TUM_LKN_Sensorboard_driver.c **** 	i2cData[ 0 ] = REG_ADC_FOURSE | REG_ADC_AOUTENABLE | channel;
 1401               	.LM143:
 1402 046a 8064      		ori r24,lo8(64)
 1403 046c 8093 0000 		sts i2cData,r24
 177:../../../src/drivers/platform/micaZ/source/TUM_LKN_Sensorboard_driver.c **** 	i2cDestination = PCF8591;
 1405               	.LM144:
 1406 0470 C0E9      		ldi r28,lo8(144)
 1407 0472 D0E0      		ldi r29,hi8(144)
 1408 0474 D093 0000 		sts i2cDestination+1,r29
 1409 0478 C093 0000 		sts i2cDestination,r28
 179:../../../src/drivers/platform/micaZ/source/TUM_LKN_Sensorboard_driver.c **** 	i2cAction();
 1411               	.LM145:
 1412 047c 0E94 0000 		call i2cAction
 182:../../../src/drivers/platform/micaZ/source/TUM_LKN_Sensorboard_driver.c **** 	i2cDataDirection = i2cRead;	// read from the i2c bus
 1414               	.LM146:
 1415 0480 1093 0000 		sts i2cDataDirection,r17
 183:../../../src/drivers/platform/micaZ/source/TUM_LKN_Sensorboard_driver.c **** 	i2cDataLen = 2;
 1417               	.LM147:
 1418 0484 82E0      		ldi r24,lo8(2)
 1419 0486 8093 0000 		sts i2cDataLen,r24
 184:../../../src/drivers/platform/micaZ/source/TUM_LKN_Sensorboard_driver.c **** 	i2cDestination = PCF8591;
 1421               	.LM148:
 1422 048a D093 0000 		sts i2cDestination+1,r29
 1423 048e C093 0000 		sts i2cDestination,r28
 186:../../../src/drivers/platform/micaZ/source/TUM_LKN_Sensorboard_driver.c **** 	i2cAction();
 1425               	.LM149:
 1426 0492 0E94 0000 		call i2cAction
 1427               	/* epilogue start */
 187:../../../src/drivers/platform/micaZ/source/TUM_LKN_Sensorboard_driver.c **** }
 1429               	.LM150:
 1430 0496 DF91      		pop r29
 1431 0498 CF91      		pop r28
 1432 049a 1F91      		pop r17
 1433 049c 0895      		ret
 1435               	.Lscope33:
 1437               		.stabd	78,0,0
 1440               	.global	TUM_LKN_Sensorboard_readChannel
 1442               	TUM_LKN_Sensorboard_readChannel:
 1443               		.stabd	46,0,0
 312:../../../src/drivers/platform/micaZ/source/TUM_LKN_Sensorboard_driver.c **** void TUM_LKN_Sensorboard_readChannel( uint8_t ch ) { readADC( ch ); }
 1445               	.LM151:
 1446               	.LFBB34:
 1447               	/* prologue: function */
 1448               	/* frame size = 0 */
 1449               	/* stack size = 0 */
 1450               	.L__stack_usage = 0
 312:../../../src/drivers/platform/micaZ/source/TUM_LKN_Sensorboard_driver.c **** void TUM_LKN_Sensorboard_readChannel( uint8_t ch ) { readADC( ch ); }
 1452               	.LM152:
 1453 049e 0E94 0000 		call readADC
 1454               	/* epilogue start */
 1455 04a2 0895      		ret
 1457               	.Lscope34:
 1459               		.stabd	78,0,0
 1461               	.global	TUM_LKN_Sensorboard_readChannel3
 1463               	TUM_LKN_Sensorboard_readChannel3:
 1464               		.stabd	46,0,0
 311:../../../src/drivers/platform/micaZ/source/TUM_LKN_Sensorboard_driver.c **** void TUM_LKN_Sensorboard_readChannel3() { readADC( 3 ); }
 1466               	.LM153:
 1467               	.LFBB35:
 1468               	/* prologue: function */
 1469               	/* frame size = 0 */
 1470               	/* stack size = 0 */
 1471               	.L__stack_usage = 0
 311:../../../src/drivers/platform/micaZ/source/TUM_LKN_Sensorboard_driver.c **** void TUM_LKN_Sensorboard_readChannel3() { readADC( 3 ); }
 1473               	.LM154:
 1474 04a4 83E0      		ldi r24,lo8(3)
 1475 04a6 0E94 0000 		call readADC
 1476               	/* epilogue start */
 1477 04aa 0895      		ret
 1479               	.Lscope35:
 1481               		.stabd	78,0,0
 1483               	.global	TUM_LKN_Sensorboard_readChannel2
 1485               	TUM_LKN_Sensorboard_readChannel2:
 1486               		.stabd	46,0,0
 310:../../../src/drivers/platform/micaZ/source/TUM_LKN_Sensorboard_driver.c **** void TUM_LKN_Sensorboard_readChannel2() { readADC( 2 ); }
 1488               	.LM155:
 1489               	.LFBB36:
 1490               	/* prologue: function */
 1491               	/* frame size = 0 */
 1492               	/* stack size = 0 */
 1493               	.L__stack_usage = 0
 310:../../../src/drivers/platform/micaZ/source/TUM_LKN_Sensorboard_driver.c **** void TUM_LKN_Sensorboard_readChannel2() { readADC( 2 ); }
 1495               	.LM156:
 1496 04ac 82E0      		ldi r24,lo8(2)
 1497 04ae 0E94 0000 		call readADC
 1498               	/* epilogue start */
 1499 04b2 0895      		ret
 1501               	.Lscope36:
 1503               		.stabd	78,0,0
 1505               	.global	TUM_LKN_Sensorboard_readChannel1
 1507               	TUM_LKN_Sensorboard_readChannel1:
 1508               		.stabd	46,0,0
 309:../../../src/drivers/platform/micaZ/source/TUM_LKN_Sensorboard_driver.c **** void TUM_LKN_Sensorboard_readChannel1() { readADC( 1 ); }
 1510               	.LM157:
 1511               	.LFBB37:
 1512               	/* prologue: function */
 1513               	/* frame size = 0 */
 1514               	/* stack size = 0 */
 1515               	.L__stack_usage = 0
 309:../../../src/drivers/platform/micaZ/source/TUM_LKN_Sensorboard_driver.c **** void TUM_LKN_Sensorboard_readChannel1() { readADC( 1 ); }
 1517               	.LM158:
 1518 04b4 81E0      		ldi r24,lo8(1)
 1519 04b6 0E94 0000 		call readADC
 1520               	/* epilogue start */
 1521 04ba 0895      		ret
 1523               	.Lscope37:
 1525               		.stabd	78,0,0
 1527               	.global	TUM_LKN_Sensorboard_readPhotoVoltage
 1529               	TUM_LKN_Sensorboard_readPhotoVoltage:
 1530               		.stabd	46,0,0
 308:../../../src/drivers/platform/micaZ/source/TUM_LKN_Sensorboard_driver.c **** void TUM_LKN_Sensorboard_readPhotoVoltage() { readADC( 0 ); }
 1532               	.LM159:
 1533               	.LFBB38:
 1534               	/* prologue: function */
 1535               	/* frame size = 0 */
 1536               	/* stack size = 0 */
 1537               	.L__stack_usage = 0
 308:../../../src/drivers/platform/micaZ/source/TUM_LKN_Sensorboard_driver.c **** void TUM_LKN_Sensorboard_readPhotoVoltage() { readADC( 0 ); }
 1539               	.LM160:
 1540 04bc 80E0      		ldi r24,lo8(0)
 1541 04be 0E94 0000 		call readADC
 1542               	/* epilogue start */
 1543 04c2 0895      		ret
 1545               	.Lscope38:
 1547               		.stabd	78,0,0
 1550               	.global	writeDAC
 1552               	writeDAC:
 1553               		.stabd	46,0,0
 157:../../../src/drivers/platform/micaZ/source/TUM_LKN_Sensorboard_driver.c **** {
 1555               	.LM161:
 1556               	.LFBB39:
 1557               	/* prologue: function */
 1558               	/* frame size = 0 */
 1559               	/* stack size = 0 */
 1560               	.L__stack_usage = 0
 158:../../../src/drivers/platform/micaZ/source/TUM_LKN_Sensorboard_driver.c **** 	i2cDataDirection = i2cWrite;		// write to the i2c bus
 1562               	.LM162:
 1563 04c4 1092 0000 		sts i2cDataDirection,__zero_reg__
 159:../../../src/drivers/platform/micaZ/source/TUM_LKN_Sensorboard_driver.c **** 	i2cDataLen = 2;
 1565               	.LM163:
 1566 04c8 92E0      		ldi r25,lo8(2)
 1567 04ca 9093 0000 		sts i2cDataLen,r25
 160:../../../src/drivers/platform/micaZ/source/TUM_LKN_Sensorboard_driver.c **** 	i2cData[ 0 ] = REG_ADC_FOURSE | REG_ADC_AOUTENABLE;
 1569               	.LM164:
 1570 04ce 90E4      		ldi r25,lo8(64)
 1571 04d0 9093 0000 		sts i2cData,r25
 161:../../../src/drivers/platform/micaZ/source/TUM_LKN_Sensorboard_driver.c **** 	i2cData[ 1 ] = value;
 1573               	.LM165:
 1574 04d4 8093 0000 		sts i2cData+1,r24
 162:../../../src/drivers/platform/micaZ/source/TUM_LKN_Sensorboard_driver.c **** 	i2cDestination = PCF8591;
 1576               	.LM166:
 1577 04d8 80E9      		ldi r24,lo8(144)
 1578 04da 90E0      		ldi r25,hi8(144)
 1579 04dc 9093 0000 		sts i2cDestination+1,r25
 1580 04e0 8093 0000 		sts i2cDestination,r24
 164:../../../src/drivers/platform/micaZ/source/TUM_LKN_Sensorboard_driver.c **** 	i2cAction();
 1582               	.LM167:
 1583 04e4 0E94 0000 		call i2cAction
 1584               	/* epilogue start */
 165:../../../src/drivers/platform/micaZ/source/TUM_LKN_Sensorboard_driver.c **** }
 1586               	.LM168:
 1587 04e8 0895      		ret
 1589               	.Lscope39:
 1591               		.stabd	78,0,0
 1594               	.global	TUM_LKN_Sensorboard_writeValue
 1596               	TUM_LKN_Sensorboard_writeValue:
 1597               		.stabd	46,0,0
 313:../../../src/drivers/platform/micaZ/source/TUM_LKN_Sensorboard_driver.c **** void TUM_LKN_Sensorboard_writeValue( double voltage ) { writeDAC( V2S( voltage ) ); }
 1599               	.LM169:
 1600               	.LFBB40:
 1601               	/* prologue: function */
 1602               	/* frame size = 0 */
 1603               	/* stack size = 0 */
 1604               	.L__stack_usage = 0
 313:../../../src/drivers/platform/micaZ/source/TUM_LKN_Sensorboard_driver.c **** void TUM_LKN_Sensorboard_writeValue( double voltage ) { writeDAC( V2S( voltage ) ); }
 1606               	.LM170:
 1607 04ea 0E94 0000 		call V2S
 1608 04ee 0E94 0000 		call writeDAC
 1609               	/* epilogue start */
 1610 04f2 0895      		ret
 1612               	.Lscope40:
 1614               		.stabd	78,0,0
 1616               	.global	readIOs
 1618               	readIOs:
 1619               		.stabd	46,0,0
 146:../../../src/drivers/platform/micaZ/source/TUM_LKN_Sensorboard_driver.c **** {
 1621               	.LM171:
 1622               	.LFBB41:
 1623               	/* prologue: function */
 1624               	/* frame size = 0 */
 1625               	/* stack size = 0 */
 1626               	.L__stack_usage = 0
 147:../../../src/drivers/platform/micaZ/source/TUM_LKN_Sensorboard_driver.c **** 	i2cDataDirection = i2cRead;
 1628               	.LM172:
 1629 04f4 81E0      		ldi r24,lo8(1)
 1630 04f6 8093 0000 		sts i2cDataDirection,r24
 148:../../../src/drivers/platform/micaZ/source/TUM_LKN_Sensorboard_driver.c **** 	i2cDataLen = 1;
 1632               	.LM173:
 1633 04fa 8093 0000 		sts i2cDataLen,r24
 149:../../../src/drivers/platform/micaZ/source/TUM_LKN_Sensorboard_driver.c **** 	i2cDestination = PCF8574;
 1635               	.LM174:
 1636 04fe 80E4      		ldi r24,lo8(64)
 1637 0500 90E0      		ldi r25,hi8(64)
 1638 0502 9093 0000 		sts i2cDestination+1,r25
 1639 0506 8093 0000 		sts i2cDestination,r24
 151:../../../src/drivers/platform/micaZ/source/TUM_LKN_Sensorboard_driver.c **** 	i2cAction();
 1641               	.LM175:
 1642 050a 0E94 0000 		call i2cAction
 1643               	/* epilogue start */
 152:../../../src/drivers/platform/micaZ/source/TUM_LKN_Sensorboard_driver.c **** }
 1645               	.LM176:
 1646 050e 0895      		ret
 1648               	.Lscope41:
 1650               		.stabd	78,0,0
 1653               	.global	writeIOs
 1655               	writeIOs:
 1656               		.stabd	46,0,0
 134:../../../src/drivers/platform/micaZ/source/TUM_LKN_Sensorboard_driver.c **** {
 1658               	.LM177:
 1659               	.LFBB42:
 1660               	/* prologue: function */
 1661               	/* frame size = 0 */
 1662               	/* stack size = 0 */
 1663               	.L__stack_usage = 0
 135:../../../src/drivers/platform/micaZ/source/TUM_LKN_Sensorboard_driver.c **** 	i2cData[ 0 ] = m_lastxs = data;
 1665               	.LM178:
 1666 0510 8093 0000 		sts m_lastxs,r24
 1667 0514 8093 0000 		sts i2cData,r24
 136:../../../src/drivers/platform/micaZ/source/TUM_LKN_Sensorboard_driver.c **** 	i2cDataLen = 1;
 1669               	.LM179:
 1670 0518 81E0      		ldi r24,lo8(1)
 1671 051a 8093 0000 		sts i2cDataLen,r24
 137:../../../src/drivers/platform/micaZ/source/TUM_LKN_Sensorboard_driver.c **** 	i2cDataDirection = i2cWrite;
 1673               	.LM180:
 1674 051e 1092 0000 		sts i2cDataDirection,__zero_reg__
 138:../../../src/drivers/platform/micaZ/source/TUM_LKN_Sensorboard_driver.c **** 	i2cDestination = PCF8574;
 1676               	.LM181:
 1677 0522 80E4      		ldi r24,lo8(64)
 1678 0524 90E0      		ldi r25,hi8(64)
 1679 0526 9093 0000 		sts i2cDestination+1,r25
 1680 052a 8093 0000 		sts i2cDestination,r24
 140:../../../src/drivers/platform/micaZ/source/TUM_LKN_Sensorboard_driver.c **** 	i2cAction();
 1682               	.LM182:
 1683 052e 0E94 0000 		call i2cAction
 1684               	/* epilogue start */
 141:../../../src/drivers/platform/micaZ/source/TUM_LKN_Sensorboard_driver.c **** }
 1686               	.LM183:
 1687 0532 0895      		ret
 1689               	.Lscope42:
 1691               		.stabd	78,0,0
 1693               	.global	TUM_LKN_Sensorboard_halfStepCW
 1695               	TUM_LKN_Sensorboard_halfStepCW:
 1696               		.stabd	46,0,0
 299:../../../src/drivers/platform/micaZ/source/TUM_LKN_Sensorboard_driver.c **** {
 1698               	.LM184:
 1699               	.LFBB43:
 1700               	/* prologue: function */
 1701               	/* frame size = 0 */
 1702               	/* stack size = 0 */
 1703               	.L__stack_usage = 0
 300:../../../src/drivers/platform/micaZ/source/TUM_LKN_Sensorboard_driver.c **** 	writeIOs( setBits( m_lastxs, 0x0F, steps[ m_currentstep ] ) );
 1705               	.LM185:
 1706 0534 8091 0000 		lds r24,m_currentstep
 1707 0538 E0E0      		ldi r30,lo8(steps)
 1708 053a F0E0      		ldi r31,hi8(steps)
 1709 053c E80F      		add r30,r24
 1710 053e F11D      		adc r31,__zero_reg__
 1711               	.LBB16:
 1712               	.LBB17:
 231:../../../src/drivers/platform/micaZ/source/TUM_LKN_Sensorboard_driver.c **** uint8_t setBits( uint8_t data, uint8_t mask, uint8_t bits ) { return( ( data & mask ) | bits ); }
 1714               	.LM186:
 1715 0540 8091 0000 		lds r24,m_lastxs
 1716 0544 8F70      		andi r24,lo8(15)
 1717 0546 9081      		ld r25,Z
 1718               	.LBE17:
 1719               	.LBE16:
 300:../../../src/drivers/platform/micaZ/source/TUM_LKN_Sensorboard_driver.c **** 	writeIOs( setBits( m_lastxs, 0x0F, steps[ m_currentstep ] ) );
 1721               	.LM187:
 1722 0548 892B      		or r24,r25
 1723 054a 0E94 0000 		call writeIOs
 301:../../../src/drivers/platform/micaZ/source/TUM_LKN_Sensorboard_driver.c **** 	m_currentstep = (m_currentstep + 7) & 0x07;
 1725               	.LM188:
 1726 054e 8091 0000 		lds r24,m_currentstep
 1727 0552 895F      		subi r24,lo8(-(7))
 1728 0554 8770      		andi r24,lo8(7)
 1729 0556 8093 0000 		sts m_currentstep,r24
 1730               	/* epilogue start */
 302:../../../src/drivers/platform/micaZ/source/TUM_LKN_Sensorboard_driver.c **** }
 1732               	.LM189:
 1733 055a 0895      		ret
 1735               	.Lscope43:
 1737               		.stabd	78,0,0
 1739               	.global	TUM_LKN_Sensorboard_halfStepCCW
 1741               	TUM_LKN_Sensorboard_halfStepCCW:
 1742               		.stabd	46,0,0
 291:../../../src/drivers/platform/micaZ/source/TUM_LKN_Sensorboard_driver.c **** {
 1744               	.LM190:
 1745               	.LFBB44:
 1746               	/* prologue: function */
 1747               	/* frame size = 0 */
 1748               	/* stack size = 0 */
 1749               	.L__stack_usage = 0
 292:../../../src/drivers/platform/micaZ/source/TUM_LKN_Sensorboard_driver.c **** 	writeIOs( setBits( m_lastxs, 0x0F, steps[ m_currentstep ] ) );
 1751               	.LM191:
 1752 055c 8091 0000 		lds r24,m_currentstep
 1753 0560 E0E0      		ldi r30,lo8(steps)
 1754 0562 F0E0      		ldi r31,hi8(steps)
 1755 0564 E80F      		add r30,r24
 1756 0566 F11D      		adc r31,__zero_reg__
 1757               	.LBB18:
 1758               	.LBB19:
 231:../../../src/drivers/platform/micaZ/source/TUM_LKN_Sensorboard_driver.c **** uint8_t setBits( uint8_t data, uint8_t mask, uint8_t bits ) { return( ( data & mask ) | bits ); }
 1760               	.LM192:
 1761 0568 8091 0000 		lds r24,m_lastxs
 1762 056c 8F70      		andi r24,lo8(15)
 1763 056e 9081      		ld r25,Z
 1764               	.LBE19:
 1765               	.LBE18:
 292:../../../src/drivers/platform/micaZ/source/TUM_LKN_Sensorboard_driver.c **** 	writeIOs( setBits( m_lastxs, 0x0F, steps[ m_currentstep ] ) );
 1767               	.LM193:
 1768 0570 892B      		or r24,r25
 1769 0572 0E94 0000 		call writeIOs
 293:../../../src/drivers/platform/micaZ/source/TUM_LKN_Sensorboard_driver.c **** 	m_currentstep = (m_currentstep + 1) & 0x07;
 1771               	.LM194:
 1772 0576 8091 0000 		lds r24,m_currentstep
 1773 057a 8F5F      		subi r24,lo8(-(1))
 1774 057c 8770      		andi r24,lo8(7)
 1775 057e 8093 0000 		sts m_currentstep,r24
 1776               	/* epilogue start */
 294:../../../src/drivers/platform/micaZ/source/TUM_LKN_Sensorboard_driver.c **** }
 1778               	.LM195:
 1779 0582 0895      		ret
 1781               	.Lscope44:
 1783               		.stabd	78,0,0
 1785               	.global	TUM_LKN_Sensorboard_stepCW
 1787               	TUM_LKN_Sensorboard_stepCW:
 1788               		.stabd	46,0,0
 283:../../../src/drivers/platform/micaZ/source/TUM_LKN_Sensorboard_driver.c **** {
 1790               	.LM196:
 1791               	.LFBB45:
 1792               	/* prologue: function */
 1793               	/* frame size = 0 */
 1794               	/* stack size = 0 */
 1795               	.L__stack_usage = 0
 284:../../../src/drivers/platform/micaZ/source/TUM_LKN_Sensorboard_driver.c **** 	writeIOs( setBits( m_lastxs, 0x0F, steps[ m_currentstep ] ) );
 1797               	.LM197:
 1798 0584 8091 0000 		lds r24,m_currentstep
 1799 0588 E0E0      		ldi r30,lo8(steps)
 1800 058a F0E0      		ldi r31,hi8(steps)
 1801 058c E80F      		add r30,r24
 1802 058e F11D      		adc r31,__zero_reg__
 1803               	.LBB20:
 1804               	.LBB21:
 231:../../../src/drivers/platform/micaZ/source/TUM_LKN_Sensorboard_driver.c **** uint8_t setBits( uint8_t data, uint8_t mask, uint8_t bits ) { return( ( data & mask ) | bits ); }
 1806               	.LM198:
 1807 0590 8091 0000 		lds r24,m_lastxs
 1808 0594 8F70      		andi r24,lo8(15)
 1809 0596 9081      		ld r25,Z
 1810               	.LBE21:
 1811               	.LBE20:
 284:../../../src/drivers/platform/micaZ/source/TUM_LKN_Sensorboard_driver.c **** 	writeIOs( setBits( m_lastxs, 0x0F, steps[ m_currentstep ] ) );
 1813               	.LM199:
 1814 0598 892B      		or r24,r25
 1815 059a 0E94 0000 		call writeIOs
 285:../../../src/drivers/platform/micaZ/source/TUM_LKN_Sensorboard_driver.c **** 	m_currentstep = (m_currentstep + 6) & 0x06;
 1817               	.LM200:
 1818 059e 8091 0000 		lds r24,m_currentstep
 1819 05a2 8A5F      		subi r24,lo8(-(6))
 1820 05a4 8670      		andi r24,lo8(6)
 1821 05a6 8093 0000 		sts m_currentstep,r24
 1822               	/* epilogue start */
 286:../../../src/drivers/platform/micaZ/source/TUM_LKN_Sensorboard_driver.c **** }
 1824               	.LM201:
 1825 05aa 0895      		ret
 1827               	.Lscope45:
 1829               		.stabd	78,0,0
 1831               	.global	TUM_LKN_Sensorboard_stepCCW
 1833               	TUM_LKN_Sensorboard_stepCCW:
 1834               		.stabd	46,0,0
 275:../../../src/drivers/platform/micaZ/source/TUM_LKN_Sensorboard_driver.c **** {
 1836               	.LM202:
 1837               	.LFBB46:
 1838               	/* prologue: function */
 1839               	/* frame size = 0 */
 1840               	/* stack size = 0 */
 1841               	.L__stack_usage = 0
 276:../../../src/drivers/platform/micaZ/source/TUM_LKN_Sensorboard_driver.c **** 	writeIOs( setBits( m_lastxs, 0x0F, steps[ m_currentstep ] ) );
 1843               	.LM203:
 1844 05ac 8091 0000 		lds r24,m_currentstep
 1845 05b0 E0E0      		ldi r30,lo8(steps)
 1846 05b2 F0E0      		ldi r31,hi8(steps)
 1847 05b4 E80F      		add r30,r24
 1848 05b6 F11D      		adc r31,__zero_reg__
 1849               	.LBB22:
 1850               	.LBB23:
 231:../../../src/drivers/platform/micaZ/source/TUM_LKN_Sensorboard_driver.c **** uint8_t setBits( uint8_t data, uint8_t mask, uint8_t bits ) { return( ( data & mask ) | bits ); }
 1852               	.LM204:
 1853 05b8 8091 0000 		lds r24,m_lastxs
 1854 05bc 8F70      		andi r24,lo8(15)
 1855 05be 9081      		ld r25,Z
 1856               	.LBE23:
 1857               	.LBE22:
 276:../../../src/drivers/platform/micaZ/source/TUM_LKN_Sensorboard_driver.c **** 	writeIOs( setBits( m_lastxs, 0x0F, steps[ m_currentstep ] ) );
 1859               	.LM205:
 1860 05c0 892B      		or r24,r25
 1861 05c2 0E94 0000 		call writeIOs
 277:../../../src/drivers/platform/micaZ/source/TUM_LKN_Sensorboard_driver.c **** 	m_currentstep = (m_currentstep + 2) & 0x06;
 1863               	.LM206:
 1864 05c6 8091 0000 		lds r24,m_currentstep
 1865 05ca 8E5F      		subi r24,lo8(-(2))
 1866 05cc 8670      		andi r24,lo8(6)
 1867 05ce 8093 0000 		sts m_currentstep,r24
 1868               	/* epilogue start */
 278:../../../src/drivers/platform/micaZ/source/TUM_LKN_Sensorboard_driver.c **** }
 1870               	.LM207:
 1871 05d2 0895      		ret
 1873               	.Lscope46:
 1875               		.stabd	78,0,0
 1877               	.global	TUM_LKN_Sensorboard_StepperIdle
 1879               	TUM_LKN_Sensorboard_StepperIdle:
 1880               		.stabd	46,0,0
 270:../../../src/drivers/platform/micaZ/source/TUM_LKN_Sensorboard_driver.c **** {
 1882               	.LM208:
 1883               	.LFBB47:
 1884               	/* prologue: function */
 1885               	/* frame size = 0 */
 1886               	/* stack size = 0 */
 1887               	.L__stack_usage = 0
 1888               	.LBB24:
 1889               	.LBB25:
 231:../../../src/drivers/platform/micaZ/source/TUM_LKN_Sensorboard_driver.c **** uint8_t setBits( uint8_t data, uint8_t mask, uint8_t bits ) { return( ( data & mask ) | bits ); }
 1891               	.LM209:
 1892 05d4 8091 0000 		lds r24,m_lastxs
 1893               	.LBE25:
 1894               	.LBE24:
 271:../../../src/drivers/platform/micaZ/source/TUM_LKN_Sensorboard_driver.c ****     writeIOs( setBits( m_lastxs, 0x0F, 0xF0 ) );
 1896               	.LM210:
 1897 05d8 806F      		ori r24,lo8(-16)
 1898 05da 0E94 0000 		call writeIOs
 1899               	/* epilogue start */
 272:../../../src/drivers/platform/micaZ/source/TUM_LKN_Sensorboard_driver.c **** }
 1901               	.LM211:
 1902 05de 0895      		ret
 1904               	.Lscope47:
 1906               		.stabd	78,0,0
 1909               	.global	TUM_LKN_Sensorboard_setBeeper
 1911               	TUM_LKN_Sensorboard_setBeeper:
 1912               		.stabd	46,0,0
 266:../../../src/drivers/platform/micaZ/source/TUM_LKN_Sensorboard_driver.c **** void TUM_LKN_Sensorboard_setBeeper( bool set ) 				{ writeIOs( setBits( m_lastxs, 0xF7, (set == FAL
 1914               	.LM212:
 1915               	.LFBB48:
 1916               	/* prologue: function */
 1917               	/* frame size = 0 */
 1918               	/* stack size = 0 */
 1919               	.L__stack_usage = 0
 266:../../../src/drivers/platform/micaZ/source/TUM_LKN_Sensorboard_driver.c **** void TUM_LKN_Sensorboard_setBeeper( bool set ) 				{ writeIOs( setBits( m_lastxs, 0xF7, (set == FAL
 1921               	.LM213:
 1922 05e0 9091 0000 		lds r25,m_lastxs
 1923 05e4 8823      		tst r24
 1924 05e6 01F4      		brne .L83
 1925 05e8 88E0      		ldi r24,lo8(8)
 1926 05ea 00C0      		rjmp .L82
 1927               	.L83:
 1928 05ec 80E0      		ldi r24,lo8(0)
 1929               	.L82:
 1930               	.LBB26:
 1931               	.LBB27:
 231:../../../src/drivers/platform/micaZ/source/TUM_LKN_Sensorboard_driver.c **** uint8_t setBits( uint8_t data, uint8_t mask, uint8_t bits ) { return( ( data & mask ) | bits ); }
 1933               	.LM214:
 1934 05ee 977F      		andi r25,lo8(-9)
 1935               	.LBE27:
 1936               	.LBE26:
 266:../../../src/drivers/platform/micaZ/source/TUM_LKN_Sensorboard_driver.c **** void TUM_LKN_Sensorboard_setBeeper( bool set ) 				{ writeIOs( setBits( m_lastxs, 0xF7, (set == FAL
 1938               	.LM215:
 1939 05f0 892B      		or r24,r25
 1940 05f2 0E94 0000 		call writeIOs
 1941               	/* epilogue start */
 1942 05f6 0895      		ret
 1944               	.Lscope48:
 1946               		.stabd	78,0,0
 1950               	.global	TUM_LKN_Sensorboard_writeIO
 1952               	TUM_LKN_Sensorboard_writeIO:
 1953               		.stabd	46,0,0
 265:../../../src/drivers/platform/micaZ/source/TUM_LKN_Sensorboard_driver.c **** void TUM_LKN_Sensorboard_writeIO( uint8_t io, bool set ) { writeIOs( setBits( m_lastxs, ~(0x01 << i
 1955               	.LM216:
 1956               	.LFBB49:
 1957               	/* prologue: function */
 1958               	/* frame size = 0 */
 1959               	/* stack size = 0 */
 1960               	.L__stack_usage = 0
 265:../../../src/drivers/platform/micaZ/source/TUM_LKN_Sensorboard_driver.c **** void TUM_LKN_Sensorboard_writeIO( uint8_t io, bool set ) { writeIOs( setBits( m_lastxs, ~(0x01 << i
 1962               	.LM217:
 1963 05f8 9091 0000 		lds r25,m_lastxs
 1964 05fc 21E0      		ldi r18,lo8(1)
 1965 05fe 30E0      		ldi r19,hi8(1)
 1966 0600 00C0      		rjmp 2f
 1967 0602 220F      	1:	lsl r18
 1968 0604 331F      		rol r19
 1969 0606 8A95      	2:	dec r24
 1970 0608 02F4      		brpl 1b
 1971 060a 822F      		mov r24,r18
 1972 060c 8095      		com r24
 1973 060e 6623      		tst r22
 1974 0610 01F4      		brne .L85
 1975 0612 20E0      		ldi r18,lo8(0)
 1976               	.L85:
 1977               	.LBB28:
 1978               	.LBB29:
 231:../../../src/drivers/platform/micaZ/source/TUM_LKN_Sensorboard_driver.c **** uint8_t setBits( uint8_t data, uint8_t mask, uint8_t bits ) { return( ( data & mask ) | bits ); }
 1980               	.LM218:
 1981 0614 9823      		and r25,r24
 1982               	.LBE29:
 1983               	.LBE28:
 265:../../../src/drivers/platform/micaZ/source/TUM_LKN_Sensorboard_driver.c **** void TUM_LKN_Sensorboard_writeIO( uint8_t io, bool set ) { writeIOs( setBits( m_lastxs, ~(0x01 << i
 1985               	.LM219:
 1986 0616 822F      		mov r24,r18
 1987 0618 892B      		or r24,r25
 1988 061a 0E94 0000 		call writeIOs
 1989               	/* epilogue start */
 1990 061e 0895      		ret
 1992               	.Lscope49:
 1994               		.stabd	78,0,0
 1997               	.global	TUM_LKN_Sensorboard_writeIOs
 1999               	TUM_LKN_Sensorboard_writeIOs:
 2000               		.stabd	46,0,0
 264:../../../src/drivers/platform/micaZ/source/TUM_LKN_Sensorboard_driver.c **** void TUM_LKN_Sensorboard_writeIOs( uint8_t data ) 			{ writeIOs( data ); }
 2002               	.LM220:
 2003               	.LFBB50:
 2004               	/* prologue: function */
 2005               	/* frame size = 0 */
 2006               	/* stack size = 0 */
 2007               	.L__stack_usage = 0
 264:../../../src/drivers/platform/micaZ/source/TUM_LKN_Sensorboard_driver.c **** void TUM_LKN_Sensorboard_writeIOs( uint8_t data ) 			{ writeIOs( data ); }
 2009               	.LM221:
 2010 0620 0E94 0000 		call writeIOs
 2011               	/* epilogue start */
 2012 0624 0895      		ret
 2014               	.Lscope50:
 2016               		.stabd	78,0,0
 2018               	.global	TUM_LKN_Sensorboard_init
 2020               	TUM_LKN_Sensorboard_init:
 2021               		.stabd	46,0,0
 262:../../../src/drivers/platform/micaZ/source/TUM_LKN_Sensorboard_driver.c **** void TUM_LKN_Sensorboard_init() 									{ writeIOs( 0xFF ); writeDAC( 0x00 ); }
 2023               	.LM222:
 2024               	.LFBB51:
 2025               	/* prologue: function */
 2026               	/* frame size = 0 */
 2027               	/* stack size = 0 */
 2028               	.L__stack_usage = 0
 262:../../../src/drivers/platform/micaZ/source/TUM_LKN_Sensorboard_driver.c **** void TUM_LKN_Sensorboard_init() 									{ writeIOs( 0xFF ); writeDAC( 0x00 ); }
 2030               	.LM223:
 2031 0626 8FEF      		ldi r24,lo8(-1)
 2032 0628 0E94 0000 		call writeIOs
 2033 062c 80E0      		ldi r24,lo8(0)
 2034 062e 0E94 0000 		call writeDAC
 2035               	/* epilogue start */
 2036 0632 0895      		ret
 2038               	.Lscope51:
 2040               		.stabd	78,0,0
 2041               	.global	steppertimeout
 2042               		.data
 2045               	steppertimeout:
 2046 0000 6400      		.word	100
 2047               	.global	steps
 2050               	steps:
 2051 0002 50        		.byte	80
 2052 0003 10        		.byte	16
 2053 0004 90        		.byte	-112
 2054 0005 80        		.byte	-128
 2055 0006 A0        		.byte	-96
 2056 0007 20        		.byte	32
 2057 0008 60        		.byte	96
 2058 0009 40        		.byte	64
 2059               	.global	m_currentstep
 2060               	.global	m_currentstep
 2061               		.section .bss
 2064               	m_currentstep:
 2065 0000 00        		.skip 1,0
 2066               	.global	i2cData
 2067               	.global	i2cData
 2070               	i2cData:
 2071 0001 0000 0000 		.skip 8,0
 2071      0000 0000 
 2072               	.global	m_lastxs
 2073               	.global	m_lastxs
 2076               	m_lastxs:
 2077 0009 00        		.skip 1,0
 2078               	.global	m_vbatt
 2079               		.data
 2082               	m_vbatt:
 2083 000a 00        		.byte	0
 2084 000b 00        		.byte	0
 2085 000c 40        		.byte	64
 2086 000d 40        		.byte	64
 2087               	.global	m_ledstate
 2088               	.global	m_ledstate
 2089               		.section .bss
 2092               	m_ledstate:
 2093 000a 00        		.skip 1,0
 2094               	.global	m_prescaler
 2095               	.global	m_prescaler
 2098               	m_prescaler:
 2099 000b 0000      		.skip 2,0
 2100               	.global	m_pwm
 2101               		.data
 2104               	m_pwm:
 2105 000e FF        		.byte	-1
 2106 000f FF        		.byte	-1
 2107               		.comm _nrk_signal_list,4,1
 2108               		.comm nrk_idle_task_stk,128,1
 2109               		.comm nrk_kernel_stk_ptr,2,1
 2110               		.comm i2cDataLen,1,1
 2111               		.comm i2cDataDirection,1,1
 2112               		.comm i2cDestination,2,1
 2113               		.comm m_channel,1,1
 2130               		.text
 2132               	.Letext0:
 2133               	.global __do_copy_data
 2134               	.global __do_clear_bss
DEFINED SYMBOLS
                            *ABS*:00000000 TUM_LKN_Sensorboard_driver.c
     /tmp/ccPnwc8S.s:2      *ABS*:0000003f __SREG__
     /tmp/ccPnwc8S.s:3      *ABS*:0000003e __SP_H__
     /tmp/ccPnwc8S.s:4      *ABS*:0000003d __SP_L__
     /tmp/ccPnwc8S.s:5      *ABS*:00000034 __CCP__
     /tmp/ccPnwc8S.s:6      *ABS*:00000000 __tmp_reg__
     /tmp/ccPnwc8S.s:7      *ABS*:00000001 __zero_reg__
     /tmp/ccPnwc8S.s:149    .text:00000000 setLedMode
     /tmp/ccPnwc8S.s:2092   .bss:0000000a m_ledstate
     /tmp/ccPnwc8S.s:197    .text:00000030 getLedMode
     /tmp/ccPnwc8S.s:242    .text:0000005c S2V
     /tmp/ccPnwc8S.s:2082   .data:0000000a m_vbatt
     /tmp/ccPnwc8S.s:278    .text:0000008a V2S
     /tmp/ccPnwc8S.s:313    .text:000000b2 setBits
     /tmp/ccPnwc8S.s:337    .text:000000ba prescalerSec2Hex
     /tmp/ccPnwc8S.s:415    .text:0000011e pwmFrac2Hex
     /tmp/ccPnwc8S.s:487    .text:00000176 TUM_LKN_Sensorboard_getCurrentStep
     /tmp/ccPnwc8S.s:2064   .bss:00000000 m_currentstep
     /tmp/ccPnwc8S.s:510    .text:0000017c TUM_LKN_Sensorboard_setControl0
     /tmp/ccPnwc8S.s:2098   .bss:0000000b m_prescaler
     /tmp/ccPnwc8S.s:2104   .data:0000000e m_pwm
     /tmp/ccPnwc8S.s:552    .text:000001a6 TUM_LKN_Sensorboard_setControl1
     /tmp/ccPnwc8S.s:593    .text:000001d0 TUM_LKN_Sensorboard_setBrightness0
     /tmp/ccPnwc8S.s:621    .text:000001de TUM_LKN_Sensorboard_setBrightness1
     /tmp/ccPnwc8S.s:650    .text:000001ec TWI_write
     /tmp/ccPnwc8S.s:752    .text:00000250 TWI_read
     /tmp/ccPnwc8S.s:868    .text:000002ce i2cAction
                            *COM*:00000001 i2cDataDirection
                            *COM*:00000002 i2cDestination
                            *COM*:00000001 i2cDataLen
     /tmp/ccPnwc8S.s:2070   .bss:00000001 i2cData
     /tmp/ccPnwc8S.s:906    .text:000002fa setLeds
     /tmp/ccPnwc8S.s:967    .text:00000344 TUM_LKN_Sensorboard_greenBlink
     /tmp/ccPnwc8S.s:993    .text:00000356 TUM_LKN_Sensorboard_greenToggle
     /tmp/ccPnwc8S.s:1020   .text:0000036c TUM_LKN_Sensorboard_greenOff
     /tmp/ccPnwc8S.s:1044   .text:0000037a TUM_LKN_Sensorboard_greenOn
     /tmp/ccPnwc8S.s:1069   .text:00000388 TUM_LKN_Sensorboard_yellowBlink
     /tmp/ccPnwc8S.s:1095   .text:0000039a TUM_LKN_Sensorboard_yellowToggle
     /tmp/ccPnwc8S.s:1122   .text:000003b0 TUM_LKN_Sensorboard_yellowOff
     /tmp/ccPnwc8S.s:1146   .text:000003be TUM_LKN_Sensorboard_yellowOn
     /tmp/ccPnwc8S.s:1171   .text:000003cc TUM_LKN_Sensorboard_redBlink
     /tmp/ccPnwc8S.s:1197   .text:000003de TUM_LKN_Sensorboard_redToggle
     /tmp/ccPnwc8S.s:1224   .text:000003f4 TUM_LKN_Sensorboard_redOff
     /tmp/ccPnwc8S.s:1248   .text:00000402 TUM_LKN_Sensorboard_redOn
     /tmp/ccPnwc8S.s:1273   .text:00000410 TUM_LKN_Sensorboard_laserBlink
     /tmp/ccPnwc8S.s:1299   .text:00000422 TUM_LKN_Sensorboard_laserToggle
     /tmp/ccPnwc8S.s:1326   .text:00000438 TUM_LKN_Sensorboard_laserOff
     /tmp/ccPnwc8S.s:1350   .text:00000446 TUM_LKN_Sensorboard_laserOn
     /tmp/ccPnwc8S.s:1375   .text:00000454 readADC
                            *COM*:00000001 m_channel
     /tmp/ccPnwc8S.s:1442   .text:0000049e TUM_LKN_Sensorboard_readChannel
     /tmp/ccPnwc8S.s:1463   .text:000004a4 TUM_LKN_Sensorboard_readChannel3
     /tmp/ccPnwc8S.s:1485   .text:000004ac TUM_LKN_Sensorboard_readChannel2
     /tmp/ccPnwc8S.s:1507   .text:000004b4 TUM_LKN_Sensorboard_readChannel1
     /tmp/ccPnwc8S.s:1529   .text:000004bc TUM_LKN_Sensorboard_readPhotoVoltage
     /tmp/ccPnwc8S.s:1552   .text:000004c4 writeDAC
     /tmp/ccPnwc8S.s:1596   .text:000004ea TUM_LKN_Sensorboard_writeValue
     /tmp/ccPnwc8S.s:1618   .text:000004f4 readIOs
     /tmp/ccPnwc8S.s:1655   .text:00000510 writeIOs
     /tmp/ccPnwc8S.s:2076   .bss:00000009 m_lastxs
     /tmp/ccPnwc8S.s:1695   .text:00000534 TUM_LKN_Sensorboard_halfStepCW
     /tmp/ccPnwc8S.s:2050   .data:00000002 steps
     /tmp/ccPnwc8S.s:1741   .text:0000055c TUM_LKN_Sensorboard_halfStepCCW
     /tmp/ccPnwc8S.s:1787   .text:00000584 TUM_LKN_Sensorboard_stepCW
     /tmp/ccPnwc8S.s:1833   .text:000005ac TUM_LKN_Sensorboard_stepCCW
     /tmp/ccPnwc8S.s:1879   .text:000005d4 TUM_LKN_Sensorboard_StepperIdle
     /tmp/ccPnwc8S.s:1911   .text:000005e0 TUM_LKN_Sensorboard_setBeeper
     /tmp/ccPnwc8S.s:1952   .text:000005f8 TUM_LKN_Sensorboard_writeIO
     /tmp/ccPnwc8S.s:1999   .text:00000620 TUM_LKN_Sensorboard_writeIOs
     /tmp/ccPnwc8S.s:2020   .text:00000626 TUM_LKN_Sensorboard_init
     /tmp/ccPnwc8S.s:2045   .data:00000000 steppertimeout
                            *COM*:00000004 _nrk_signal_list
                            *COM*:00000080 nrk_idle_task_stk
                            *COM*:00000002 nrk_kernel_stk_ptr

UNDEFINED SYMBOLS
__floatunsisf
__mulsf3
__divsf3
__fixunssfsi
__gtsf2
__gesf2
__subsf3
__do_copy_data
__do_clear_bss
