
main.elf:     file format elf32-avr

Sections:
Idx Name          Size      VMA       LMA       File off  Algn
  0 .data         000001de  00800100  00009928  000099bc  2**0
                  CONTENTS, ALLOC, LOAD, DATA
  1 .text         00009928  00000000  00000000  00000094  2**1
                  CONTENTS, ALLOC, LOAD, READONLY, CODE
  2 .bss          00000511  008002de  008002de  00009b9a  2**0
                  ALLOC
  3 .stab         0001a484  00000000  00000000  00009b9c  2**2
                  CONTENTS, READONLY, DEBUGGING
  4 .stabstr      00007389  00000000  00000000  00024020  2**0
                  CONTENTS, READONLY, DEBUGGING

Disassembly of section .text:

00000000 <__vectors>:
       0:	0c 94 38 05 	jmp	0xa70	; 0xa70 <__ctors_end>
       4:	0c 94 56 2e 	jmp	0x5cac	; 0x5cac <__vector_1>
       8:	0c 94 57 05 	jmp	0xaae	; 0xaae <__bad_interrupt>
       c:	0c 94 57 05 	jmp	0xaae	; 0xaae <__bad_interrupt>
      10:	0c 94 57 05 	jmp	0xaae	; 0xaae <__bad_interrupt>
      14:	0c 94 57 05 	jmp	0xaae	; 0xaae <__bad_interrupt>
      18:	0c 94 57 05 	jmp	0xaae	; 0xaae <__bad_interrupt>
      1c:	0c 94 57 05 	jmp	0xaae	; 0xaae <__bad_interrupt>
      20:	0c 94 57 05 	jmp	0xaae	; 0xaae <__bad_interrupt>
      24:	0c 94 f9 2d 	jmp	0x5bf2	; 0x5bf2 <__vector_9>
      28:	0c 94 57 05 	jmp	0xaae	; 0xaae <__bad_interrupt>
      2c:	0c 94 57 05 	jmp	0xaae	; 0xaae <__bad_interrupt>
      30:	0c 94 57 05 	jmp	0xaae	; 0xaae <__bad_interrupt>
      34:	0c 94 57 05 	jmp	0xaae	; 0xaae <__bad_interrupt>
      38:	0c 94 57 05 	jmp	0xaae	; 0xaae <__bad_interrupt>
      3c:	0c 94 75 2d 	jmp	0x5aea	; 0x5aea <__vector_15>
      40:	0c 94 75 2d 	jmp	0x5aea	; 0x5aea <__vector_15>
      44:	0c 94 57 05 	jmp	0xaae	; 0xaae <__bad_interrupt>
      48:	0c 94 57 05 	jmp	0xaae	; 0xaae <__bad_interrupt>
      4c:	0c 94 57 05 	jmp	0xaae	; 0xaae <__bad_interrupt>
      50:	0c 94 57 05 	jmp	0xaae	; 0xaae <__bad_interrupt>
      54:	0c 94 57 05 	jmp	0xaae	; 0xaae <__bad_interrupt>
      58:	0c 94 57 05 	jmp	0xaae	; 0xaae <__bad_interrupt>
      5c:	0c 94 57 05 	jmp	0xaae	; 0xaae <__bad_interrupt>
      60:	0c 94 57 05 	jmp	0xaae	; 0xaae <__bad_interrupt>
      64:	0c 94 57 05 	jmp	0xaae	; 0xaae <__bad_interrupt>
      68:	0c 94 57 05 	jmp	0xaae	; 0xaae <__bad_interrupt>
      6c:	0c 94 57 05 	jmp	0xaae	; 0xaae <__bad_interrupt>
      70:	0c 94 57 05 	jmp	0xaae	; 0xaae <__bad_interrupt>
      74:	0c 94 57 05 	jmp	0xaae	; 0xaae <__bad_interrupt>
      78:	0c 94 57 05 	jmp	0xaae	; 0xaae <__bad_interrupt>
      7c:	0c 94 57 05 	jmp	0xaae	; 0xaae <__bad_interrupt>
      80:	0c 94 57 05 	jmp	0xaae	; 0xaae <__bad_interrupt>
      84:	0c 94 57 05 	jmp	0xaae	; 0xaae <__bad_interrupt>
      88:	0c 94 57 05 	jmp	0xaae	; 0xaae <__bad_interrupt>
      8c:	fa 1c       	adc	r15, r10
      8e:	00 1d       	adc	r16, r0
      90:	03 1d       	adc	r16, r3
      92:	06 1d       	adc	r16, r6
      94:	09 1d       	adc	r16, r9
      96:	0c 1d       	adc	r16, r12
      98:	12 1d       	adc	r17, r2
      9a:	0f 1d       	adc	r16, r15
      9c:	15 1d       	adc	r17, r5
      9e:	18 1d       	adc	r17, r8
      a0:	1b 1d       	adc	r17, r11
      a2:	24 1d       	adc	r18, r4
      a4:	27 1d       	adc	r18, r7
      a6:	2a 1d       	adc	r18, r10
      a8:	2d 1d       	adc	r18, r13
      aa:	21 1d       	adc	r18, r1
      ac:	f7 1c       	adc	r15, r7
      ae:	fd 1c       	adc	r15, r13
      b0:	30 1d       	adc	r19, r0
      b2:	33 1d       	adc	r19, r3
      b4:	1e 1d       	adc	r17, r14
      b6:	f4 1c       	adc	r15, r4
      b8:	08 00       	.word	0x0008	; ????
      ba:	00 00       	nop
      bc:	be 92       	st	-X, r11
      be:	24 49       	sbci	r18, 0x94	; 148
      c0:	12 3e       	cpi	r17, 0xE2	; 226
      c2:	ab aa       	std	Y+51, r10	; 0x33
      c4:	aa 2a       	or	r10, r26
      c6:	be cd       	rjmp	.-1156   	; 0xfffffc44 <__eeprom_end+0xff7efc44>
      c8:	cc cc       	rjmp	.-1640   	; 0xfffffa62 <__eeprom_end+0xff7efa62>
      ca:	4c 3e       	cpi	r20, 0xEC	; 236
      cc:	00 00       	nop
      ce:	00 80       	ld	r0, Z
      d0:	be ab       	std	Y+54, r27	; 0x36
      d2:	aa aa       	std	Y+50, r10	; 0x32
      d4:	aa 3e       	cpi	r26, 0xEA	; 234
      d6:	00 00       	nop
      d8:	00 00       	nop
      da:	bf 00       	.word	0x00bf	; ????
      dc:	00 00       	nop
      de:	80 3f       	cpi	r24, 0xF0	; 240
      e0:	00 00       	nop
      e2:	00 00       	nop
      e4:	00 08       	sbc	r0, r0
      e6:	41 78       	andi	r20, 0x81	; 129
      e8:	d3 bb       	out	0x13, r29	; 19
      ea:	43 87       	std	Z+11, r20	; 0x0b
      ec:	d1 13       	cpse	r29, r17
      ee:	3d 19       	sub	r19, r13
      f0:	0e 3c       	cpi	r16, 0xCE	; 206
      f2:	c3 bd       	out	0x23, r28	; 35
      f4:	42 82       	std	Z+2, r4	; 0x02
      f6:	ad 2b       	or	r26, r29
      f8:	3e 68       	ori	r19, 0x8E	; 142
      fa:	ec 82       	std	Y+4, r14	; 0x04
      fc:	76 be       	out	0x36, r7	; 54
      fe:	d9 8f       	std	Y+25, r29	; 0x19
     100:	e1 a9       	ldd	r30, Z+49	; 0x31
     102:	3e 4c       	sbci	r19, 0xCE	; 206
     104:	80 ef       	ldi	r24, 0xF0	; 240
     106:	ff be       	out	0x3f, r15	; 63
     108:	01 c4       	rjmp	.+2050   	; 0x90c <font5x7+0x49f>
     10a:	ff 7f       	andi	r31, 0xFF	; 255
     10c:	3f 00       	.word	0x003f	; ????
     10e:	00 00       	nop
     110:	00 00       	nop
     112:	07 63       	ori	r16, 0x37	; 55
     114:	42 36       	cpi	r20, 0x62	; 98
     116:	b7 9b       	sbis	0x16, 7	; 22
     118:	d8 a7       	std	Y+40, r29	; 0x28
     11a:	1a 39       	cpi	r17, 0x9A	; 154
     11c:	68 56       	subi	r22, 0x68	; 104
     11e:	18 ae       	std	Y+56, r1	; 0x38
     120:	ba ab       	std	Y+50, r27	; 0x32
     122:	55 8c       	ldd	r5, Z+29	; 0x1d
     124:	1d 3c       	cpi	r17, 0xCD	; 205
     126:	b7 cc       	rjmp	.-1682   	; 0xfffffa96 <__eeprom_end+0xff7efa96>
     128:	57 63       	ori	r21, 0x37	; 55
     12a:	bd 6d       	ori	r27, 0xDD	; 221
     12c:	ed fd       	.word	0xfded	; ????
     12e:	75 3e       	cpi	r23, 0xE5	; 229
     130:	f6 17       	cp	r31, r22
     132:	72 31       	cpi	r23, 0x12	; 18
     134:	bf 00       	.word	0x00bf	; ????
     136:	00 00       	nop
     138:	80 3f       	cpi	r24, 0xF0	; 240

0000013a <__c.2152>:
     13a:	0d 0a       	sbc	r0, r29
     13c:	4e 61       	ori	r20, 0x1E	; 30
     13e:	6e 6f       	ori	r22, 0xFE	; 254
     140:	2d 52       	subi	r18, 0x2D	; 45
     142:	4b 20       	and	r4, r11
     144:	54 61       	ori	r21, 0x14	; 20
     146:	73 6b       	ori	r23, 0xB3	; 179
     148:	20 53       	subi	r18, 0x30	; 48
     14a:	74 61       	ori	r23, 0x14	; 20
     14c:	74 69       	ori	r23, 0x94	; 148
     14e:	73 74       	andi	r23, 0x43	; 67
     150:	69 63       	ori	r22, 0x39	; 57
     152:	73 3a       	cpi	r23, 0xA3	; 163
     154:	0d 0a       	sbc	r0, r29
     156:	00 0d       	add	r16, r0

00000157 <__c.2147>:
     157:	0d 0a       	sbc	r0, r29
     159:	00 0d       	add	r16, r0

0000015a <__c.2145>:
     15a:	0d 0a       	sbc	r0, r29
     15c:	20 20       	and	r2, r0
     15e:	20 4f       	sbci	r18, 0xF0	; 240
     160:	76 65       	ori	r23, 0x56	; 86
     162:	72 66       	ori	r23, 0x62	; 98
     164:	6c 6f       	ori	r22, 0xFC	; 252
     166:	77 20       	and	r7, r7
     168:	45 72       	andi	r20, 0x25	; 37
     16a:	72 6f       	ori	r23, 0xF2	; 242
     16c:	72 20       	and	r7, r2
     16e:	53 74       	andi	r21, 0x43	; 67
     170:	61 74       	andi	r22, 0x41	; 65
     172:	75 73       	andi	r23, 0x35	; 53
     174:	3a 20       	and	r3, r10
     176:	00 0d       	add	r16, r0

00000177 <__c.2143>:
     177:	0d 0a       	sbc	r0, r29
     179:	20 20       	and	r2, r0
     17b:	20 4b       	sbci	r18, 0xB0	; 176
     17d:	65 72       	andi	r22, 0x25	; 37
     17f:	6e 65       	ori	r22, 0x5E	; 94
     181:	6c 20       	and	r6, r12
     183:	56 69       	ori	r21, 0x96	; 150
     185:	6f 6c       	ori	r22, 0xCF	; 207
     187:	61 74       	andi	r22, 0x41	; 65
     189:	69 6f       	ori	r22, 0xF9	; 249
     18b:	6e 73       	andi	r22, 0x3E	; 62
     18d:	3a 20       	and	r3, r10
     18f:	00 0d       	add	r16, r0

00000190 <__c.2141>:
     190:	0d 0a       	sbc	r0, r29
     192:	20 20       	and	r2, r0
     194:	20 50       	subi	r18, 0x00	; 0
     196:	72 65       	ori	r23, 0x52	; 82
     198:	65 6d       	ori	r22, 0xD5	; 213
     19a:	70 74       	andi	r23, 0x40	; 64
     19c:	69 6f       	ori	r22, 0xF9	; 249
     19e:	6e 73       	andi	r22, 0x3E	; 62
     1a0:	3a 20       	and	r3, r10
     1a2:	00 0d       	add	r16, r0

000001a3 <__c.2139>:
     1a3:	0d 0a       	sbc	r0, r29
     1a5:	20 20       	and	r2, r0
     1a7:	20 53       	subi	r18, 0x30	; 48
     1a9:	77 61       	ori	r23, 0x17	; 23
     1ab:	70 2d       	mov	r23, r0
     1ad:	69 6e       	ori	r22, 0xE9	; 233
     1af:	73 3a       	cpi	r23, 0xA3	; 163
     1b1:	20 00       	.word	0x0020	; ????

000001b3 <__c.2137>:
     1b3:	0d 0a       	sbc	r0, r29
     1b5:	20 20       	and	r2, r0
     1b7:	20 54       	subi	r18, 0x40	; 64
     1b9:	69 6d       	ori	r22, 0xD9	; 217
     1bb:	65 20       	and	r6, r5
     1bd:	5b 4d       	sbci	r21, 0xDB	; 219
     1bf:	69 6e       	ori	r22, 0xE9	; 233
     1c1:	2c 4c       	sbci	r18, 0xCC	; 204
     1c3:	61 73       	andi	r22, 0x31	; 49
     1c5:	74 2c       	mov	r7, r4
     1c7:	4d 61       	ori	r20, 0x1D	; 29
     1c9:	78 5d       	subi	r23, 0xD8	; 216
     1cb:	3a 20       	and	r3, r10
     1cd:	00 0d       	add	r16, r0

000001ce <__c.2135>:
     1ce:	0d 0a       	sbc	r0, r29
     1d0:	20 20       	and	r2, r0
     1d2:	20 54       	subi	r18, 0x40	; 64
     1d4:	6f 74       	andi	r22, 0x4F	; 79
     1d6:	61 6c       	ori	r22, 0xC1	; 193
     1d8:	20 43       	sbci	r18, 0x30	; 48
     1da:	50 55       	subi	r21, 0x50	; 80
     1dc:	3a 20       	and	r3, r10
     1de:	00 0d       	add	r16, r0

000001df <__c.2133>:
     1df:	0d 0a       	sbc	r0, r29
     1e1:	20 20       	and	r2, r0
     1e3:	20 49       	sbci	r18, 0x90	; 144
     1e5:	64 6c       	ori	r22, 0xC4	; 196
     1e7:	65 20       	and	r6, r5
     1e9:	54 61       	ori	r21, 0x14	; 20
     1eb:	73 6b       	ori	r23, 0xB3	; 179
     1ed:	20 44       	sbci	r18, 0x40	; 64
     1ef:	65 65       	ori	r22, 0x55	; 85
     1f1:	70 20       	and	r7, r0
     1f3:	53 6c       	ori	r21, 0xC3	; 195
     1f5:	65 65       	ori	r22, 0x55	; 85
     1f7:	70 20       	and	r7, r0
     1f9:	54 69       	ori	r21, 0x94	; 148
     1fb:	6d 65       	ori	r22, 0x5D	; 93
     1fd:	3a 20       	and	r3, r10
     1ff:	00 0d       	add	r16, r0

00000200 <__c.2131>:
     200:	0d 0a       	sbc	r0, r29
     202:	20 20       	and	r2, r0
     204:	20 54       	subi	r18, 0x40	; 64
     206:	6f 74       	andi	r22, 0x4F	; 79
     208:	61 6c       	ori	r22, 0xC1	; 193
     20a:	20 53       	subi	r18, 0x30	; 48
     20c:	79 73       	andi	r23, 0x39	; 57
     20e:	74 65       	ori	r23, 0x54	; 84
     210:	6d 20       	and	r6, r13
     212:	55 70       	andi	r21, 0x05	; 5
     214:	74 69       	ori	r23, 0x94	; 148
     216:	6d 65       	ori	r22, 0x5D	; 93
     218:	3a 20       	and	r3, r10
     21a:	00 20       	and	r0, r0

0000021b <__c.2129>:
     21b:	20 54       	subi	r18, 0x40	; 64
     21d:	61 73       	andi	r22, 0x31	; 49
     21f:	6b 20       	and	r6, r11
     221:	49 44       	sbci	r20, 0x49	; 73
     223:	3a 20       	and	r3, r10
     225:	00 55       	subi	r16, 0x50	; 80

00000226 <__c.2222>:
     226:	55 4e       	sbci	r21, 0xE5	; 229
     228:	4b 4f       	sbci	r20, 0xFB	; 251
     22a:	57 4e       	sbci	r21, 0xE7	; 231
     22c:	00 45       	sbci	r16, 0x50	; 80

0000022d <__c.2219>:
     22d:	45 78       	andi	r20, 0x85	; 133
     22f:	74 65       	ori	r23, 0x54	; 84
     231:	72 6e       	ori	r23, 0xE2	; 226
     233:	61 6c       	ori	r22, 0xC1	; 193
     235:	20 52       	subi	r18, 0x20	; 32
     237:	65 73       	andi	r22, 0x35	; 53
     239:	65 74       	andi	r22, 0x45	; 69
     23b:	00 42       	sbci	r16, 0x20	; 32

0000023c <__c.2216>:
     23c:	42 72       	andi	r20, 0x22	; 34
     23e:	6f 77       	andi	r22, 0x7F	; 127
     240:	6e 20       	and	r6, r14
     242:	4f 75       	andi	r20, 0x5F	; 95
     244:	74 20       	and	r7, r4
     246:	44 65       	ori	r20, 0x54	; 84
     248:	74 65       	ori	r23, 0x54	; 84
     24a:	63 74       	andi	r22, 0x43	; 67
     24c:	00 46       	sbci	r16, 0x60	; 96

0000024d <__c.2213>:
     24d:	46 61       	ori	r20, 0x16	; 22
     24f:	69 6c       	ori	r22, 0xC9	; 201
     251:	65 64       	ori	r22, 0x45	; 69
     253:	20 74       	andi	r18, 0x40	; 64
     255:	6f 20       	and	r6, r15
     257:	63 72       	andi	r22, 0x23	; 35
     259:	65 61       	ori	r22, 0x15	; 21
     25b:	74 65       	ori	r23, 0x54	; 84
     25d:	20 53       	subi	r18, 0x30	; 48
     25f:	65 6d       	ori	r22, 0xD5	; 213
     261:	61 70       	andi	r22, 0x01	; 1
     263:	68 6f       	ori	r22, 0xF8	; 248
     265:	72 65       	ori	r23, 0x52	; 82
     267:	00 46       	sbci	r16, 0x60	; 96

00000268 <__c.2210>:
     268:	46 61       	ori	r20, 0x16	; 22
     26a:	69 6c       	ori	r22, 0xC9	; 201
     26c:	65 64       	ori	r22, 0x45	; 69
     26e:	20 74       	andi	r18, 0x40	; 64
     270:	6f 20       	and	r6, r15
     272:	63 72       	andi	r22, 0x23	; 35
     274:	65 61       	ori	r22, 0x15	; 21
     276:	74 65       	ori	r23, 0x54	; 84
     278:	20 53       	subi	r18, 0x30	; 48
     27a:	69 67       	ori	r22, 0x79	; 121
     27c:	6e 61       	ori	r22, 0x1E	; 30
     27e:	6c 00       	.word	0x006c	; ????

00000280 <__c.2207>:
     280:	4b 65       	ori	r20, 0x5B	; 91
     282:	72 6e       	ori	r23, 0xE2	; 226
     284:	65 6c       	ori	r22, 0xC5	; 197
     286:	20 66       	ori	r18, 0x60	; 96
     288:	75 6e       	ori	r23, 0xE5	; 229
     28a:	63 74       	andi	r22, 0x43	; 67
     28c:	69 6f       	ori	r22, 0xF9	; 249
     28e:	6e 20       	and	r6, r14
     290:	6e 6f       	ori	r22, 0xFE	; 254
     292:	74 20       	and	r7, r4
     294:	69 6d       	ori	r22, 0xD9	; 217
     296:	70 6c       	ori	r23, 0xC0	; 192
     298:	65 6d       	ori	r22, 0xD5	; 213
     29a:	65 6e       	ori	r22, 0xE5	; 229
     29c:	74 65       	ori	r23, 0x54	; 84
     29e:	64 00       	.word	0x0064	; ????

000002a0 <__c.2204>:
     2a0:	44 65       	ori	r20, 0x54	; 84
     2a2:	76 69       	ori	r23, 0x96	; 150
     2a4:	63 65       	ori	r22, 0x53	; 83
     2a6:	20 44       	sbci	r18, 0x40	; 64
     2a8:	72 69       	ori	r23, 0x92	; 146
     2aa:	76 65       	ori	r23, 0x56	; 86
     2ac:	72 20       	and	r7, r2
     2ae:	45 72       	andi	r20, 0x25	; 37
     2b0:	72 6f       	ori	r23, 0xF2	; 242
     2b2:	72 00       	.word	0x0072	; ????

000002b4 <__c.2201>:
     2b4:	57 61       	ori	r21, 0x17	; 23
     2b6:	74 63       	ori	r23, 0x34	; 52
     2b8:	68 64       	ori	r22, 0x48	; 72
     2ba:	6f 67       	ori	r22, 0x7F	; 127
     2bc:	20 52       	subi	r18, 0x20	; 32
     2be:	65 73       	andi	r22, 0x35	; 53
     2c0:	74 61       	ori	r23, 0x14	; 20
     2c2:	72 74       	andi	r23, 0x42	; 66
     2c4:	00 53       	subi	r16, 0x30	; 48

000002c5 <__c.2198>:
     2c5:	53 57       	subi	r21, 0x73	; 115
     2c7:	20 57       	subi	r18, 0x70	; 112
     2c9:	61 74       	andi	r22, 0x41	; 65
     2cb:	63 68       	ori	r22, 0x83	; 131
     2cd:	64 6f       	ori	r22, 0xF4	; 244
     2cf:	67 20       	and	r6, r7
     2d1:	52 65       	ori	r21, 0x52	; 82
     2d3:	73 74       	andi	r23, 0x43	; 67
     2d5:	61 72       	andi	r22, 0x21	; 33
     2d7:	74 00       	.word	0x0074	; ????

000002d9 <__c.2195>:
     2d9:	54 69       	ori	r21, 0x94	; 148
     2db:	6d 65       	ori	r22, 0x5D	; 93
     2dd:	72 20       	and	r7, r2
     2df:	4f 76       	andi	r20, 0x6F	; 111
     2e1:	65 72       	andi	r22, 0x25	; 37
     2e3:	66 6c       	ori	r22, 0xC6	; 198
     2e5:	6f 77       	andi	r22, 0x7F	; 127
     2e7:	00 55       	subi	r16, 0x50	; 80

000002e8 <__c.2192>:
     2e8:	55 6e       	ori	r21, 0xE5	; 229
     2ea:	68 61       	ori	r22, 0x18	; 24
     2ec:	6e 64       	ori	r22, 0x4E	; 78
     2ee:	6c 65       	ori	r22, 0x5C	; 92
     2f0:	64 20       	and	r6, r4
     2f2:	49 6e       	ori	r20, 0xE9	; 233
     2f4:	74 65       	ori	r23, 0x54	; 84
     2f6:	72 72       	andi	r23, 0x22	; 34
     2f8:	75 70       	andi	r23, 0x05	; 5
     2fa:	74 20       	and	r7, r4
     2fc:	56 65       	ori	r21, 0x56	; 86
     2fe:	63 74       	andi	r22, 0x43	; 67
     300:	6f 72       	andi	r22, 0x2F	; 47
     302:	00 4c       	sbci	r16, 0xC0	; 192

00000303 <__c.2189>:
     303:	4c 6f       	ori	r20, 0xFC	; 252
     305:	77 20       	and	r7, r7
     307:	56 6f       	ori	r21, 0xF6	; 246
     309:	6c 74       	andi	r22, 0x4C	; 76
     30b:	61 67       	ori	r22, 0x71	; 113
     30d:	65 00       	.word	0x0065	; ????

0000030f <__c.2186>:
     30f:	45 78       	andi	r20, 0x85	; 133
     311:	74 72       	andi	r23, 0x24	; 36
     313:	61 20       	and	r6, r1
     315:	54 61       	ori	r21, 0x14	; 20
     317:	73 6b       	ori	r23, 0xB3	; 179
     319:	20 73       	andi	r18, 0x30	; 48
     31b:	74 61       	ori	r23, 0x14	; 20
     31d:	72 74       	andi	r23, 0x42	; 66
     31f:	65 64       	ori	r22, 0x45	; 69
     321:	2c 20       	and	r2, r12
     323:	69 73       	andi	r22, 0x39	; 57
     325:	20 6e       	ori	r18, 0xE0	; 224
     327:	72 6b       	ori	r23, 0xB2	; 178
     329:	5f 63       	ori	r21, 0x3F	; 63
     32b:	66 67       	ori	r22, 0x76	; 118
     32d:	2e 68       	ori	r18, 0x8E	; 142
     32f:	20 6f       	ori	r18, 0xF0	; 240
     331:	6b 3f       	cpi	r22, 0xFB	; 251
     333:	00 49       	sbci	r16, 0x90	; 144

00000334 <__c.2183>:
     334:	49 64       	ori	r20, 0x49	; 73
     336:	6c 65       	ori	r22, 0x5C	; 92
     338:	20 6f       	ori	r18, 0xF0	; 240
     33a:	72 20       	and	r7, r2
     33c:	4b 65       	ori	r20, 0x5B	; 91
     33e:	72 6e       	ori	r23, 0xE2	; 226
     340:	65 6c       	ori	r22, 0xC5	; 197
     342:	20 53       	subi	r18, 0x30	; 48
     344:	74 61       	ori	r23, 0x14	; 20
     346:	63 6b       	ori	r22, 0xB3	; 179
     348:	20 4f       	sbci	r18, 0xF0	; 240
     34a:	76 65       	ori	r23, 0x56	; 86
     34c:	72 66       	ori	r23, 0x62	; 98
     34e:	6c 6f       	ori	r22, 0xFC	; 252
     350:	77 00       	.word	0x0077	; ????

00000352 <__c.2180>:
     352:	55 6e       	ori	r21, 0xE5	; 229
     354:	65 78       	andi	r22, 0x85	; 133
     356:	70 65       	ori	r23, 0x50	; 80
     358:	63 74       	andi	r22, 0x43	; 67
     35a:	65 64       	ori	r22, 0x45	; 69
     35c:	20 52       	subi	r18, 0x20	; 32
     35e:	65 73       	andi	r22, 0x35	; 53
     360:	74 61       	ori	r23, 0x14	; 20
     362:	72 74       	andi	r23, 0x42	; 66
     364:	00 44       	sbci	r16, 0x40	; 64

00000365 <__c.2177>:
     365:	44 75       	andi	r20, 0x54	; 84
     367:	70 6c       	ori	r23, 0xC0	; 192
     369:	69 63       	ori	r22, 0x39	; 57
     36b:	61 74       	andi	r22, 0x41	; 65
     36d:	65 64       	ori	r22, 0x45	; 69
     36f:	20 54       	subi	r18, 0x40	; 64
     371:	61 73       	andi	r22, 0x31	; 49
     373:	6b 20       	and	r6, r11
     375:	49 44       	sbci	r20, 0x49	; 73
     377:	00 53       	subi	r16, 0x30	; 48

00000378 <__c.2174>:
     378:	53 63       	ori	r21, 0x33	; 51
     37a:	68 65       	ori	r22, 0x58	; 88
     37c:	64 75       	andi	r22, 0x54	; 84
     37e:	6c 65       	ori	r22, 0x5C	; 92
     380:	72 20       	and	r7, r2
     382:	4d 69       	ori	r20, 0x9D	; 157
     384:	73 73       	andi	r23, 0x33	; 51
     386:	65 64       	ori	r22, 0x45	; 69
     388:	20 57       	subi	r18, 0x70	; 112
     38a:	61 6b       	ori	r22, 0xB1	; 177
     38c:	65 75       	andi	r22, 0x55	; 85
     38e:	70 00       	.word	0x0070	; ????

00000390 <__c.2171>:
     390:	54 61       	ori	r21, 0x14	; 20
     392:	73 6b       	ori	r23, 0xB3	; 179
     394:	20 52       	subi	r18, 0x20	; 32
     396:	65 73       	andi	r22, 0x35	; 53
     398:	65 72       	andi	r22, 0x25	; 37
     39a:	76 65       	ori	r23, 0x56	; 86
     39c:	20 56       	subi	r18, 0x60	; 96
     39e:	69 6f       	ori	r22, 0xF9	; 249
     3a0:	6c 61       	ori	r22, 0x1C	; 28
     3a2:	74 65       	ori	r23, 0x54	; 84
     3a4:	64 00       	.word	0x0064	; ????

000003a6 <__c.2168>:
     3a6:	52 65       	ori	r21, 0x52	; 82
     3a8:	73 65       	ori	r23, 0x53	; 83
     3aa:	72 76       	andi	r23, 0x62	; 98
     3ac:	65 20       	and	r6, r5
     3ae:	45 72       	andi	r20, 0x25	; 37
     3b0:	72 6f       	ori	r23, 0xF2	; 242
     3b2:	72 20       	and	r7, r2
     3b4:	69 6e       	ori	r22, 0xE9	; 233
     3b6:	20 53       	subi	r18, 0x30	; 48
     3b8:	63 68       	ori	r22, 0x83	; 131
     3ba:	65 64       	ori	r22, 0x45	; 69
     3bc:	75 6c       	ori	r23, 0xC5	; 197
     3be:	65 72       	andi	r22, 0x25	; 37
     3c0:	00 49       	sbci	r16, 0x90	; 144

000003c1 <__c.2165>:
     3c1:	49 6e       	ori	r20, 0xE9	; 233
     3c3:	76 61       	ori	r23, 0x16	; 22
     3c5:	6c 69       	ori	r22, 0x9C	; 156
     3c7:	64 20       	and	r6, r4
     3c9:	53 74       	andi	r21, 0x43	; 67
     3cb:	61 63       	ori	r22, 0x31	; 49
     3cd:	6b 20       	and	r6, r11
     3cf:	50 6f       	ori	r21, 0xF0	; 240
     3d1:	69 6e       	ori	r22, 0xE9	; 233
     3d3:	74 65       	ori	r23, 0x54	; 84
     3d5:	72 00       	.word	0x0072	; ????

000003d7 <__c.2162>:
     3d7:	54 61       	ori	r21, 0x14	; 20
     3d9:	73 6b       	ori	r23, 0xB3	; 179
     3db:	20 53       	subi	r18, 0x30	; 48
     3dd:	74 61       	ori	r23, 0x14	; 20
     3df:	63 6b       	ori	r22, 0xB3	; 179
     3e1:	20 4f       	sbci	r18, 0xF0	; 240
     3e3:	76 65       	ori	r23, 0x56	; 86
     3e5:	72 66       	ori	r23, 0x62	; 98
     3e7:	6c 6f       	ori	r22, 0xFC	; 252
     3e9:	77 00       	.word	0x0077	; ????

000003eb <__c.2159>:
     3eb:	53 74       	andi	r21, 0x43	; 67
     3ed:	61 63       	ori	r22, 0x31	; 49
     3ef:	6b 20       	and	r6, r11
     3f1:	77 61       	ori	r23, 0x17	; 23
     3f3:	73 20       	and	r7, r3
     3f5:	6e 6f       	ori	r22, 0xFE	; 254
     3f7:	74 20       	and	r7, r4
     3f9:	64 65       	ori	r22, 0x54	; 84
     3fb:	66 69       	ori	r22, 0x96	; 150
     3fd:	6e 65       	ori	r22, 0x5E	; 94
     3ff:	64 20       	and	r6, r4
     401:	61 73       	andi	r22, 0x31	; 49
     403:	20 6c       	ori	r18, 0xC0	; 192
     405:	61 72       	andi	r22, 0x21	; 33
     407:	67 65       	ori	r22, 0x57	; 87
     409:	20 65       	ori	r18, 0x50	; 80
     40b:	6e 6f       	ori	r22, 0xFE	; 254
     40d:	75 67       	ori	r23, 0x75	; 117
     40f:	68 21       	and	r22, r8
     411:	00 54       	subi	r16, 0x40	; 64

00000412 <__c.2155>:
     412:	54 61       	ori	r21, 0x14	; 20
     414:	73 6b       	ori	r23, 0xB3	; 179
     416:	20 70       	andi	r18, 0x00	; 0
     418:	65 72       	andi	r22, 0x25	; 37
     41a:	69 6f       	ori	r22, 0xF9	; 249
     41c:	64 20       	and	r6, r4
     41e:	74 6f       	ori	r23, 0xF4	; 244
     420:	6f 20       	and	r6, r15
     422:	6c 61       	ori	r22, 0x1C	; 28
     424:	72 67       	ori	r23, 0x72	; 114
     426:	65 2e       	mov	r6, r21
     428:	20 50       	subi	r18, 0x00	; 0
     42a:	65 72       	andi	r22, 0x25	; 37
     42c:	69 6f       	ori	r22, 0xF9	; 249
     42e:	64 20       	and	r6, r4
     430:	6d 75       	andi	r22, 0x5D	; 93
     432:	73 74       	andi	r23, 0x43	; 67
     434:	20 62       	ori	r18, 0x20	; 32
     436:	65 20       	and	r6, r5
     438:	6c 65       	ori	r22, 0x5C	; 92
     43a:	73 73       	andi	r23, 0x33	; 51
     43c:	20 74       	andi	r18, 0x40	; 64
     43e:	68 61       	ori	r22, 0x18	; 24
     440:	6e 20       	and	r6, r14
     442:	36 31       	cpi	r19, 0x16	; 22
     444:	20 73       	andi	r18, 0x30	; 48
     446:	65 63       	ori	r22, 0x35	; 53
     448:	6f 6e       	ori	r22, 0xEF	; 239
     44a:	64 73       	andi	r22, 0x34	; 52
     44c:	2e 00       	.word	0x002e	; ????

0000044e <__c.2152>:
     44e:	29 3a       	cpi	r18, 0xA9	; 169
     450:	20 00       	.word	0x0020	; ????

00000452 <__c.2150>:
     452:	2a 4e       	sbci	r18, 0xEA	; 234
     454:	52 4b       	sbci	r21, 0xB2	; 178
     456:	20 45       	sbci	r18, 0x50	; 80
     458:	52 52       	subi	r21, 0x22	; 34
     45a:	4f 52       	subi	r20, 0x2F	; 47
     45c:	28 00       	.word	0x0028	; ????

0000045e <__c.2060>:
     45e:	0d 0a       	sbc	r0, r29
     460:	53 54       	subi	r21, 0x43	; 67
     462:	41 43       	sbci	r20, 0x31	; 49
     464:	4b 20       	and	r4, r11
     466:	44 55       	subi	r20, 0x54	; 84
     468:	4d 50       	subi	r20, 0x0D	; 13
     46a:	0d 0a       	sbc	r0, r29
     46c:	00 08       	sbc	r0, r0

0000046d <font5x7>:
     46d:	08 08       	sbc	r0, r8
     46f:	2a 1c       	adc	r2, r10
     471:	08 08       	sbc	r0, r8
     473:	1c 2a       	or	r1, r28
     475:	08 08       	sbc	r0, r8
     477:	40 44       	sbci	r20, 0x40	; 64
     479:	4a 51       	subi	r20, 0x1A	; 26
     47b:	40 40       	sbci	r20, 0x00	; 0
     47d:	51 4a       	sbci	r21, 0xA1	; 161
     47f:	44 40       	sbci	r20, 0x04	; 4
     481:	14 74       	andi	r17, 0x44	; 68
     483:	1c 17       	cp	r17, r28
     485:	14 10       	cpse	r1, r4
     487:	20 7f       	andi	r18, 0xF0	; 240
     489:	01 01       	movw	r0, r2
     48b:	00 00       	nop
     48d:	00 00       	nop
     48f:	00 00       	nop
     491:	00 00       	nop
     493:	00 00       	nop
     495:	08 1c       	adc	r0, r8
     497:	2c 08       	sbc	r2, r12
     499:	08 7f       	andi	r16, 0xF8	; 248
     49b:	01 01       	movw	r0, r2
     49d:	01 01       	movw	r0, r2
     49f:	01 01       	movw	r0, r2
     4a1:	01 01       	movw	r0, r2
     4a3:	7f 7f       	andi	r23, 0xFF	; 255
     4a5:	40 40       	sbci	r20, 0x00	; 0
     4a7:	40 40       	sbci	r20, 0x00	; 0
     4a9:	40 40       	sbci	r20, 0x00	; 0
     4ab:	40 40       	sbci	r20, 0x00	; 0
     4ad:	7f 00       	.word	0x007f	; ????
     4af:	00 00       	nop
     4b1:	00 00       	nop
     4b3:	00 00       	nop
     4b5:	00 00       	nop
     4b7:	00 00       	nop
     4b9:	00 00       	nop
     4bb:	00 00       	nop
     4bd:	79 11       	cpse	r23, r9
     4bf:	27 11       	cpse	r18, r7
     4c1:	79 00       	.word	0x0079	; ????
     4c3:	00 00       	nop
     4c5:	00 00       	nop
     4c7:	00 00       	nop
     4c9:	00 00       	nop
     4cb:	00 00       	nop
     4cd:	00 00       	nop
     4cf:	00 00       	nop
     4d1:	7f 01       	movw	r14, r30
     4d3:	01 01       	movw	r0, r2
     4d5:	03 60       	ori	r16, 0x03	; 3
     4d7:	50 48       	sbci	r21, 0x80	; 128
     4d9:	44 7e       	andi	r20, 0xE4	; 228
     4db:	3e 49       	sbci	r19, 0x9E	; 158
     4dd:	49 49       	sbci	r20, 0x99	; 153
     4df:	3e 70       	andi	r19, 0x0E	; 14
     4e1:	0c 03       	fmul	r16, r20
     4e3:	0c 70       	andi	r16, 0x0C	; 12
     4e5:	63 49       	sbci	r22, 0x93	; 147
     4e7:	49 49       	sbci	r20, 0x99	; 153
     4e9:	63 01       	movw	r12, r6
     4eb:	7f 01       	movw	r14, r30
     4ed:	7f 01       	movw	r14, r30
     4ef:	63 55       	subi	r22, 0x53	; 83
     4f1:	49 41       	sbci	r20, 0x19	; 25
     4f3:	41 06       	cpc	r4, r17
     4f5:	01 7e       	andi	r16, 0xE1	; 225
     4f7:	01 06       	cpc	r0, r17
     4f9:	08 55       	subi	r16, 0x58	; 88
     4fb:	7f 55       	subi	r23, 0x5F	; 95
     4fd:	08 0f       	add	r16, r24
     4ff:	10 7f       	andi	r17, 0xF0	; 240
     501:	10 0f       	add	r17, r16
     503:	4e 71       	andi	r20, 0x1E	; 30
     505:	01 71       	andi	r16, 0x11	; 17
     507:	4e 38       	cpi	r20, 0x8E	; 142
     509:	44 44       	sbci	r20, 0x44	; 68
     50b:	38 44       	sbci	r19, 0x48	; 72
     50d:	00 00       	nop
     50f:	00 00       	nop
     511:	00 00       	nop
     513:	00 5f       	subi	r16, 0xF0	; 240
     515:	00 00       	nop
     517:	03 00       	.word	0x0003	; ????
     519:	03 00       	.word	0x0003	; ????
     51b:	00 14       	cp	r0, r0
     51d:	3e 14       	cp	r3, r14
     51f:	3e 14       	cp	r3, r14
     521:	26 49       	sbci	r18, 0x96	; 150
     523:	7f 49       	sbci	r23, 0x9F	; 159
     525:	32 62       	ori	r19, 0x22	; 34
     527:	15 2a       	or	r1, r21
     529:	54 23       	and	r21, r20
     52b:	36 49       	sbci	r19, 0x96	; 150
     52d:	56 20       	and	r5, r6
     52f:	50 00       	.word	0x0050	; ????
     531:	03 00       	.word	0x0003	; ????
     533:	00 00       	nop
     535:	00 1c       	adc	r0, r0
     537:	22 41       	sbci	r18, 0x12	; 18
     539:	00 00       	nop
     53b:	41 22       	and	r4, r17
     53d:	1c 00       	.word	0x001c	; ????
     53f:	00 14       	cp	r0, r0
     541:	0e 14       	cp	r0, r14
     543:	00 08       	sbc	r0, r0
     545:	08 3e       	cpi	r16, 0xE8	; 232
     547:	08 08       	sbc	r0, r8
     549:	00 60       	ori	r16, 0x00	; 0
     54b:	00 00       	nop
     54d:	00 08       	sbc	r0, r0
     54f:	08 08       	sbc	r0, r8
     551:	08 00       	.word	0x0008	; ????
     553:	00 40       	sbci	r16, 0x00	; 0
     555:	00 00       	nop
     557:	00 60       	ori	r16, 0x00	; 0
     559:	10 08       	sbc	r1, r0
     55b:	04 03       	mulsu	r16, r20
     55d:	3e 41       	sbci	r19, 0x1E	; 30
     55f:	41 41       	sbci	r20, 0x11	; 17
     561:	3e 04       	cpc	r3, r14
     563:	02 7f       	andi	r16, 0xF2	; 242
     565:	00 00       	nop
     567:	62 51       	subi	r22, 0x12	; 18
     569:	49 45       	sbci	r20, 0x59	; 89
     56b:	42 22       	and	r4, r18
     56d:	41 49       	sbci	r20, 0x91	; 145
     56f:	49 36       	cpi	r20, 0x69	; 105
     571:	0c 0b       	sbc	r16, r28
     573:	08 7e       	andi	r16, 0xE8	; 232
     575:	08 4f       	sbci	r16, 0xF8	; 248
     577:	49 49       	sbci	r20, 0x99	; 153
     579:	49 31       	cpi	r20, 0x19	; 25
     57b:	3e 49       	sbci	r19, 0x9E	; 158
     57d:	49 49       	sbci	r20, 0x99	; 153
     57f:	32 61       	ori	r19, 0x12	; 18
     581:	11 09       	sbc	r17, r1
     583:	05 03       	mulsu	r16, r21
     585:	36 49       	sbci	r19, 0x96	; 150
     587:	49 49       	sbci	r20, 0x99	; 153
     589:	36 26       	eor	r3, r22
     58b:	49 49       	sbci	r20, 0x99	; 153
     58d:	49 3e       	cpi	r20, 0xE9	; 233
     58f:	00 22       	and	r0, r16
     591:	00 00       	nop
     593:	00 00       	nop
     595:	61 00       	.word	0x0061	; ????
     597:	00 00       	nop
     599:	08 14       	cp	r0, r8
     59b:	14 22       	and	r1, r20
     59d:	22 14       	cp	r2, r2
     59f:	14 14       	cp	r1, r4
     5a1:	14 14       	cp	r1, r4
     5a3:	22 22       	and	r2, r18
     5a5:	14 14       	cp	r1, r4
     5a7:	08 06       	cpc	r0, r24
     5a9:	01 59       	subi	r16, 0x91	; 145
     5ab:	05 02       	muls	r16, r21
     5ad:	3e 41       	sbci	r19, 0x1E	; 30
     5af:	5d 55       	subi	r21, 0x5D	; 93
     5b1:	5e 7e       	andi	r21, 0xEE	; 238
     5b3:	09 09       	sbc	r16, r9
     5b5:	09 7e       	andi	r16, 0xE9	; 233
     5b7:	7f 49       	sbci	r23, 0x9F	; 159
     5b9:	49 49       	sbci	r20, 0x99	; 153
     5bb:	36 3e       	cpi	r19, 0xE6	; 230
     5bd:	41 41       	sbci	r20, 0x11	; 17
     5bf:	41 22       	and	r4, r17
     5c1:	7f 41       	sbci	r23, 0x1F	; 31
     5c3:	41 41       	sbci	r20, 0x11	; 17
     5c5:	3e 7f       	andi	r19, 0xFE	; 254
     5c7:	49 49       	sbci	r20, 0x99	; 153
     5c9:	49 41       	sbci	r20, 0x19	; 25
     5cb:	7f 09       	sbc	r23, r15
     5cd:	09 09       	sbc	r16, r9
     5cf:	01 3e       	cpi	r16, 0xE1	; 225
     5d1:	41 49       	sbci	r20, 0x91	; 145
     5d3:	49 32       	cpi	r20, 0x29	; 41
     5d5:	7f 08       	sbc	r7, r15
     5d7:	08 08       	sbc	r0, r8
     5d9:	7f 00       	.word	0x007f	; ????
     5db:	00 7f       	andi	r16, 0xF0	; 240
     5dd:	00 00       	nop
     5df:	20 40       	sbci	r18, 0x00	; 0
     5e1:	40 40       	sbci	r20, 0x00	; 0
     5e3:	3f 7f       	andi	r19, 0xFF	; 255
     5e5:	08 14       	cp	r0, r8
     5e7:	22 41       	sbci	r18, 0x12	; 18
     5e9:	7f 40       	sbci	r23, 0x0F	; 15
     5eb:	40 40       	sbci	r20, 0x00	; 0
     5ed:	00 7f       	andi	r16, 0xF0	; 240
     5ef:	02 04       	cpc	r0, r2
     5f1:	02 7f       	andi	r16, 0xF2	; 242
     5f3:	7f 02       	muls	r23, r31
     5f5:	1c 20       	and	r1, r12
     5f7:	7f 3e       	cpi	r23, 0xEF	; 239
     5f9:	41 41       	sbci	r20, 0x11	; 17
     5fb:	41 3e       	cpi	r20, 0xE1	; 225
     5fd:	7f 09       	sbc	r23, r15
     5ff:	09 09       	sbc	r16, r9
     601:	06 3e       	cpi	r16, 0xE6	; 230
     603:	41 51       	subi	r20, 0x11	; 17
     605:	61 7e       	andi	r22, 0xE1	; 225
     607:	7f 09       	sbc	r23, r15
     609:	19 29       	or	r17, r9
     60b:	46 26       	eor	r4, r22
     60d:	49 49       	sbci	r20, 0x99	; 153
     60f:	49 32       	cpi	r20, 0x29	; 41
     611:	01 01       	movw	r0, r2
     613:	7f 01       	movw	r14, r30
     615:	01 3f       	cpi	r16, 0xF1	; 241
     617:	40 40       	sbci	r20, 0x00	; 0
     619:	40 3f       	cpi	r20, 0xF0	; 240
     61b:	1f 20       	and	r1, r15
     61d:	40 20       	and	r4, r0
     61f:	1f 3f       	cpi	r17, 0xFF	; 255
     621:	40 30       	cpi	r20, 0x00	; 0
     623:	40 3f       	cpi	r20, 0xF0	; 240
     625:	63 14       	cp	r6, r3
     627:	08 14       	cp	r0, r8
     629:	63 03       	mulsu	r22, r19
     62b:	04 78       	andi	r16, 0x84	; 132
     62d:	04 03       	mulsu	r16, r20
     62f:	61 51       	subi	r22, 0x11	; 17
     631:	49 45       	sbci	r20, 0x59	; 89
     633:	43 7f       	andi	r20, 0xF3	; 243
     635:	41 00       	.word	0x0041	; ????
     637:	00 00       	nop
     639:	00 00       	nop
     63b:	00 00       	nop
     63d:	00 00       	nop
     63f:	00 00       	nop
     641:	41 7f       	andi	r20, 0xF1	; 241
     643:	06 01       	movw	r0, r12
     645:	06 00       	.word	0x0006	; ????
     647:	00 40       	sbci	r16, 0x00	; 0
     649:	40 40       	sbci	r20, 0x00	; 0
     64b:	40 40       	sbci	r20, 0x00	; 0
     64d:	01 02       	muls	r16, r17
     64f:	00 00       	nop
     651:	00 20       	and	r0, r0
     653:	54 54       	subi	r21, 0x44	; 68
     655:	54 78       	andi	r21, 0x84	; 132
     657:	7f 48       	sbci	r23, 0x8F	; 143
     659:	48 48       	sbci	r20, 0x88	; 136
     65b:	30 38       	cpi	r19, 0x80	; 128
     65d:	44 44       	sbci	r20, 0x44	; 68
     65f:	44 28       	or	r4, r4
     661:	38 44       	sbci	r19, 0x48	; 72
     663:	44 44       	sbci	r20, 0x44	; 68
     665:	7f 38       	cpi	r23, 0x8F	; 143
     667:	54 54       	subi	r21, 0x44	; 68
     669:	54 18       	sub	r5, r4
     66b:	08 7e       	andi	r16, 0xE8	; 232
     66d:	09 09       	sbc	r16, r9
     66f:	01 0c       	add	r0, r1
     671:	52 52       	subi	r21, 0x22	; 34
     673:	52 3e       	cpi	r21, 0xE2	; 226
     675:	7f 04       	cpc	r7, r15
     677:	04 04       	cpc	r0, r4
     679:	78 04       	cpc	r7, r8
     67b:	7d 40       	sbci	r23, 0x0D	; 13
     67d:	40 20       	and	r4, r0
     67f:	20 40       	sbci	r18, 0x00	; 0
     681:	40 44       	sbci	r20, 0x40	; 64
     683:	3d 00       	.word	0x003d	; ????
     685:	7f 10       	cpse	r7, r15
     687:	28 44       	sbci	r18, 0x48	; 72
     689:	20 3e       	cpi	r18, 0xE0	; 224
     68b:	51 49       	sbci	r21, 0x91	; 145
     68d:	46 7c       	andi	r20, 0xC6	; 198
     68f:	04 7c       	andi	r16, 0xC4	; 196
     691:	04 78       	andi	r16, 0x84	; 132
     693:	7c 08       	sbc	r7, r12
     695:	04 04       	cpc	r0, r4
     697:	78 38       	cpi	r23, 0x88	; 136
     699:	44 44       	sbci	r20, 0x44	; 68
     69b:	44 38       	cpi	r20, 0x84	; 132
     69d:	7e 12       	cpse	r7, r30
     69f:	12 12       	cpse	r1, r18
     6a1:	0c 0c       	add	r0, r12
     6a3:	12 12       	cpse	r1, r18
     6a5:	12 7e       	andi	r17, 0xE2	; 226
     6a7:	04 78       	andi	r16, 0x84	; 132
     6a9:	04 04       	cpc	r0, r4
     6ab:	08 48       	sbci	r16, 0x88	; 136
     6ad:	54 54       	subi	r21, 0x44	; 68
     6af:	54 24       	eor	r5, r4
     6b1:	04 3f       	cpi	r16, 0xF4	; 244
     6b3:	44 44       	sbci	r20, 0x44	; 68
     6b5:	40 3c       	cpi	r20, 0xC0	; 192
     6b7:	40 40       	sbci	r20, 0x00	; 0
     6b9:	3c 40       	sbci	r19, 0x0C	; 12
     6bb:	1c 20       	and	r1, r12
     6bd:	40 20       	and	r4, r0
     6bf:	1c 3c       	cpi	r17, 0xCC	; 204
     6c1:	40 30       	cpi	r20, 0x00	; 0
     6c3:	40 3c       	cpi	r20, 0xC0	; 192
     6c5:	44 28       	or	r4, r4
     6c7:	10 28       	or	r1, r0
     6c9:	44 26       	eor	r4, r20
     6cb:	48 48       	sbci	r20, 0x88	; 136
     6cd:	48 3e       	cpi	r20, 0xE8	; 232
     6cf:	44 64       	ori	r20, 0x44	; 68
     6d1:	54 4c       	sbci	r21, 0xC4	; 196
     6d3:	44 00       	.word	0x0044	; ????
     6d5:	08 3e       	cpi	r16, 0xE8	; 232
     6d7:	41 00       	.word	0x0041	; ????
     6d9:	00 00       	nop
     6db:	7f 00       	.word	0x007f	; ????
     6dd:	00 00       	nop
     6df:	41 3e       	cpi	r20, 0xE1	; 225
     6e1:	08 00       	.word	0x0008	; ????
     6e3:	00 00       	nop
     6e5:	00 00       	nop
     6e7:	00 00       	nop
     6e9:	00 00       	nop
     6eb:	00 00       	nop
     6ed:	00 00       	nop
     6ef:	00 00       	nop
     6f1:	00 00       	nop
     6f3:	00 00       	nop
     6f5:	00 00       	nop
     6f7:	00 00       	nop
     6f9:	00 00       	nop
     6fb:	00 20       	and	r0, r0
     6fd:	48 3e       	cpi	r20, 0xE8	; 232
     6ff:	09 02       	muls	r16, r25
     701:	00 00       	nop
     703:	00 00       	nop
     705:	00 00       	nop
     707:	00 00       	nop
     709:	00 00       	nop
     70b:	04 04       	cpc	r0, r4
     70d:	7f 04       	cpc	r7, r15
     70f:	04 00       	.word	0x0004	; ????
     711:	00 00       	nop
     713:	00 00       	nop
     715:	00 00       	nop
     717:	00 00       	nop
     719:	00 00       	nop
     71b:	00 00       	nop
     71d:	00 00       	nop
     71f:	00 00       	nop
     721:	00 00       	nop
     723:	00 00       	nop
     725:	00 00       	nop
     727:	00 00       	nop
     729:	00 00       	nop
     72b:	00 00       	nop
     72d:	00 00       	nop
     72f:	00 00       	nop
     731:	00 00       	nop
     733:	00 00       	nop
     735:	00 00       	nop
     737:	00 00       	nop
     739:	00 00       	nop
     73b:	00 00       	nop
     73d:	00 00       	nop
     73f:	00 00       	nop
     741:	00 00       	nop
     743:	00 00       	nop
     745:	00 00       	nop
     747:	00 00       	nop
     749:	00 00       	nop
     74b:	00 02       	muls	r16, r16
     74d:	04 01       	movw	r0, r8
     74f:	02 00       	.word	0x0002	; ????
     751:	00 00       	nop
     753:	00 00       	nop
     755:	00 00       	nop
     757:	18 18       	sub	r1, r8
     759:	00 00       	nop
     75b:	00 00       	nop
     75d:	00 00       	nop
     75f:	00 00       	nop
     761:	00 00       	nop
     763:	00 00       	nop
     765:	00 00       	nop
     767:	00 00       	nop
     769:	00 00       	nop
     76b:	00 00       	nop
     76d:	00 00       	nop
     76f:	00 00       	nop
     771:	00 00       	nop
     773:	00 00       	nop
     775:	00 00       	nop
     777:	00 00       	nop
     779:	00 00       	nop
     77b:	00 00       	nop
     77d:	00 00       	nop
     77f:	00 00       	nop
     781:	00 00       	nop
     783:	00 00       	nop
     785:	00 00       	nop
     787:	00 00       	nop
     789:	00 00       	nop
     78b:	00 00       	nop
     78d:	00 00       	nop
     78f:	00 00       	nop
     791:	00 00       	nop
     793:	00 79       	andi	r16, 0x90	; 144
     795:	00 00       	nop
     797:	00 00       	nop
     799:	00 00       	nop
     79b:	00 48       	sbci	r16, 0x80	; 128
     79d:	7e 49       	sbci	r23, 0x9E	; 158
     79f:	49 42       	sbci	r20, 0x29	; 41
     7a1:	00 00       	nop
     7a3:	00 00       	nop
     7a5:	00 15       	cp	r16, r0
     7a7:	16 7c       	andi	r17, 0xC6	; 198
     7a9:	16 15       	cp	r17, r6
     7ab:	00 00       	nop
     7ad:	00 00       	nop
     7af:	00 0a       	sbc	r0, r16
     7b1:	55 55       	subi	r21, 0x55	; 85
     7b3:	55 28       	or	r5, r5
     7b5:	00 01       	movw	r0, r0
     7b7:	00 01       	movw	r0, r0
     7b9:	00 3e       	cpi	r16, 0xE0	; 224
     7bb:	63 5d       	subi	r22, 0xD3	; 211
     7bd:	6b 3e       	cpi	r22, 0xEB	; 235
     7bf:	00 00       	nop
     7c1:	00 00       	nop
     7c3:	00 08       	sbc	r0, r0
     7c5:	14 2a       	or	r1, r20
     7c7:	14 22       	and	r1, r20
     7c9:	00 00       	nop
     7cb:	00 00       	nop
     7cd:	00 00       	nop
     7cf:	00 00       	nop
     7d1:	00 00       	nop
     7d3:	3e 41       	sbci	r19, 0x1E	; 30
     7d5:	75 4b       	sbci	r23, 0xB5	; 181
     7d7:	3e 01       	movw	r6, r28
     7d9:	01 01       	movw	r0, r2
     7db:	01 01       	movw	r0, r2
     7dd:	00 02       	muls	r16, r16
     7df:	05 02       	muls	r16, r21
     7e1:	00 00       	nop
     7e3:	00 00       	nop
     7e5:	00 00       	nop
     7e7:	00 00       	nop
     7e9:	00 00       	nop
     7eb:	00 00       	nop
     7ed:	00 00       	nop
     7ef:	00 00       	nop
     7f1:	00 00       	nop
     7f3:	00 00       	nop
     7f5:	00 00       	nop
     7f7:	00 00       	nop
     7f9:	00 00       	nop
     7fb:	06 0f       	add	r16, r22
     7fd:	7f 01       	movw	r14, r30
     7ff:	7f 00       	.word	0x007f	; ????
     801:	00 00       	nop
     803:	00 00       	nop
     805:	00 00       	nop
     807:	00 00       	nop
     809:	00 00       	nop
     80b:	00 00       	nop
     80d:	00 00       	nop
     80f:	07 05       	cpc	r16, r7
     811:	07 00       	.word	0x0007	; ????
     813:	00 22       	and	r0, r16
     815:	14 2a       	or	r1, r20
     817:	14 08       	sbc	r1, r4
     819:	0f 00       	.word	0x000f	; ????
     81b:	3c 20       	and	r3, r12
     81d:	78 0f       	add	r23, r24
     81f:	00 48       	sbci	r16, 0x80	; 128
     821:	64 58       	subi	r22, 0x84	; 132
     823:	00 00       	nop
     825:	00 00       	nop
     827:	00 30       	cpi	r16, 0x00	; 0
     829:	48 45       	sbci	r20, 0x58	; 88
     82b:	40 20       	and	r4, r0
     82d:	00 00       	nop
     82f:	00 00       	nop
     831:	00 00       	nop
     833:	00 00       	nop
     835:	00 00       	nop
     837:	00 00       	nop
     839:	00 00       	nop
     83b:	00 72       	andi	r16, 0x20	; 32
     83d:	29 29       	or	r18, r9
     83f:	2a 71       	andi	r18, 0x1A	; 26
     841:	78 25       	eor	r23, r8
     843:	24 25       	eor	r18, r4
     845:	78 70       	andi	r23, 0x08	; 8
     847:	2a 25       	eor	r18, r10
     849:	2a 70       	andi	r18, 0x0A	; 10
     84b:	7e 09       	sbc	r23, r14
     84d:	7f 49       	sbci	r23, 0x9F	; 159
     84f:	49 0e       	add	r4, r25
     851:	51 51       	subi	r21, 0x11	; 17
     853:	71 11       	cpse	r23, r1
     855:	00 00       	nop
     857:	00 00       	nop
     859:	00 7c       	andi	r16, 0xC0	; 192
     85b:	54 56       	subi	r21, 0x64	; 100
     85d:	55 44       	sbci	r21, 0x45	; 69
     85f:	00 00       	nop
     861:	00 00       	nop
     863:	00 00       	nop
     865:	00 00       	nop
     867:	00 00       	nop
     869:	00 00       	nop
     86b:	00 00       	nop
     86d:	00 00       	nop
     86f:	00 00       	nop
     871:	00 00       	nop
     873:	00 00       	nop
     875:	00 00       	nop
     877:	00 00       	nop
     879:	00 00       	nop
     87b:	00 00       	nop
     87d:	00 00       	nop
     87f:	00 00       	nop
     881:	00 7a       	andi	r16, 0xA0	; 160
     883:	09 11       	cpse	r16, r9
     885:	22 79       	andi	r18, 0x92	; 146
     887:	00 00       	nop
     889:	00 00       	nop
     88b:	00 00       	nop
     88d:	00 00       	nop
     88f:	00 00       	nop
     891:	00 00       	nop
     893:	00 00       	nop
     895:	00 3a       	cpi	r16, 0xA0	; 160
     897:	45 45       	sbci	r20, 0x55	; 85
     899:	46 39       	cpi	r20, 0x96	; 150
     89b:	3d 42       	sbci	r19, 0x2D	; 45
     89d:	42 42       	sbci	r20, 0x22	; 34
     89f:	3d 22       	and	r3, r29
     8a1:	14 08       	sbc	r1, r4
     8a3:	14 22       	and	r1, r20
     8a5:	5c 32       	cpi	r21, 0x2C	; 44
     8a7:	2a 26       	eor	r2, r26
     8a9:	1d 00       	.word	0x001d	; ????
     8ab:	00 00       	nop
     8ad:	00 00       	nop
     8af:	00 00       	nop
     8b1:	00 00       	nop
     8b3:	00 00       	nop
     8b5:	00 00       	nop
     8b7:	00 00       	nop
     8b9:	3c 41       	sbci	r19, 0x1C	; 28
     8bb:	40 41       	sbci	r20, 0x10	; 16
     8bd:	3c 00       	.word	0x003c	; ????
     8bf:	00 00       	nop
     8c1:	00 00       	nop
     8c3:	00 00       	nop
     8c5:	00 00       	nop
     8c7:	00 00       	nop
     8c9:	00 00       	nop
     8cb:	00 00       	nop
     8cd:	20 55       	subi	r18, 0x50	; 80
     8cf:	56 54       	subi	r21, 0x46	; 70
     8d1:	78 20       	and	r7, r8
     8d3:	54 56       	subi	r21, 0x64	; 100
     8d5:	55 78       	andi	r21, 0x85	; 133
     8d7:	20 56       	subi	r18, 0x60	; 96
     8d9:	55 56       	subi	r21, 0x65	; 101
     8db:	78 22       	and	r7, r24
     8dd:	51 55       	subi	r21, 0x51	; 81
     8df:	56 79       	andi	r21, 0x96	; 150
     8e1:	20 55       	subi	r18, 0x50	; 80
     8e3:	54 55       	subi	r21, 0x54	; 84
     8e5:	78 00       	.word	0x0078	; ????
     8e7:	00 00       	nop
     8e9:	00 00       	nop
     8eb:	24 54       	subi	r18, 0x44	; 68
     8ed:	78 54       	subi	r23, 0x48	; 72
     8ef:	58 0c       	add	r5, r8
     8f1:	52 52       	subi	r21, 0x22	; 34
     8f3:	72 12       	cpse	r7, r18
     8f5:	38 55       	subi	r19, 0x58	; 88
     8f7:	56 54       	subi	r21, 0x46	; 70
     8f9:	18 38       	cpi	r17, 0x88	; 136
     8fb:	54 56       	subi	r21, 0x64	; 100
     8fd:	55 18       	sub	r5, r5
     8ff:	38 56       	subi	r19, 0x68	; 104
     901:	55 56       	subi	r21, 0x65	; 101
     903:	18 38       	cpi	r17, 0x88	; 136
     905:	55 54       	subi	r21, 0x45	; 69
     907:	55 18       	sub	r5, r5
     909:	00 49       	sbci	r16, 0x90	; 144
     90b:	7a 40       	sbci	r23, 0x0A	; 10
     90d:	00 00       	nop
     90f:	48 7a       	andi	r20, 0xA8	; 168
     911:	41 00       	.word	0x0041	; ????
     913:	00 4a       	sbci	r16, 0xA0	; 160
     915:	79 42       	sbci	r23, 0x29	; 41
     917:	00 00       	nop
     919:	4a 78       	andi	r20, 0x8A	; 138
     91b:	42 00       	.word	0x0042	; ????
     91d:	00 00       	nop
     91f:	00 00       	nop
     921:	00 7a       	andi	r16, 0xA0	; 160
     923:	11 09       	sbc	r17, r1
     925:	0a 71       	andi	r16, 0x1A	; 26
     927:	30 49       	sbci	r19, 0x90	; 144
     929:	4a 48       	sbci	r20, 0x8A	; 138
     92b:	30 30       	cpi	r19, 0x00	; 0
     92d:	48 4a       	sbci	r20, 0xA8	; 168
     92f:	49 30       	cpi	r20, 0x09	; 9
     931:	30 4a       	sbci	r19, 0xA0	; 160
     933:	49 4a       	sbci	r20, 0xA9	; 169
     935:	30 32       	cpi	r19, 0x20	; 32
     937:	49 49       	sbci	r20, 0x99	; 153
     939:	4a 31       	cpi	r20, 0x1A	; 26
     93b:	30 4a       	sbci	r19, 0xA0	; 160
     93d:	48 4a       	sbci	r20, 0xA8	; 168
     93f:	30 08       	sbc	r3, r0
     941:	08 2a       	or	r0, r24
     943:	08 08       	sbc	r0, r8
     945:	18 64       	ori	r17, 0x48	; 72
     947:	3c 26       	eor	r3, r28
     949:	18 38       	cpi	r17, 0x88	; 136
     94b:	41 42       	sbci	r20, 0x21	; 33
     94d:	20 78       	andi	r18, 0x80	; 128
     94f:	38 40       	sbci	r19, 0x08	; 8
     951:	42 21       	and	r20, r2
     953:	78 38       	cpi	r23, 0x88	; 136
     955:	42 41       	sbci	r20, 0x12	; 18
     957:	22 78       	andi	r18, 0x82	; 130
     959:	38 42       	sbci	r19, 0x28	; 40
     95b:	40 22       	and	r4, r16
     95d:	78 00       	.word	0x0078	; ????
     95f:	00 00       	nop
     961:	00 00       	nop
     963:	00 00       	nop
     965:	00 00       	nop
     967:	00 0c       	add	r0, r0
     969:	51 50       	subi	r21, 0x01	; 1
     96b:	51 3c       	cpi	r21, 0xC1	; 193

0000096d <__c.1865>:
     96d:	6e 61       	ori	r22, 0x1E	; 30
     96f:	6e 00       	.word	0x006e	; ????

00000971 <__c.1863>:
     971:	69 6e       	ori	r22, 0xE9	; 233
     973:	66 00       	.word	0x0066	; ????
     975:	00 40       	sbci	r16, 0x00	; 0
     977:	7a 10       	cpse	r7, r10
     979:	f3 5a       	subi	r31, 0xA3	; 163
     97b:	00 a0       	ldd	r0, Z+32	; 0x20
     97d:	72 4e       	sbci	r23, 0xE2	; 226
     97f:	18 09       	sbc	r17, r8
     981:	00 10       	cpse	r0, r0
     983:	a5 d4       	rcall	.+2378   	; 0x12cf <rf_addr_decode_set_my_mac+0x1d>
     985:	e8 00       	.word	0x00e8	; ????
     987:	00 e8       	ldi	r16, 0x80	; 128
     989:	76 48       	sbci	r23, 0x86	; 134
     98b:	17 00       	.word	0x0017	; ????
     98d:	00 e4       	ldi	r16, 0x40	; 64
     98f:	0b 54       	subi	r16, 0x4B	; 75
     991:	02 00       	.word	0x0002	; ????
     993:	00 ca       	rjmp	.-3072   	; 0xfffffd95 <__eeprom_end+0xff7efd95>
     995:	9a 3b       	cpi	r25, 0xBA	; 186
     997:	00 00       	nop
     999:	00 e1       	ldi	r16, 0x10	; 16
     99b:	f5 05       	cpc	r31, r5
     99d:	00 00       	nop
     99f:	80 96       	adiw	r24, 0x20	; 32
     9a1:	98 00       	.word	0x0098	; ????
     9a3:	00 00       	nop
     9a5:	40 42       	sbci	r20, 0x20	; 32
     9a7:	0f 00       	.word	0x000f	; ????
     9a9:	00 00       	nop
     9ab:	a0 86       	std	Z+8, r10	; 0x08
     9ad:	01 00       	.word	0x0001	; ????
     9af:	00 00       	nop
     9b1:	10 27       	eor	r17, r16
     9b3:	00 00       	nop
     9b5:	00 00       	nop
     9b7:	e8 03       	fmulsu	r22, r16
     9b9:	00 00       	nop
     9bb:	00 00       	nop
     9bd:	64 00       	.word	0x0064	; ????
     9bf:	00 00       	nop
     9c1:	00 00       	nop
     9c3:	0a 00       	.word	0x000a	; ????
     9c5:	00 00       	nop
     9c7:	00 00       	nop
     9c9:	01 00       	.word	0x0001	; ????
     9cb:	00 00       	nop
     9cd:	00 00       	nop
     9cf:	2c 76       	andi	r18, 0x6C	; 108
     9d1:	d8 88       	ldd	r13, Y+16	; 0x10
     9d3:	dc 67       	ori	r29, 0x7C	; 124
     9d5:	4f 08       	sbc	r4, r15
     9d7:	23 df       	rcall	.-442    	; 0x81f <font5x7+0x3b2>
     9d9:	c1 df       	rcall	.-126    	; 0x95d <font5x7+0x4f0>
     9db:	ae 59       	subi	r26, 0x9E	; 158
     9dd:	e1 b1       	in	r30, 0x01	; 1
     9df:	b7 96       	adiw	r30, 0x27	; 39
     9e1:	e5 e3       	ldi	r30, 0x35	; 53
     9e3:	e4 53       	subi	r30, 0x34	; 52
     9e5:	c6 3a       	cpi	r28, 0xA6	; 166
     9e7:	e6 51       	subi	r30, 0x16	; 22
     9e9:	99 76       	andi	r25, 0x69	; 105
     9eb:	96 e8       	ldi	r25, 0x86	; 134
     9ed:	e6 c2       	rjmp	.+1484   	; 0xfbb <rf_security_set_key+0xf>
     9ef:	84 26       	eor	r8, r20
     9f1:	eb 89       	ldd	r30, Y+19	; 0x13
     9f3:	8c 9b       	sbis	0x11, 4	; 17
     9f5:	62 ed       	ldi	r22, 0xD2	; 210
     9f7:	40 7c       	andi	r20, 0xC0	; 192
     9f9:	6f fc       	.word	0xfc6f	; ????
     9fb:	ef bc       	out	0x2f, r14	; 47
     9fd:	9c 9f       	mul	r25, r28
     9ff:	40 f2       	brcs	.-112    	; 0x991 <__c.1863+0x20>
     a01:	ba a5       	ldd	r27, Y+42	; 0x2a
     a03:	6f a5       	ldd	r22, Y+47	; 0x2f
     a05:	f4 90       	lpm	r15, Z+
     a07:	05 5a       	subi	r16, 0xA5	; 165
     a09:	2a f7       	brpl	.-54     	; 0x9d5 <__c.1863+0x64>
     a0b:	5c 93       	st	X, r21
     a0d:	6b 6c       	ori	r22, 0xCB	; 203
     a0f:	f9 67       	ori	r31, 0x79	; 121
     a11:	6d c1       	rjmp	.+730    	; 0xced <nrk_create_taskset+0x191>
     a13:	1b fc       	.word	0xfc1b	; ????
     a15:	e0 e4       	ldi	r30, 0x40	; 64
     a17:	0d 47       	sbci	r16, 0x7D	; 125
     a19:	fe f5       	brtc	.+126    	; 0xa99 <__do_clear_bss+0x3>
     a1b:	20 e6       	ldi	r18, 0x60	; 96
     a1d:	b5 00       	.word	0x00b5	; ????
     a1f:	d0 ed       	ldi	r29, 0xD0	; 208
     a21:	90 2e       	mov	r9, r16
     a23:	03 00       	.word	0x0003	; ????
     a25:	94 35       	cpi	r25, 0x54	; 84
     a27:	77 05       	cpc	r23, r7
     a29:	00 80       	ld	r0, Z
     a2b:	84 1e       	adc	r8, r20
     a2d:	08 00       	.word	0x0008	; ????
     a2f:	00 20       	and	r0, r0
     a31:	4e 0a       	sbc	r4, r30
     a33:	00 00       	nop
     a35:	00 c8       	rjmp	.-4096   	; 0xfffffa37 <__eeprom_end+0xff7efa37>
     a37:	0c 33       	cpi	r16, 0x3C	; 60
     a39:	33 33       	cpi	r19, 0x33	; 51
     a3b:	33 0f       	add	r19, r19
     a3d:	98 6e       	ori	r25, 0xE8	; 232
     a3f:	12 83       	std	Z+2, r17	; 0x02
     a41:	11 41       	sbci	r17, 0x11	; 17
     a43:	ef 8d       	ldd	r30, Y+31	; 0x1f
     a45:	21 14       	cp	r2, r1
     a47:	89 3b       	cpi	r24, 0xB9	; 185
     a49:	e6 55       	subi	r30, 0x56	; 86
     a4b:	16 cf       	rjmp	.-468    	; 0x879 <font5x7+0x40c>
     a4d:	fe e6       	ldi	r31, 0x6E	; 110
     a4f:	db 18       	sub	r13, r11
     a51:	d1 84       	ldd	r13, Z+9	; 0x09
     a53:	4b 38       	cpi	r20, 0x8B	; 139
     a55:	1b f7       	brvc	.-58     	; 0xa1d <__c.1863+0xac>
     a57:	7c 1d       	adc	r23, r12
     a59:	90 1d       	adc	r25, r0
     a5b:	a4 bb       	out	0x14, r26	; 20
     a5d:	e4 24       	eor	r14, r4
     a5f:	20 32       	cpi	r18, 0x20	; 32
     a61:	84 72       	andi	r24, 0x24	; 36
     a63:	5e 22       	and	r5, r30
     a65:	81 00       	.word	0x0081	; ????
     a67:	c9 f1       	breq	.+114    	; 0xadb <Task1+0xd>
     a69:	24 ec       	ldi	r18, 0xC4	; 196
     a6b:	a1 e5       	ldi	r26, 0x51	; 81
     a6d:	3d 27       	eor	r19, r29
     a6f:	00 11       	cpse	r16, r0

00000a70 <__ctors_end>:
     a70:	11 24       	eor	r1, r1
     a72:	1f be       	out	0x3f, r1	; 63
     a74:	cf ef       	ldi	r28, 0xFF	; 255
     a76:	d0 e1       	ldi	r29, 0x10	; 16
     a78:	de bf       	out	0x3e, r29	; 62
     a7a:	cd bf       	out	0x3d, r28	; 61

00000a7c <__do_copy_data>:
     a7c:	12 e0       	ldi	r17, 0x02	; 2
     a7e:	a0 e0       	ldi	r26, 0x00	; 0
     a80:	b1 e0       	ldi	r27, 0x01	; 1
     a82:	e8 e2       	ldi	r30, 0x28	; 40
     a84:	f9 e9       	ldi	r31, 0x99	; 153
     a86:	00 e0       	ldi	r16, 0x00	; 0
     a88:	0b bf       	out	0x3b, r16	; 59
     a8a:	02 c0       	rjmp	.+4      	; 0xa90 <__do_copy_data+0x14>
     a8c:	07 90       	elpm	r0, Z+
     a8e:	0d 92       	st	X+, r0
     a90:	ae 3d       	cpi	r26, 0xDE	; 222
     a92:	b1 07       	cpc	r27, r17
     a94:	d9 f7       	brne	.-10     	; 0xa8c <__do_copy_data+0x10>

00000a96 <__do_clear_bss>:
     a96:	17 e0       	ldi	r17, 0x07	; 7
     a98:	ae ed       	ldi	r26, 0xDE	; 222
     a9a:	b2 e0       	ldi	r27, 0x02	; 2
     a9c:	01 c0       	rjmp	.+2      	; 0xaa0 <.do_clear_bss_start>

00000a9e <.do_clear_bss_loop>:
     a9e:	1d 92       	st	X+, r1

00000aa0 <.do_clear_bss_start>:
     aa0:	af 3e       	cpi	r26, 0xEF	; 239
     aa2:	b1 07       	cpc	r27, r17
     aa4:	e1 f7       	brne	.-8      	; 0xa9e <.do_clear_bss_loop>
     aa6:	0e 94 b4 06 	call	0xd68	; 0xd68 <main>
     aaa:	0c 94 92 4c 	jmp	0x9924	; 0x9924 <_exit>

00000aae <__bad_interrupt>:
     aae:	0c 94 4b 2d 	jmp	0x5a96	; 0x5a96 <__vector_default>

00000ab2 <Task3>:
     ab2:	81 e0       	ldi	r24, 0x01	; 1
     ab4:	90 e0       	ldi	r25, 0x00	; 0
     ab6:	0e 94 ed 11 	call	0x23da	; 0x23da <nrk_led_toggle>
     aba:	0e 94 2f 25 	call	0x4a5e	; 0x4a5e <nrk_wait_until_next_period>
     abe:	f9 cf       	rjmp	.-14     	; 0xab2 <Task3>

00000ac0 <Task2>:
     ac0:	8f ef       	ldi	r24, 0xFF	; 255
     ac2:	90 e0       	ldi	r25, 0x00	; 0
     ac4:	0e 94 ed 11 	call	0x23da	; 0x23da <nrk_led_toggle>
     ac8:	0e 94 2f 25 	call	0x4a5e	; 0x4a5e <nrk_wait_until_next_period>
     acc:	f9 cf       	rjmp	.-14     	; 0xac0 <Task2>

00000ace <Task1>:
     ace:	df 93       	push	r29
     ad0:	cf 93       	push	r28
     ad2:	cd b7       	in	r28, 0x3d	; 61
     ad4:	de b7       	in	r29, 0x3e	; 62
     ad6:	28 97       	sbiw	r28, 0x08	; 8
     ad8:	0f b6       	in	r0, 0x3f	; 63
     ada:	f8 94       	cli
     adc:	de bf       	out	0x3e, r29	; 62
     ade:	0f be       	out	0x3f, r0	; 63
     ae0:	cd bf       	out	0x3d, r28	; 61
     ae2:	00 d0       	rcall	.+0      	; 0xae4 <Task1+0x16>
     ae4:	00 d0       	rcall	.+0      	; 0xae6 <Task1+0x18>
     ae6:	80 e0       	ldi	r24, 0x00	; 0
     ae8:	91 e0       	ldi	r25, 0x01	; 1
     aea:	ed b7       	in	r30, 0x3d	; 61
     aec:	fe b7       	in	r31, 0x3e	; 62
     aee:	92 83       	std	Z+2, r25	; 0x02
     af0:	81 83       	std	Z+1, r24	; 0x01
     af2:	85 e6       	ldi	r24, 0x65	; 101
     af4:	90 e0       	ldi	r25, 0x00	; 0
     af6:	94 83       	std	Z+4, r25	; 0x04
     af8:	83 83       	std	Z+3, r24	; 0x03
     afa:	0e 94 47 4a 	call	0x948e	; 0x948e <printf>
     afe:	85 e0       	ldi	r24, 0x05	; 5
     b00:	90 e0       	ldi	r25, 0x00	; 0
     b02:	a0 e0       	ldi	r26, 0x00	; 0
     b04:	b0 e0       	ldi	r27, 0x00	; 0
     b06:	89 83       	std	Y+1, r24	; 0x01
     b08:	9a 83       	std	Y+2, r25	; 0x02
     b0a:	ab 83       	std	Y+3, r26	; 0x03
     b0c:	bc 83       	std	Y+4, r27	; 0x04
     b0e:	1d 82       	std	Y+5, r1	; 0x05
     b10:	1e 82       	std	Y+6, r1	; 0x06
     b12:	1f 82       	std	Y+7, r1	; 0x07
     b14:	18 86       	std	Y+8, r1	; 0x08
     b16:	0f 90       	pop	r0
     b18:	0f 90       	pop	r0
     b1a:	0f 90       	pop	r0
     b1c:	0f 90       	pop	r0
     b1e:	80 e0       	ldi	r24, 0x00	; 0
     b20:	90 e0       	ldi	r25, 0x00	; 0
     b22:	be 01       	movw	r22, r28
     b24:	6f 5f       	subi	r22, 0xFF	; 255
     b26:	7f 4f       	sbci	r23, 0xFF	; 255
     b28:	40 e0       	ldi	r20, 0x00	; 0
     b2a:	50 e0       	ldi	r21, 0x00	; 0
     b2c:	0e 94 ca 2b 	call	0x5794	; 0x5794 <nrk_sw_wdt_init>
     b30:	80 e0       	ldi	r24, 0x00	; 0
     b32:	90 e0       	ldi	r25, 0x00	; 0
     b34:	0e 94 52 2c 	call	0x58a4	; 0x58a4 <nrk_sw_wdt_start>
     b38:	80 e0       	ldi	r24, 0x00	; 0
     b3a:	90 e0       	ldi	r25, 0x00	; 0
     b3c:	0e 94 f4 2b 	call	0x57e8	; 0x57e8 <nrk_sw_wdt_update>
     b40:	80 e0       	ldi	r24, 0x00	; 0
     b42:	90 e0       	ldi	r25, 0x00	; 0
     b44:	0e 94 ed 11 	call	0x23da	; 0x23da <nrk_led_toggle>
     b48:	0e 94 2f 25 	call	0x4a5e	; 0x4a5e <nrk_wait_until_next_period>
     b4c:	f5 cf       	rjmp	.-22     	; 0xb38 <Task1+0x6a>

00000b4e <Task4>:
     b4e:	82 e0       	ldi	r24, 0x02	; 2
     b50:	90 e0       	ldi	r25, 0x00	; 0
     b52:	0e 94 ed 11 	call	0x23da	; 0x23da <nrk_led_toggle>
     b56:	0e 94 2f 25 	call	0x4a5e	; 0x4a5e <nrk_wait_until_next_period>
     b5a:	f9 cf       	rjmp	.-14     	; 0xb4e <Task4>

00000b5c <nrk_create_taskset>:
     b5c:	cf 92       	push	r12
     b5e:	df 92       	push	r13
     b60:	ef 92       	push	r14
     b62:	ff 92       	push	r15
     b64:	0f 93       	push	r16
     b66:	1f 93       	push	r17
     b68:	cf 93       	push	r28
     b6a:	df 93       	push	r29
     b6c:	c5 e9       	ldi	r28, 0x95	; 149
     b6e:	d3 e0       	ldi	r29, 0x03	; 3
     b70:	ce 01       	movw	r24, r28
     b72:	67 e6       	ldi	r22, 0x67	; 103
     b74:	75 e0       	ldi	r23, 0x05	; 5
     b76:	0e 94 a5 2e 	call	0x5d4a	; 0x5d4a <nrk_task_set_entry_function>
     b7a:	ce 01       	movw	r24, r28
     b7c:	67 e6       	ldi	r22, 0x67	; 103
     b7e:	74 e0       	ldi	r23, 0x04	; 4
     b80:	40 e8       	ldi	r20, 0x80	; 128
     b82:	50 e0       	ldi	r21, 0x00	; 0
     b84:	0e 94 eb 2e 	call	0x5dd6	; 0x5dd6 <nrk_task_set_stk>
     b88:	03 e0       	ldi	r16, 0x03	; 3
     b8a:	00 93 9d 03 	sts	0x039D, r16
     b8e:	11 e0       	ldi	r17, 0x01	; 1
     b90:	10 93 9c 03 	sts	0x039C, r17
     b94:	10 93 9e 03 	sts	0x039E, r17
     b98:	10 93 9f 03 	sts	0x039F, r17
     b9c:	10 92 a0 03 	sts	0x03A0, r1
     ba0:	10 92 a1 03 	sts	0x03A1, r1
     ba4:	10 92 a2 03 	sts	0x03A2, r1
     ba8:	10 92 a3 03 	sts	0x03A3, r1
     bac:	80 e0       	ldi	r24, 0x00	; 0
     bae:	92 ec       	ldi	r25, 0xC2	; 194
     bb0:	ab ee       	ldi	r26, 0xEB	; 235
     bb2:	bb e0       	ldi	r27, 0x0B	; 11
     bb4:	80 93 a4 03 	sts	0x03A4, r24
     bb8:	90 93 a5 03 	sts	0x03A5, r25
     bbc:	a0 93 a6 03 	sts	0x03A6, r26
     bc0:	b0 93 a7 03 	sts	0x03A7, r27
     bc4:	80 e8       	ldi	r24, 0x80	; 128
     bc6:	c8 2e       	mov	r12, r24
     bc8:	80 ef       	ldi	r24, 0xF0	; 240
     bca:	d8 2e       	mov	r13, r24
     bcc:	8a ef       	ldi	r24, 0xFA	; 250
     bce:	e8 2e       	mov	r14, r24
     bd0:	82 e0       	ldi	r24, 0x02	; 2
     bd2:	f8 2e       	mov	r15, r24
     bd4:	c0 92 a8 03 	sts	0x03A8, r12
     bd8:	d0 92 a9 03 	sts	0x03A9, r13
     bdc:	e0 92 aa 03 	sts	0x03AA, r14
     be0:	f0 92 ab 03 	sts	0x03AB, r15
     be4:	10 92 ac 03 	sts	0x03AC, r1
     be8:	10 92 ad 03 	sts	0x03AD, r1
     bec:	10 92 ae 03 	sts	0x03AE, r1
     bf0:	10 92 af 03 	sts	0x03AF, r1
     bf4:	10 92 b0 03 	sts	0x03B0, r1
     bf8:	10 92 b1 03 	sts	0x03B1, r1
     bfc:	10 92 b2 03 	sts	0x03B2, r1
     c00:	10 92 b3 03 	sts	0x03B3, r1
     c04:	10 92 b4 03 	sts	0x03B4, r1
     c08:	10 92 b5 03 	sts	0x03B5, r1
     c0c:	10 92 b6 03 	sts	0x03B6, r1
     c10:	10 92 b7 03 	sts	0x03B7, r1
     c14:	ce 01       	movw	r24, r28
     c16:	0e 94 7b 23 	call	0x46f6	; 0x46f6 <nrk_activate_task>
     c1a:	c2 e8       	ldi	r28, 0x82	; 130
     c1c:	d6 e0       	ldi	r29, 0x06	; 6
     c1e:	ce 01       	movw	r24, r28
     c20:	60 e6       	ldi	r22, 0x60	; 96
     c22:	75 e0       	ldi	r23, 0x05	; 5
     c24:	0e 94 a5 2e 	call	0x5d4a	; 0x5d4a <nrk_task_set_entry_function>
     c28:	ce 01       	movw	r24, r28
     c2a:	60 ec       	ldi	r22, 0xC0	; 192
     c2c:	73 e0       	ldi	r23, 0x03	; 3
     c2e:	40 e8       	ldi	r20, 0x80	; 128
     c30:	50 e0       	ldi	r21, 0x00	; 0
     c32:	0e 94 eb 2e 	call	0x5dd6	; 0x5dd6 <nrk_task_set_stk>
     c36:	10 93 8a 06 	sts	0x068A, r17
     c3a:	10 93 89 06 	sts	0x0689, r17
     c3e:	10 93 8b 06 	sts	0x068B, r17
     c42:	10 93 8c 06 	sts	0x068C, r17
     c46:	10 92 8d 06 	sts	0x068D, r1
     c4a:	10 92 8e 06 	sts	0x068E, r1
     c4e:	10 92 8f 06 	sts	0x068F, r1
     c52:	10 92 90 06 	sts	0x0690, r1
     c56:	80 e8       	ldi	r24, 0x80	; 128
     c58:	91 ed       	ldi	r25, 0xD1	; 209
     c5a:	a0 ef       	ldi	r26, 0xF0	; 240
     c5c:	b8 e0       	ldi	r27, 0x08	; 8
     c5e:	80 93 91 06 	sts	0x0691, r24
     c62:	90 93 92 06 	sts	0x0692, r25
     c66:	a0 93 93 06 	sts	0x0693, r26
     c6a:	b0 93 94 06 	sts	0x0694, r27
     c6e:	c0 92 95 06 	sts	0x0695, r12
     c72:	d0 92 96 06 	sts	0x0696, r13
     c76:	e0 92 97 06 	sts	0x0697, r14
     c7a:	f0 92 98 06 	sts	0x0698, r15
     c7e:	10 92 99 06 	sts	0x0699, r1
     c82:	10 92 9a 06 	sts	0x069A, r1
     c86:	10 92 9b 06 	sts	0x069B, r1
     c8a:	10 92 9c 06 	sts	0x069C, r1
     c8e:	10 92 9d 06 	sts	0x069D, r1
     c92:	10 92 9e 06 	sts	0x069E, r1
     c96:	10 92 9f 06 	sts	0x069F, r1
     c9a:	10 92 a0 06 	sts	0x06A0, r1
     c9e:	10 92 a1 06 	sts	0x06A1, r1
     ca2:	10 92 a2 06 	sts	0x06A2, r1
     ca6:	10 92 a3 06 	sts	0x06A3, r1
     caa:	10 92 a4 06 	sts	0x06A4, r1
     cae:	ce 01       	movw	r24, r28
     cb0:	0e 94 7b 23 	call	0x46f6	; 0x46f6 <nrk_activate_task>
     cb4:	c4 e4       	ldi	r28, 0x44	; 68
     cb6:	d4 e0       	ldi	r29, 0x04	; 4
     cb8:	ce 01       	movw	r24, r28
     cba:	69 e5       	ldi	r22, 0x59	; 89
     cbc:	75 e0       	ldi	r23, 0x05	; 5
     cbe:	0e 94 a5 2e 	call	0x5d4a	; 0x5d4a <nrk_task_set_entry_function>
     cc2:	ce 01       	movw	r24, r28
     cc4:	63 e1       	ldi	r22, 0x13	; 19
     cc6:	73 e0       	ldi	r23, 0x03	; 3
     cc8:	40 e8       	ldi	r20, 0x80	; 128
     cca:	50 e0       	ldi	r21, 0x00	; 0
     ccc:	0e 94 eb 2e 	call	0x5dd6	; 0x5dd6 <nrk_task_set_stk>
     cd0:	00 93 4c 04 	sts	0x044C, r16
     cd4:	10 93 4b 04 	sts	0x044B, r17
     cd8:	10 93 4d 04 	sts	0x044D, r17
     cdc:	10 93 4e 04 	sts	0x044E, r17
     ce0:	10 92 4f 04 	sts	0x044F, r1
     ce4:	10 92 50 04 	sts	0x0450, r1
     ce8:	10 92 51 04 	sts	0x0451, r1
     cec:	10 92 52 04 	sts	0x0452, r1
     cf0:	80 e0       	ldi	r24, 0x00	; 0
     cf2:	91 ee       	ldi	r25, 0xE1	; 225
     cf4:	a5 ef       	ldi	r26, 0xF5	; 245
     cf6:	b5 e0       	ldi	r27, 0x05	; 5
     cf8:	80 93 53 04 	sts	0x0453, r24
     cfc:	90 93 54 04 	sts	0x0454, r25
     d00:	a0 93 55 04 	sts	0x0455, r26
     d04:	b0 93 56 04 	sts	0x0456, r27
     d08:	c0 92 57 04 	sts	0x0457, r12
     d0c:	d0 92 58 04 	sts	0x0458, r13
     d10:	e0 92 59 04 	sts	0x0459, r14
     d14:	f0 92 5a 04 	sts	0x045A, r15
     d18:	10 92 5b 04 	sts	0x045B, r1
     d1c:	10 92 5c 04 	sts	0x045C, r1
     d20:	10 92 5d 04 	sts	0x045D, r1
     d24:	10 92 5e 04 	sts	0x045E, r1
     d28:	10 92 5f 04 	sts	0x045F, r1
     d2c:	10 92 60 04 	sts	0x0460, r1
     d30:	10 92 61 04 	sts	0x0461, r1
     d34:	10 92 62 04 	sts	0x0462, r1
     d38:	10 92 63 04 	sts	0x0463, r1
     d3c:	10 92 64 04 	sts	0x0464, r1
     d40:	10 92 65 04 	sts	0x0465, r1
     d44:	10 92 66 04 	sts	0x0466, r1
     d48:	ce 01       	movw	r24, r28
     d4a:	0e 94 7b 23 	call	0x46f6	; 0x46f6 <nrk_activate_task>
     d4e:	85 e0       	ldi	r24, 0x05	; 5
     d50:	91 e0       	ldi	r25, 0x01	; 1
     d52:	0e 94 59 4a 	call	0x94b2	; 0x94b2 <puts>
     d56:	df 91       	pop	r29
     d58:	cf 91       	pop	r28
     d5a:	1f 91       	pop	r17
     d5c:	0f 91       	pop	r16
     d5e:	ff 90       	pop	r15
     d60:	ef 90       	pop	r14
     d62:	df 90       	pop	r13
     d64:	cf 90       	pop	r12
     d66:	08 95       	ret

00000d68 <main>:
     d68:	0e 94 13 12 	call	0x2426	; 0x2426 <nrk_setup_ports>
     d6c:	87 e0       	ldi	r24, 0x07	; 7
     d6e:	90 e0       	ldi	r25, 0x00	; 0
     d70:	0e 94 62 12 	call	0x24c4	; 0x24c4 <nrk_setup_uart>
     d74:	0e 94 51 13 	call	0x26a2	; 0x26a2 <nrk_init>
     d78:	80 e0       	ldi	r24, 0x00	; 0
     d7a:	90 e0       	ldi	r25, 0x00	; 0
     d7c:	0e 94 00 12 	call	0x2400	; 0x2400 <nrk_led_clr>
     d80:	8f ef       	ldi	r24, 0xFF	; 255
     d82:	90 e0       	ldi	r25, 0x00	; 0
     d84:	0e 94 00 12 	call	0x2400	; 0x2400 <nrk_led_clr>
     d88:	81 e0       	ldi	r24, 0x01	; 1
     d8a:	90 e0       	ldi	r25, 0x00	; 0
     d8c:	0e 94 00 12 	call	0x2400	; 0x2400 <nrk_led_clr>
     d90:	82 e0       	ldi	r24, 0x02	; 2
     d92:	90 e0       	ldi	r25, 0x00	; 0
     d94:	0e 94 00 12 	call	0x2400	; 0x2400 <nrk_led_clr>
     d98:	60 e0       	ldi	r22, 0x00	; 0
     d9a:	70 e0       	ldi	r23, 0x00	; 0
     d9c:	cb 01       	movw	r24, r22
     d9e:	20 e0       	ldi	r18, 0x00	; 0
     da0:	30 e0       	ldi	r19, 0x00	; 0
     da2:	a9 01       	movw	r20, r18
     da4:	0e 94 33 27 	call	0x4e66	; 0x4e66 <nrk_time_set>
     da8:	0e 94 ae 05 	call	0xb5c	; 0xb5c <nrk_create_taskset>
     dac:	0e 94 14 14 	call	0x2828	; 0x2828 <nrk_start>
     db0:	80 e0       	ldi	r24, 0x00	; 0
     db2:	90 e0       	ldi	r25, 0x00	; 0
     db4:	08 95       	ret

00000db6 <kill_stack>:
     db6:	bf 92       	push	r11
     db8:	cf 92       	push	r12
     dba:	df 92       	push	r13
     dbc:	ef 92       	push	r14
     dbe:	ff 92       	push	r15
     dc0:	0f 93       	push	r16
     dc2:	1f 93       	push	r17
     dc4:	df 93       	push	r29
     dc6:	cf 93       	push	r28
     dc8:	cd b7       	in	r28, 0x3d	; 61
     dca:	de b7       	in	r29, 0x3e	; 62
     dcc:	2a 97       	sbiw	r28, 0x0a	; 10
     dce:	0f b6       	in	r0, 0x3f	; 63
     dd0:	f8 94       	cli
     dd2:	de bf       	out	0x3e, r29	; 62
     dd4:	0f be       	out	0x3f, r0	; 63
     dd6:	cd bf       	out	0x3d, r28	; 61
     dd8:	b8 2e       	mov	r11, r24
     dda:	8e 01       	movw	r16, r28
     ddc:	0f 5f       	subi	r16, 0xFF	; 255
     dde:	1f 4f       	sbci	r17, 0xFF	; 255
     de0:	f8 01       	movw	r30, r16
     de2:	80 e0       	ldi	r24, 0x00	; 0
     de4:	81 93       	st	Z+, r24
     de6:	8f 5f       	subi	r24, 0xFF	; 255
     de8:	8a 30       	cpi	r24, 0x0A	; 10
     dea:	e1 f7       	brne	.-8      	; 0xde4 <kill_stack+0x2e>
     dec:	2b e0       	ldi	r18, 0x0B	; 11
     dee:	e2 2e       	mov	r14, r18
     df0:	f1 2c       	mov	r15, r1
     df2:	ec 0e       	add	r14, r28
     df4:	fd 1e       	adc	r15, r29
     df6:	94 e1       	ldi	r25, 0x14	; 20
     df8:	c9 2e       	mov	r12, r25
     dfa:	91 e0       	ldi	r25, 0x01	; 1
     dfc:	d9 2e       	mov	r13, r25
     dfe:	d8 01       	movw	r26, r16
     e00:	8d 91       	ld	r24, X+
     e02:	8d 01       	movw	r16, r26
     e04:	00 d0       	rcall	.+0      	; 0xe06 <kill_stack+0x50>
     e06:	00 d0       	rcall	.+0      	; 0xe08 <kill_stack+0x52>
     e08:	ed b7       	in	r30, 0x3d	; 61
     e0a:	fe b7       	in	r31, 0x3e	; 62
     e0c:	31 96       	adiw	r30, 0x01	; 1
     e0e:	ad b7       	in	r26, 0x3d	; 61
     e10:	be b7       	in	r27, 0x3e	; 62
     e12:	12 96       	adiw	r26, 0x02	; 2
     e14:	dc 92       	st	X, r13
     e16:	ce 92       	st	-X, r12
     e18:	11 97       	sbiw	r26, 0x01	; 1
     e1a:	82 83       	std	Z+2, r24	; 0x02
     e1c:	13 82       	std	Z+3, r1	; 0x03
     e1e:	0e 94 47 4a 	call	0x948e	; 0x948e <printf>
     e22:	0f 90       	pop	r0
     e24:	0f 90       	pop	r0
     e26:	0f 90       	pop	r0
     e28:	0f 90       	pop	r0
     e2a:	0e 15       	cp	r16, r14
     e2c:	1f 05       	cpc	r17, r15
     e2e:	39 f7       	brne	.-50     	; 0xdfe <kill_stack+0x48>
     e30:	00 d0       	rcall	.+0      	; 0xe32 <kill_stack+0x7c>
     e32:	00 d0       	rcall	.+0      	; 0xe34 <kill_stack+0x7e>
     e34:	ed b7       	in	r30, 0x3d	; 61
     e36:	fe b7       	in	r31, 0x3e	; 62
     e38:	31 96       	adiw	r30, 0x01	; 1
     e3a:	28 e1       	ldi	r18, 0x18	; 24
     e3c:	31 e0       	ldi	r19, 0x01	; 1
     e3e:	ad b7       	in	r26, 0x3d	; 61
     e40:	be b7       	in	r27, 0x3e	; 62
     e42:	12 96       	adiw	r26, 0x02	; 2
     e44:	3c 93       	st	X, r19
     e46:	2e 93       	st	-X, r18
     e48:	11 97       	sbiw	r26, 0x01	; 1
     e4a:	b2 82       	std	Z+2, r11	; 0x02
     e4c:	13 82       	std	Z+3, r1	; 0x03
     e4e:	0e 94 47 4a 	call	0x948e	; 0x948e <printf>
     e52:	0f 90       	pop	r0
     e54:	0f 90       	pop	r0
     e56:	0f 90       	pop	r0
     e58:	0f 90       	pop	r0
     e5a:	bb 2d       	mov	r27, r11
     e5c:	b2 30       	cpi	r27, 0x02	; 2
     e5e:	20 f0       	brcs	.+8      	; 0xe68 <kill_stack+0xb2>
     e60:	8b 2d       	mov	r24, r11
     e62:	81 50       	subi	r24, 0x01	; 1
     e64:	0e 94 db 06 	call	0xdb6	; 0xdb6 <kill_stack>
     e68:	80 e0       	ldi	r24, 0x00	; 0
     e6a:	2a 96       	adiw	r28, 0x0a	; 10
     e6c:	0f b6       	in	r0, 0x3f	; 63
     e6e:	f8 94       	cli
     e70:	de bf       	out	0x3e, r29	; 62
     e72:	0f be       	out	0x3f, r0	; 63
     e74:	cd bf       	out	0x3d, r28	; 61
     e76:	cf 91       	pop	r28
     e78:	df 91       	pop	r29
     e7a:	1f 91       	pop	r17
     e7c:	0f 91       	pop	r16
     e7e:	ff 90       	pop	r15
     e80:	ef 90       	pop	r14
     e82:	df 90       	pop	r13
     e84:	cf 90       	pop	r12
     e86:	bf 90       	pop	r11
     e88:	08 95       	ret

00000e8a <halRfSetChannel>:
     e8a:	90 e0       	ldi	r25, 0x00	; 0
     e8c:	9c 01       	movw	r18, r24
     e8e:	2b 50       	subi	r18, 0x0B	; 11
     e90:	30 40       	sbci	r19, 0x00	; 0
     e92:	22 0f       	add	r18, r18
     e94:	33 1f       	adc	r19, r19
     e96:	22 0f       	add	r18, r18
     e98:	33 1f       	adc	r19, r19
     e9a:	86 5a       	subi	r24, 0xA6	; 166
     e9c:	9e 4b       	sbci	r25, 0xBE	; 190
     e9e:	82 0f       	add	r24, r18
     ea0:	93 1f       	adc	r25, r19
     ea2:	f8 94       	cli
     ea4:	c0 98       	cbi	0x18, 0	; 24
     ea6:	28 e1       	ldi	r18, 0x18	; 24
     ea8:	2f b9       	out	0x0f, r18	; 15
     eaa:	77 9b       	sbis	0x0e, 7	; 14
     eac:	fe cf       	rjmp	.-4      	; 0xeaa <halRfSetChannel+0x20>
     eae:	9f b9       	out	0x0f, r25	; 15
     eb0:	77 9b       	sbis	0x0e, 7	; 14
     eb2:	fe cf       	rjmp	.-4      	; 0xeb0 <halRfSetChannel+0x26>
     eb4:	8f b9       	out	0x0f, r24	; 15
     eb6:	77 9b       	sbis	0x0e, 7	; 14
     eb8:	fe cf       	rjmp	.-4      	; 0xeb6 <halRfSetChannel+0x2c>
     eba:	c0 9a       	sbi	0x18, 0	; 24
     ebc:	78 94       	sei
     ebe:	08 95       	ret

00000ec0 <halRfWaitForCrystalOscillator>:
     ec0:	f8 94       	cli
     ec2:	c0 98       	cbi	0x18, 0	; 24
     ec4:	1f b8       	out	0x0f, r1	; 15
     ec6:	77 9b       	sbis	0x0e, 7	; 14
     ec8:	fe cf       	rjmp	.-4      	; 0xec6 <halRfWaitForCrystalOscillator+0x6>
     eca:	8f b1       	in	r24, 0x0f	; 15
     ecc:	c0 9a       	sbi	0x18, 0	; 24
     ece:	78 94       	sei
     ed0:	86 ff       	sbrs	r24, 6
     ed2:	f6 cf       	rjmp	.-20     	; 0xec0 <halRfWaitForCrystalOscillator>
     ed4:	08 95       	ret

00000ed6 <cc259x_rx>:
     ed6:	80 91 41 01 	lds	r24, 0x0141
     eda:	0e 94 45 10 	call	0x208a	; 0x208a <nrk_gpio_set>
     ede:	80 91 40 01 	lds	r24, 0x0140
     ee2:	0e 94 8b 10 	call	0x2116	; 0x2116 <nrk_gpio_clr>
     ee6:	08 95       	ret

00000ee8 <cc259x_tx>:
     ee8:	80 91 41 01 	lds	r24, 0x0141
     eec:	0e 94 45 10 	call	0x208a	; 0x208a <nrk_gpio_set>
     ef0:	80 91 40 01 	lds	r24, 0x0140
     ef4:	0e 94 45 10 	call	0x208a	; 0x208a <nrk_gpio_set>
     ef8:	08 95       	ret

00000efa <rf_power_down>:
     efa:	f8 94       	cli
     efc:	c0 98       	cbi	0x18, 0	; 24
     efe:	87 e0       	ldi	r24, 0x07	; 7
     f00:	8f b9       	out	0x0f, r24	; 15
     f02:	77 9b       	sbis	0x0e, 7	; 14
     f04:	fe cf       	rjmp	.-4      	; 0xf02 <rf_power_down+0x8>
     f06:	c0 9a       	sbi	0x18, 0	; 24
     f08:	c0 98       	cbi	0x18, 0	; 24
     f0a:	86 e0       	ldi	r24, 0x06	; 6
     f0c:	8f b9       	out	0x0f, r24	; 15
     f0e:	77 9b       	sbis	0x0e, 7	; 14
     f10:	fe cf       	rjmp	.-4      	; 0xf0e <rf_power_down+0x14>
     f12:	c0 9a       	sbi	0x18, 0	; 24
     f14:	78 94       	sei
     f16:	08 95       	ret

00000f18 <rf_power_up>:
     f18:	f8 94       	cli
     f1a:	c0 98       	cbi	0x18, 0	; 24
     f1c:	81 e0       	ldi	r24, 0x01	; 1
     f1e:	8f b9       	out	0x0f, r24	; 15
     f20:	77 9b       	sbis	0x0e, 7	; 14
     f22:	fe cf       	rjmp	.-4      	; 0xf20 <rf_power_up+0x8>
     f24:	c0 9a       	sbi	0x18, 0	; 24
     f26:	88 ee       	ldi	r24, 0xE8	; 232
     f28:	93 e0       	ldi	r25, 0x03	; 3
     f2a:	0e 94 b2 2c 	call	0x5964	; 0x5964 <nrk_spin_wait_us>
     f2e:	78 94       	sei
     f30:	08 95       	ret

00000f32 <rf_security_last_pkt_status>:
     f32:	80 91 ba 06 	lds	r24, 0x06BA
     f36:	08 95       	ret

00000f38 <rf_security_set_ctr_counter>:
     f38:	fc 01       	movw	r30, r24
     f3a:	c0 98       	cbi	0x18, 0	; 24
     f3c:	89 ec       	ldi	r24, 0xC9	; 201
     f3e:	8f b9       	out	0x0f, r24	; 15
     f40:	77 9b       	sbis	0x0e, 7	; 14
     f42:	fe cf       	rjmp	.-4      	; 0xf40 <rf_security_set_ctr_counter+0x8>
     f44:	80 e8       	ldi	r24, 0x80	; 128
     f46:	8f b9       	out	0x0f, r24	; 15
     f48:	77 9b       	sbis	0x0e, 7	; 14
     f4a:	fe cf       	rjmp	.-4      	; 0xf48 <rf_security_set_ctr_counter+0x10>
     f4c:	82 e0       	ldi	r24, 0x02	; 2
     f4e:	81 50       	subi	r24, 0x01	; 1
     f50:	df 01       	movw	r26, r30
     f52:	a8 0f       	add	r26, r24
     f54:	b1 1d       	adc	r27, r1
     f56:	9c 91       	ld	r25, X
     f58:	9f b9       	out	0x0f, r25	; 15
     f5a:	77 9b       	sbis	0x0e, 7	; 14
     f5c:	fe cf       	rjmp	.-4      	; 0xf5a <rf_security_set_ctr_counter+0x22>
     f5e:	88 23       	and	r24, r24
     f60:	b1 f7       	brne	.-20     	; 0xf4e <rf_security_set_ctr_counter+0x16>
     f62:	c0 9a       	sbi	0x18, 0	; 24
     f64:	c0 98       	cbi	0x18, 0	; 24
     f66:	8b ec       	ldi	r24, 0xCB	; 203
     f68:	8f b9       	out	0x0f, r24	; 15
     f6a:	77 9b       	sbis	0x0e, 7	; 14
     f6c:	fe cf       	rjmp	.-4      	; 0xf6a <rf_security_set_ctr_counter+0x32>
     f6e:	80 e8       	ldi	r24, 0x80	; 128
     f70:	8f b9       	out	0x0f, r24	; 15
     f72:	77 9b       	sbis	0x0e, 7	; 14
     f74:	fe cf       	rjmp	.-4      	; 0xf72 <rf_security_set_ctr_counter+0x3a>
     f76:	82 e0       	ldi	r24, 0x02	; 2
     f78:	81 50       	subi	r24, 0x01	; 1
     f7a:	df 01       	movw	r26, r30
     f7c:	a8 0f       	add	r26, r24
     f7e:	b1 1d       	adc	r27, r1
     f80:	12 96       	adiw	r26, 0x02	; 2
     f82:	9c 91       	ld	r25, X
     f84:	12 97       	sbiw	r26, 0x02	; 2
     f86:	9f b9       	out	0x0f, r25	; 15
     f88:	77 9b       	sbis	0x0e, 7	; 14
     f8a:	fe cf       	rjmp	.-4      	; 0xf88 <rf_security_set_ctr_counter+0x50>
     f8c:	88 23       	and	r24, r24
     f8e:	a1 f7       	brne	.-24     	; 0xf78 <rf_security_set_ctr_counter+0x40>
     f90:	c0 9a       	sbi	0x18, 0	; 24
     f92:	80 81       	ld	r24, Z
     f94:	80 93 bb 06 	sts	0x06BB, r24
     f98:	81 81       	ldd	r24, Z+1	; 0x01
     f9a:	80 93 bc 06 	sts	0x06BC, r24
     f9e:	82 81       	ldd	r24, Z+2	; 0x02
     fa0:	80 93 bd 06 	sts	0x06BD, r24
     fa4:	83 81       	ldd	r24, Z+3	; 0x03
     fa6:	80 93 be 06 	sts	0x06BE, r24
     faa:	08 95       	ret

00000fac <rf_security_set_key>:
     fac:	8f 92       	push	r8
     fae:	9f 92       	push	r9
     fb0:	af 92       	push	r10
     fb2:	bf 92       	push	r11
     fb4:	cf 92       	push	r12
     fb6:	df 92       	push	r13
     fb8:	ef 92       	push	r14
     fba:	ff 92       	push	r15
     fbc:	0f 93       	push	r16
     fbe:	1f 93       	push	r17
     fc0:	df 93       	push	r29
     fc2:	cf 93       	push	r28
     fc4:	00 d0       	rcall	.+0      	; 0xfc6 <rf_security_set_key+0x1a>
     fc6:	00 d0       	rcall	.+0      	; 0xfc8 <rf_security_set_key+0x1c>
     fc8:	cd b7       	in	r28, 0x3d	; 61
     fca:	de b7       	in	r29, 0x3e	; 62
     fcc:	e8 2e       	mov	r14, r24
     fce:	09 2f       	mov	r16, r25
     fd0:	84 e6       	ldi	r24, 0x64	; 100
     fd2:	90 e0       	ldi	r25, 0x00	; 0
     fd4:	0e 94 b2 2c 	call	0x5964	; 0x5964 <nrk_spin_wait_us>
     fd8:	f0 2e       	mov	r15, r16
     fda:	20 e0       	ldi	r18, 0x00	; 0
     fdc:	31 e0       	ldi	r19, 0x01	; 1
     fde:	8e 01       	movw	r16, r28
     fe0:	0f 5f       	subi	r16, 0xFF	; 255
     fe2:	1f 4f       	sbci	r17, 0xFF	; 255
     fe4:	f3 e0       	ldi	r31, 0x03	; 3
     fe6:	cf 2e       	mov	r12, r31
     fe8:	d1 2c       	mov	r13, r1
     fea:	cc 0e       	add	r12, r28
     fec:	dd 1e       	adc	r13, r29
     fee:	f7 01       	movw	r30, r14
     ff0:	91 90       	ld	r9, Z+
     ff2:	7f 01       	movw	r14, r30
     ff4:	88 24       	eor	r8, r8
     ff6:	80 81       	ld	r24, Z
     ff8:	90 e0       	ldi	r25, 0x00	; 0
     ffa:	88 29       	or	r24, r8
     ffc:	99 29       	or	r25, r9
     ffe:	9a 83       	std	Y+2, r25	; 0x02
    1000:	89 83       	std	Y+1, r24	; 0x01
    1002:	84 e6       	ldi	r24, 0x64	; 100
    1004:	90 e0       	ldi	r25, 0x00	; 0
    1006:	2b 83       	std	Y+3, r18	; 0x03
    1008:	3c 83       	std	Y+4, r19	; 0x04
    100a:	0e 94 b2 2c 	call	0x5964	; 0x5964 <nrk_spin_wait_us>
    100e:	c0 98       	cbi	0x18, 0	; 24
    1010:	2b 81       	ldd	r18, Y+3	; 0x03
    1012:	3c 81       	ldd	r19, Y+4	; 0x04
    1014:	82 2f       	mov	r24, r18
    1016:	80 68       	ori	r24, 0x80	; 128
    1018:	8f b9       	out	0x0f, r24	; 15
    101a:	77 9b       	sbis	0x0e, 7	; 14
    101c:	fe cf       	rjmp	.-4      	; 0x101a <rf_security_set_key+0x6e>
    101e:	c9 01       	movw	r24, r18
    1020:	95 95       	asr	r25
    1022:	87 95       	ror	r24
    1024:	80 7c       	andi	r24, 0xC0	; 192
    1026:	8f b9       	out	0x0f, r24	; 15
    1028:	77 9b       	sbis	0x0e, 7	; 14
    102a:	fe cf       	rjmp	.-4      	; 0x1028 <rf_security_set_key+0x7c>
    102c:	58 01       	movw	r10, r16
    102e:	f8 01       	movw	r30, r16
    1030:	81 91       	ld	r24, Z+
    1032:	8f b9       	out	0x0f, r24	; 15
    1034:	77 9b       	sbis	0x0e, 7	; 14
    1036:	fe cf       	rjmp	.-4      	; 0x1034 <rf_security_set_key+0x88>
    1038:	ec 15       	cp	r30, r12
    103a:	fd 05       	cpc	r31, r13
    103c:	c9 f7       	brne	.-14     	; 0x1030 <rf_security_set_key+0x84>
    103e:	c0 9a       	sbi	0x18, 0	; 24
    1040:	2e 5f       	subi	r18, 0xFE	; 254
    1042:	3f 4f       	sbci	r19, 0xFF	; 255
    1044:	f1 e0       	ldi	r31, 0x01	; 1
    1046:	20 31       	cpi	r18, 0x10	; 16
    1048:	3f 07       	cpc	r19, r31
    104a:	89 f6       	brne	.-94     	; 0xfee <rf_security_set_key+0x42>
    104c:	84 e6       	ldi	r24, 0x64	; 100
    104e:	90 e0       	ldi	r25, 0x00	; 0
    1050:	0e 94 b2 2c 	call	0x5964	; 0x5964 <nrk_spin_wait_us>
    1054:	20 e4       	ldi	r18, 0x40	; 64
    1056:	31 e0       	ldi	r19, 0x01	; 1
    1058:	80 e1       	ldi	r24, 0x10	; 16
    105a:	91 e0       	ldi	r25, 0x01	; 1
    105c:	1a 82       	std	Y+2, r1	; 0x02
    105e:	19 82       	std	Y+1, r1	; 0x01
    1060:	c0 98       	cbi	0x18, 0	; 24
    1062:	42 2f       	mov	r20, r18
    1064:	40 68       	ori	r20, 0x80	; 128
    1066:	4f b9       	out	0x0f, r20	; 15
    1068:	77 9b       	sbis	0x0e, 7	; 14
    106a:	fe cf       	rjmp	.-4      	; 0x1068 <rf_security_set_key+0xbc>
    106c:	a9 01       	movw	r20, r18
    106e:	55 95       	asr	r21
    1070:	47 95       	ror	r20
    1072:	40 7c       	andi	r20, 0xC0	; 192
    1074:	4f b9       	out	0x0f, r20	; 15
    1076:	77 9b       	sbis	0x0e, 7	; 14
    1078:	fe cf       	rjmp	.-4      	; 0x1076 <rf_security_set_key+0xca>
    107a:	f8 01       	movw	r30, r16
    107c:	41 91       	ld	r20, Z+
    107e:	4f b9       	out	0x0f, r20	; 15
    1080:	77 9b       	sbis	0x0e, 7	; 14
    1082:	fe cf       	rjmp	.-4      	; 0x1080 <rf_security_set_key+0xd4>
    1084:	ec 15       	cp	r30, r12
    1086:	fd 05       	cpc	r31, r13
    1088:	c9 f7       	brne	.-14     	; 0x107c <rf_security_set_key+0xd0>
    108a:	c0 9a       	sbi	0x18, 0	; 24
    108c:	c0 98       	cbi	0x18, 0	; 24
    108e:	48 2f       	mov	r20, r24
    1090:	40 68       	ori	r20, 0x80	; 128
    1092:	4f b9       	out	0x0f, r20	; 15
    1094:	77 9b       	sbis	0x0e, 7	; 14
    1096:	fe cf       	rjmp	.-4      	; 0x1094 <rf_security_set_key+0xe8>
    1098:	ac 01       	movw	r20, r24
    109a:	55 95       	asr	r21
    109c:	47 95       	ror	r20
    109e:	40 7c       	andi	r20, 0xC0	; 192
    10a0:	4f b9       	out	0x0f, r20	; 15
    10a2:	77 9b       	sbis	0x0e, 7	; 14
    10a4:	fe cf       	rjmp	.-4      	; 0x10a2 <rf_security_set_key+0xf6>
    10a6:	f8 01       	movw	r30, r16
    10a8:	41 91       	ld	r20, Z+
    10aa:	4f b9       	out	0x0f, r20	; 15
    10ac:	77 9b       	sbis	0x0e, 7	; 14
    10ae:	fe cf       	rjmp	.-4      	; 0x10ac <rf_security_set_key+0x100>
    10b0:	ec 15       	cp	r30, r12
    10b2:	fd 05       	cpc	r31, r13
    10b4:	c9 f7       	brne	.-14     	; 0x10a8 <rf_security_set_key+0xfc>
    10b6:	c0 9a       	sbi	0x18, 0	; 24
    10b8:	02 96       	adiw	r24, 0x02	; 2
    10ba:	2e 5f       	subi	r18, 0xFE	; 254
    10bc:	3f 4f       	sbci	r19, 0xFF	; 255
    10be:	41 e0       	ldi	r20, 0x01	; 1
    10c0:	8e 31       	cpi	r24, 0x1E	; 30
    10c2:	94 07       	cpc	r25, r20
    10c4:	59 f6       	brne	.-106    	; 0x105c <rf_security_set_key+0xb0>
    10c6:	81 e0       	ldi	r24, 0x01	; 1
    10c8:	90 e0       	ldi	r25, 0x00	; 0
    10ca:	9a 83       	std	Y+2, r25	; 0x02
    10cc:	89 83       	std	Y+1, r24	; 0x01
    10ce:	c0 98       	cbi	0x18, 0	; 24
    10d0:	8e ec       	ldi	r24, 0xCE	; 206
    10d2:	8f b9       	out	0x0f, r24	; 15
    10d4:	77 9b       	sbis	0x0e, 7	; 14
    10d6:	fe cf       	rjmp	.-4      	; 0x10d4 <rf_security_set_key+0x128>
    10d8:	80 e8       	ldi	r24, 0x80	; 128
    10da:	8f b9       	out	0x0f, r24	; 15
    10dc:	77 9b       	sbis	0x0e, 7	; 14
    10de:	fe cf       	rjmp	.-4      	; 0x10dc <rf_security_set_key+0x130>
    10e0:	c8 01       	movw	r24, r16
    10e2:	02 96       	adiw	r24, 0x02	; 2
    10e4:	f8 01       	movw	r30, r16
    10e6:	21 91       	ld	r18, Z+
    10e8:	2f b9       	out	0x0f, r18	; 15
    10ea:	77 9b       	sbis	0x0e, 7	; 14
    10ec:	fe cf       	rjmp	.-4      	; 0x10ea <rf_security_set_key+0x13e>
    10ee:	e8 17       	cp	r30, r24
    10f0:	f9 07       	cpc	r31, r25
    10f2:	c9 f7       	brne	.-14     	; 0x10e6 <rf_security_set_key+0x13a>
    10f4:	c0 9a       	sbi	0x18, 0	; 24
    10f6:	c0 98       	cbi	0x18, 0	; 24
    10f8:	8e e9       	ldi	r24, 0x9E	; 158
    10fa:	8f b9       	out	0x0f, r24	; 15
    10fc:	77 9b       	sbis	0x0e, 7	; 14
    10fe:	fe cf       	rjmp	.-4      	; 0x10fc <rf_security_set_key+0x150>
    1100:	80 e8       	ldi	r24, 0x80	; 128
    1102:	8f b9       	out	0x0f, r24	; 15
    1104:	77 9b       	sbis	0x0e, 7	; 14
    1106:	fe cf       	rjmp	.-4      	; 0x1104 <__stack+0x5>
    1108:	0e 5f       	subi	r16, 0xFE	; 254
    110a:	1f 4f       	sbci	r17, 0xFF	; 255
    110c:	f5 01       	movw	r30, r10
    110e:	81 91       	ld	r24, Z+
    1110:	5f 01       	movw	r10, r30
    1112:	8f b9       	out	0x0f, r24	; 15
    1114:	77 9b       	sbis	0x0e, 7	; 14
    1116:	fe cf       	rjmp	.-4      	; 0x1114 <__stack+0x15>
    1118:	a0 16       	cp	r10, r16
    111a:	b1 06       	cpc	r11, r17
    111c:	b9 f7       	brne	.-18     	; 0x110c <__stack+0xd>
    111e:	c0 9a       	sbi	0x18, 0	; 24
    1120:	0f 90       	pop	r0
    1122:	0f 90       	pop	r0
    1124:	0f 90       	pop	r0
    1126:	0f 90       	pop	r0
    1128:	cf 91       	pop	r28
    112a:	df 91       	pop	r29
    112c:	1f 91       	pop	r17
    112e:	0f 91       	pop	r16
    1130:	ff 90       	pop	r15
    1132:	ef 90       	pop	r14
    1134:	df 90       	pop	r13
    1136:	cf 90       	pop	r12
    1138:	bf 90       	pop	r11
    113a:	af 90       	pop	r10
    113c:	9f 90       	pop	r9
    113e:	8f 90       	pop	r8
    1140:	08 95       	ret

00001142 <rf_security_enable>:
    1142:	c0 98       	cbi	0x18, 0	; 24
    1144:	89 e1       	ldi	r24, 0x19	; 25
    1146:	8f b9       	out	0x0f, r24	; 15
    1148:	77 9b       	sbis	0x0e, 7	; 14
    114a:	fe cf       	rjmp	.-4      	; 0x1148 <rf_security_enable+0x6>
    114c:	83 e0       	ldi	r24, 0x03	; 3
    114e:	8f b9       	out	0x0f, r24	; 15
    1150:	77 9b       	sbis	0x0e, 7	; 14
    1152:	fe cf       	rjmp	.-4      	; 0x1150 <rf_security_enable+0xe>
    1154:	86 e0       	ldi	r24, 0x06	; 6
    1156:	8f b9       	out	0x0f, r24	; 15
    1158:	77 9b       	sbis	0x0e, 7	; 14
    115a:	fe cf       	rjmp	.-4      	; 0x1158 <rf_security_enable+0x16>
    115c:	c0 9a       	sbi	0x18, 0	; 24
    115e:	c0 98       	cbi	0x18, 0	; 24
    1160:	8a e1       	ldi	r24, 0x1A	; 26
    1162:	8f b9       	out	0x0f, r24	; 15
    1164:	77 9b       	sbis	0x0e, 7	; 14
    1166:	fe cf       	rjmp	.-4      	; 0x1164 <rf_security_enable+0x22>
    1168:	8e e0       	ldi	r24, 0x0E	; 14
    116a:	8f b9       	out	0x0f, r24	; 15
    116c:	77 9b       	sbis	0x0e, 7	; 14
    116e:	fe cf       	rjmp	.-4      	; 0x116c <rf_security_enable+0x2a>
    1170:	8e e0       	ldi	r24, 0x0E	; 14
    1172:	8f b9       	out	0x0f, r24	; 15
    1174:	77 9b       	sbis	0x0e, 7	; 14
    1176:	fe cf       	rjmp	.-4      	; 0x1174 <rf_security_enable+0x32>
    1178:	c0 9a       	sbi	0x18, 0	; 24
    117a:	81 e0       	ldi	r24, 0x01	; 1
    117c:	80 93 ab 06 	sts	0x06AB, r24
    1180:	08 95       	ret

00001182 <rf_security_disable>:
    1182:	c0 98       	cbi	0x18, 0	; 24
    1184:	89 e1       	ldi	r24, 0x19	; 25
    1186:	8f b9       	out	0x0f, r24	; 15
    1188:	77 9b       	sbis	0x0e, 7	; 14
    118a:	fe cf       	rjmp	.-4      	; 0x1188 <rf_security_disable+0x6>
    118c:	81 e0       	ldi	r24, 0x01	; 1
    118e:	8f b9       	out	0x0f, r24	; 15
    1190:	77 9b       	sbis	0x0e, 7	; 14
    1192:	fe cf       	rjmp	.-4      	; 0x1190 <rf_security_disable+0xe>
    1194:	84 ec       	ldi	r24, 0xC4	; 196
    1196:	8f b9       	out	0x0f, r24	; 15
    1198:	77 9b       	sbis	0x0e, 7	; 14
    119a:	fe cf       	rjmp	.-4      	; 0x1198 <rf_security_disable+0x16>
    119c:	c0 9a       	sbi	0x18, 0	; 24
    119e:	10 92 ab 06 	sts	0x06AB, r1
    11a2:	08 95       	ret

000011a4 <rf_get_sem>:
    11a4:	80 91 a9 06 	lds	r24, 0x06A9
    11a8:	90 91 aa 06 	lds	r25, 0x06AA
    11ac:	08 95       	ret

000011ae <rf_tx_power>:
    11ae:	90 e0       	ldi	r25, 0x00	; 0
    11b0:	8f 71       	andi	r24, 0x1F	; 31
    11b2:	90 70       	andi	r25, 0x00	; 0
    11b4:	80 6e       	ori	r24, 0xE0	; 224
    11b6:	90 6a       	ori	r25, 0xA0	; 160
    11b8:	c0 98       	cbi	0x18, 0	; 24
    11ba:	25 e1       	ldi	r18, 0x15	; 21
    11bc:	2f b9       	out	0x0f, r18	; 15
    11be:	77 9b       	sbis	0x0e, 7	; 14
    11c0:	fe cf       	rjmp	.-4      	; 0x11be <rf_tx_power+0x10>
    11c2:	9f b9       	out	0x0f, r25	; 15
    11c4:	77 9b       	sbis	0x0e, 7	; 14
    11c6:	fe cf       	rjmp	.-4      	; 0x11c4 <rf_tx_power+0x16>
    11c8:	8f b9       	out	0x0f, r24	; 15
    11ca:	77 9b       	sbis	0x0e, 7	; 14
    11cc:	fe cf       	rjmp	.-4      	; 0x11ca <rf_tx_power+0x1c>
    11ce:	c0 9a       	sbi	0x18, 0	; 24
    11d0:	08 95       	ret

000011d2 <rf_set_channel>:
    11d2:	0e 94 45 07 	call	0xe8a	; 0xe8a <halRfSetChannel>
    11d6:	08 95       	ret

000011d8 <rf_addr_decode_enable>:
    11d8:	80 91 ac 06 	lds	r24, 0x06AC
    11dc:	90 91 ad 06 	lds	r25, 0x06AD
    11e0:	98 60       	ori	r25, 0x08	; 8
    11e2:	90 93 ad 06 	sts	0x06AD, r25
    11e6:	80 93 ac 06 	sts	0x06AC, r24
    11ea:	c0 98       	cbi	0x18, 0	; 24
    11ec:	81 e1       	ldi	r24, 0x11	; 17
    11ee:	8f b9       	out	0x0f, r24	; 15
    11f0:	77 9b       	sbis	0x0e, 7	; 14
    11f2:	fe cf       	rjmp	.-4      	; 0x11f0 <rf_addr_decode_enable+0x18>
    11f4:	80 91 ad 06 	lds	r24, 0x06AD
    11f8:	8f b9       	out	0x0f, r24	; 15
    11fa:	77 9b       	sbis	0x0e, 7	; 14
    11fc:	fe cf       	rjmp	.-4      	; 0x11fa <rf_addr_decode_enable+0x22>
    11fe:	80 91 ac 06 	lds	r24, 0x06AC
    1202:	8f b9       	out	0x0f, r24	; 15
    1204:	77 9b       	sbis	0x0e, 7	; 14
    1206:	fe cf       	rjmp	.-4      	; 0x1204 <rf_addr_decode_enable+0x2c>
    1208:	c0 9a       	sbi	0x18, 0	; 24
    120a:	08 95       	ret

0000120c <rf_addr_decode_disable>:
    120c:	80 91 ac 06 	lds	r24, 0x06AC
    1210:	90 91 ad 06 	lds	r25, 0x06AD
    1214:	97 7f       	andi	r25, 0xF7	; 247
    1216:	90 93 ad 06 	sts	0x06AD, r25
    121a:	80 93 ac 06 	sts	0x06AC, r24
    121e:	c0 98       	cbi	0x18, 0	; 24
    1220:	81 e1       	ldi	r24, 0x11	; 17
    1222:	8f b9       	out	0x0f, r24	; 15
    1224:	77 9b       	sbis	0x0e, 7	; 14
    1226:	fe cf       	rjmp	.-4      	; 0x1224 <rf_addr_decode_disable+0x18>
    1228:	80 91 ad 06 	lds	r24, 0x06AD
    122c:	8f b9       	out	0x0f, r24	; 15
    122e:	77 9b       	sbis	0x0e, 7	; 14
    1230:	fe cf       	rjmp	.-4      	; 0x122e <rf_addr_decode_disable+0x22>
    1232:	80 91 ac 06 	lds	r24, 0x06AC
    1236:	8f b9       	out	0x0f, r24	; 15
    1238:	77 9b       	sbis	0x0e, 7	; 14
    123a:	fe cf       	rjmp	.-4      	; 0x1238 <rf_addr_decode_disable+0x2c>
    123c:	c0 9a       	sbi	0x18, 0	; 24
    123e:	08 95       	ret

00001240 <rf_auto_ack_enable>:
    1240:	81 e0       	ldi	r24, 0x01	; 1
    1242:	80 93 b9 06 	sts	0x06B9, r24
    1246:	80 91 ac 06 	lds	r24, 0x06AC
    124a:	90 91 ad 06 	lds	r25, 0x06AD
    124e:	80 61       	ori	r24, 0x10	; 16
    1250:	90 93 ad 06 	sts	0x06AD, r25
    1254:	80 93 ac 06 	sts	0x06AC, r24
    1258:	c0 98       	cbi	0x18, 0	; 24
    125a:	81 e1       	ldi	r24, 0x11	; 17
    125c:	8f b9       	out	0x0f, r24	; 15
    125e:	77 9b       	sbis	0x0e, 7	; 14
    1260:	fe cf       	rjmp	.-4      	; 0x125e <rf_auto_ack_enable+0x1e>
    1262:	80 91 ad 06 	lds	r24, 0x06AD
    1266:	8f b9       	out	0x0f, r24	; 15
    1268:	77 9b       	sbis	0x0e, 7	; 14
    126a:	fe cf       	rjmp	.-4      	; 0x1268 <rf_auto_ack_enable+0x28>
    126c:	80 91 ac 06 	lds	r24, 0x06AC
    1270:	8f b9       	out	0x0f, r24	; 15
    1272:	77 9b       	sbis	0x0e, 7	; 14
    1274:	fe cf       	rjmp	.-4      	; 0x1272 <rf_auto_ack_enable+0x32>
    1276:	c0 9a       	sbi	0x18, 0	; 24
    1278:	08 95       	ret

0000127a <rf_auto_ack_disable>:
    127a:	10 92 b9 06 	sts	0x06B9, r1
    127e:	80 91 ac 06 	lds	r24, 0x06AC
    1282:	90 91 ad 06 	lds	r25, 0x06AD
    1286:	8f 7e       	andi	r24, 0xEF	; 239
    1288:	90 93 ad 06 	sts	0x06AD, r25
    128c:	80 93 ac 06 	sts	0x06AC, r24
    1290:	c0 98       	cbi	0x18, 0	; 24
    1292:	81 e1       	ldi	r24, 0x11	; 17
    1294:	8f b9       	out	0x0f, r24	; 15
    1296:	77 9b       	sbis	0x0e, 7	; 14
    1298:	fe cf       	rjmp	.-4      	; 0x1296 <rf_auto_ack_disable+0x1c>
    129a:	80 91 ad 06 	lds	r24, 0x06AD
    129e:	8f b9       	out	0x0f, r24	; 15
    12a0:	77 9b       	sbis	0x0e, 7	; 14
    12a2:	fe cf       	rjmp	.-4      	; 0x12a0 <rf_auto_ack_disable+0x26>
    12a4:	80 91 ac 06 	lds	r24, 0x06AC
    12a8:	8f b9       	out	0x0f, r24	; 15
    12aa:	77 9b       	sbis	0x0e, 7	; 14
    12ac:	fe cf       	rjmp	.-4      	; 0x12aa <rf_auto_ack_disable+0x30>
    12ae:	c0 9a       	sbi	0x18, 0	; 24
    12b0:	08 95       	ret

000012b2 <rf_addr_decode_set_my_mac>:
    12b2:	df 93       	push	r29
    12b4:	cf 93       	push	r28
    12b6:	00 d0       	rcall	.+0      	; 0x12b8 <rf_addr_decode_set_my_mac+0x6>
    12b8:	cd b7       	in	r28, 0x3d	; 61
    12ba:	de b7       	in	r29, 0x3e	; 62
    12bc:	9a 83       	std	Y+2, r25	; 0x02
    12be:	89 83       	std	Y+1, r24	; 0x01
    12c0:	90 93 b5 06 	sts	0x06B5, r25
    12c4:	80 93 b4 06 	sts	0x06B4, r24
    12c8:	84 ef       	ldi	r24, 0xF4	; 244
    12ca:	91 e0       	ldi	r25, 0x01	; 1
    12cc:	0e 94 b2 2c 	call	0x5964	; 0x5964 <nrk_spin_wait_us>
    12d0:	c0 98       	cbi	0x18, 0	; 24
    12d2:	8a ee       	ldi	r24, 0xEA	; 234
    12d4:	8f b9       	out	0x0f, r24	; 15
    12d6:	77 9b       	sbis	0x0e, 7	; 14
    12d8:	fe cf       	rjmp	.-4      	; 0x12d6 <rf_addr_decode_set_my_mac+0x24>
    12da:	80 e8       	ldi	r24, 0x80	; 128
    12dc:	8f b9       	out	0x0f, r24	; 15
    12de:	77 9b       	sbis	0x0e, 7	; 14
    12e0:	fe cf       	rjmp	.-4      	; 0x12de <rf_addr_decode_set_my_mac+0x2c>
    12e2:	fe 01       	movw	r30, r28
    12e4:	31 96       	adiw	r30, 0x01	; 1
    12e6:	ce 01       	movw	r24, r28
    12e8:	03 96       	adiw	r24, 0x03	; 3
    12ea:	21 91       	ld	r18, Z+
    12ec:	2f b9       	out	0x0f, r18	; 15
    12ee:	77 9b       	sbis	0x0e, 7	; 14
    12f0:	fe cf       	rjmp	.-4      	; 0x12ee <rf_addr_decode_set_my_mac+0x3c>
    12f2:	e8 17       	cp	r30, r24
    12f4:	f9 07       	cpc	r31, r25
    12f6:	c9 f7       	brne	.-14     	; 0x12ea <rf_addr_decode_set_my_mac+0x38>
    12f8:	c0 9a       	sbi	0x18, 0	; 24
    12fa:	84 ef       	ldi	r24, 0xF4	; 244
    12fc:	91 e0       	ldi	r25, 0x01	; 1
    12fe:	0e 94 b2 2c 	call	0x5964	; 0x5964 <nrk_spin_wait_us>
    1302:	0f 90       	pop	r0
    1304:	0f 90       	pop	r0
    1306:	cf 91       	pop	r28
    1308:	df 91       	pop	r29
    130a:	08 95       	ret

0000130c <rf_set_rx>:
    130c:	cf 93       	push	r28
    130e:	df 93       	push	r29
    1310:	ec 01       	movw	r28, r24
    1312:	86 2f       	mov	r24, r22
    1314:	c0 98       	cbi	0x18, 0	; 24
    1316:	98 e0       	ldi	r25, 0x08	; 8
    1318:	9f b9       	out	0x0f, r25	; 15
    131a:	77 9b       	sbis	0x0e, 7	; 14
    131c:	fe cf       	rjmp	.-4      	; 0x131a <rf_set_rx+0xe>
    131e:	c0 9a       	sbi	0x18, 0	; 24
    1320:	c0 98       	cbi	0x18, 0	; 24
    1322:	98 e0       	ldi	r25, 0x08	; 8
    1324:	9f b9       	out	0x0f, r25	; 15
    1326:	77 9b       	sbis	0x0e, 7	; 14
    1328:	fe cf       	rjmp	.-4      	; 0x1326 <rf_set_rx+0x1a>
    132a:	c0 9a       	sbi	0x18, 0	; 24
    132c:	0e 94 45 07 	call	0xe8a	; 0xe8a <halRfSetChannel>
    1330:	d0 93 af 06 	sts	0x06AF, r29
    1334:	c0 93 ae 06 	sts	0x06AE, r28
    1338:	df 91       	pop	r29
    133a:	cf 91       	pop	r28
    133c:	08 95       	ret

0000133e <rf_init>:
    133e:	df 92       	push	r13
    1340:	ef 92       	push	r14
    1342:	ff 92       	push	r15
    1344:	0f 93       	push	r16
    1346:	1f 93       	push	r17
    1348:	df 93       	push	r29
    134a:	cf 93       	push	r28
    134c:	00 d0       	rcall	.+0      	; 0x134e <rf_init+0x10>
    134e:	cd b7       	in	r28, 0x3d	; 61
    1350:	de b7       	in	r29, 0x3e	; 62
    1352:	8c 01       	movw	r16, r24
    1354:	d6 2e       	mov	r13, r22
    1356:	5a 83       	std	Y+2, r21	; 0x02
    1358:	49 83       	std	Y+1, r20	; 0x01
    135a:	79 01       	movw	r14, r18
    135c:	dd 9a       	sbi	0x1b, 5	; 27
    135e:	88 ee       	ldi	r24, 0xE8	; 232
    1360:	93 e0       	ldi	r25, 0x03	; 3
    1362:	0e 94 a2 12 	call	0x2544	; 0x2544 <halWait>
    1366:	de 98       	cbi	0x1b, 6	; 27
    1368:	81 e0       	ldi	r24, 0x01	; 1
    136a:	90 e0       	ldi	r25, 0x00	; 0
    136c:	0e 94 a2 12 	call	0x2544	; 0x2544 <halWait>
    1370:	de 9a       	sbi	0x1b, 6	; 27
    1372:	84 e6       	ldi	r24, 0x64	; 100
    1374:	90 e0       	ldi	r25, 0x00	; 0
    1376:	0e 94 a2 12 	call	0x2544	; 0x2544 <halWait>
    137a:	f8 94       	cli
    137c:	c0 98       	cbi	0x18, 0	; 24
    137e:	81 e0       	ldi	r24, 0x01	; 1
    1380:	8f b9       	out	0x0f, r24	; 15
    1382:	77 9b       	sbis	0x0e, 7	; 14
    1384:	fe cf       	rjmp	.-4      	; 0x1382 <rf_init+0x44>
    1386:	c0 9a       	sbi	0x18, 0	; 24
    1388:	82 ee       	ldi	r24, 0xE2	; 226
    138a:	92 e0       	ldi	r25, 0x02	; 2
    138c:	90 93 ad 06 	sts	0x06AD, r25
    1390:	80 93 ac 06 	sts	0x06AC, r24
    1394:	c0 98       	cbi	0x18, 0	; 24
    1396:	81 e1       	ldi	r24, 0x11	; 17
    1398:	8f b9       	out	0x0f, r24	; 15
    139a:	77 9b       	sbis	0x0e, 7	; 14
    139c:	fe cf       	rjmp	.-4      	; 0x139a <rf_init+0x5c>
    139e:	80 91 ad 06 	lds	r24, 0x06AD
    13a2:	8f b9       	out	0x0f, r24	; 15
    13a4:	77 9b       	sbis	0x0e, 7	; 14
    13a6:	fe cf       	rjmp	.-4      	; 0x13a4 <rf_init+0x66>
    13a8:	80 91 ac 06 	lds	r24, 0x06AC
    13ac:	8f b9       	out	0x0f, r24	; 15
    13ae:	77 9b       	sbis	0x0e, 7	; 14
    13b0:	fe cf       	rjmp	.-4      	; 0x13ae <rf_init+0x70>
    13b2:	c0 9a       	sbi	0x18, 0	; 24
    13b4:	c0 98       	cbi	0x18, 0	; 24
    13b6:	82 e1       	ldi	r24, 0x12	; 18
    13b8:	8f b9       	out	0x0f, r24	; 15
    13ba:	77 9b       	sbis	0x0e, 7	; 14
    13bc:	fe cf       	rjmp	.-4      	; 0x13ba <rf_init+0x7c>
    13be:	85 e0       	ldi	r24, 0x05	; 5
    13c0:	8f b9       	out	0x0f, r24	; 15
    13c2:	77 9b       	sbis	0x0e, 7	; 14
    13c4:	fe cf       	rjmp	.-4      	; 0x13c2 <rf_init+0x84>
    13c6:	1f b8       	out	0x0f, r1	; 15
    13c8:	77 9b       	sbis	0x0e, 7	; 14
    13ca:	fe cf       	rjmp	.-4      	; 0x13c8 <rf_init+0x8a>
    13cc:	c0 9a       	sbi	0x18, 0	; 24
    13ce:	c0 98       	cbi	0x18, 0	; 24
    13d0:	8c e1       	ldi	r24, 0x1C	; 28
    13d2:	8f b9       	out	0x0f, r24	; 15
    13d4:	77 9b       	sbis	0x0e, 7	; 14
    13d6:	fe cf       	rjmp	.-4      	; 0x13d4 <rf_init+0x96>
    13d8:	1f b8       	out	0x0f, r1	; 15
    13da:	77 9b       	sbis	0x0e, 7	; 14
    13dc:	fe cf       	rjmp	.-4      	; 0x13da <rf_init+0x9c>
    13de:	8f e7       	ldi	r24, 0x7F	; 127
    13e0:	8f b9       	out	0x0f, r24	; 15
    13e2:	77 9b       	sbis	0x0e, 7	; 14
    13e4:	fe cf       	rjmp	.-4      	; 0x13e2 <rf_init+0xa4>
    13e6:	c0 9a       	sbi	0x18, 0	; 24
    13e8:	c0 98       	cbi	0x18, 0	; 24
    13ea:	89 e1       	ldi	r24, 0x19	; 25
    13ec:	8f b9       	out	0x0f, r24	; 15
    13ee:	77 9b       	sbis	0x0e, 7	; 14
    13f0:	fe cf       	rjmp	.-4      	; 0x13ee <rf_init+0xb0>
    13f2:	81 e0       	ldi	r24, 0x01	; 1
    13f4:	8f b9       	out	0x0f, r24	; 15
    13f6:	77 9b       	sbis	0x0e, 7	; 14
    13f8:	fe cf       	rjmp	.-4      	; 0x13f6 <rf_init+0xb8>
    13fa:	84 ec       	ldi	r24, 0xC4	; 196
    13fc:	8f b9       	out	0x0f, r24	; 15
    13fe:	77 9b       	sbis	0x0e, 7	; 14
    1400:	fe cf       	rjmp	.-4      	; 0x13fe <rf_init+0xc0>
    1402:	c0 9a       	sbi	0x18, 0	; 24
    1404:	c0 98       	cbi	0x18, 0	; 24
    1406:	87 e1       	ldi	r24, 0x17	; 23
    1408:	8f b9       	out	0x0f, r24	; 15
    140a:	77 9b       	sbis	0x0e, 7	; 14
    140c:	fe cf       	rjmp	.-4      	; 0x140a <rf_init+0xcc>
    140e:	8a e1       	ldi	r24, 0x1A	; 26
    1410:	8f b9       	out	0x0f, r24	; 15
    1412:	77 9b       	sbis	0x0e, 7	; 14
    1414:	fe cf       	rjmp	.-4      	; 0x1412 <rf_init+0xd4>
    1416:	86 e5       	ldi	r24, 0x56	; 86
    1418:	8f b9       	out	0x0f, r24	; 15
    141a:	77 9b       	sbis	0x0e, 7	; 14
    141c:	fe cf       	rjmp	.-4      	; 0x141a <rf_init+0xdc>
    141e:	c0 9a       	sbi	0x18, 0	; 24
    1420:	84 ef       	ldi	r24, 0xF4	; 244
    1422:	91 e0       	ldi	r25, 0x01	; 1
    1424:	0e 94 b2 2c 	call	0x5964	; 0x5964 <nrk_spin_wait_us>
    1428:	c0 98       	cbi	0x18, 0	; 24
    142a:	88 ee       	ldi	r24, 0xE8	; 232
    142c:	8f b9       	out	0x0f, r24	; 15
    142e:	77 9b       	sbis	0x0e, 7	; 14
    1430:	fe cf       	rjmp	.-4      	; 0x142e <rf_init+0xf0>
    1432:	80 e8       	ldi	r24, 0x80	; 128
    1434:	8f b9       	out	0x0f, r24	; 15
    1436:	77 9b       	sbis	0x0e, 7	; 14
    1438:	fe cf       	rjmp	.-4      	; 0x1436 <rf_init+0xf8>
    143a:	fe 01       	movw	r30, r28
    143c:	31 96       	adiw	r30, 0x01	; 1
    143e:	ce 01       	movw	r24, r28
    1440:	03 96       	adiw	r24, 0x03	; 3
    1442:	21 91       	ld	r18, Z+
    1444:	2f b9       	out	0x0f, r18	; 15
    1446:	77 9b       	sbis	0x0e, 7	; 14
    1448:	fe cf       	rjmp	.-4      	; 0x1446 <rf_init+0x108>
    144a:	e8 17       	cp	r30, r24
    144c:	f9 07       	cpc	r31, r25
    144e:	c9 f7       	brne	.-14     	; 0x1442 <rf_init+0x104>
    1450:	c0 9a       	sbi	0x18, 0	; 24
    1452:	84 ef       	ldi	r24, 0xF4	; 244
    1454:	91 e0       	ldi	r25, 0x01	; 1
    1456:	0e 94 b2 2c 	call	0x5964	; 0x5964 <nrk_spin_wait_us>
    145a:	78 94       	sei
    145c:	8d 2d       	mov	r24, r13
    145e:	0e 94 45 07 	call	0xe8a	; 0xe8a <halRfSetChannel>
    1462:	78 94       	sei
    1464:	10 93 af 06 	sts	0x06AF, r17
    1468:	00 93 ae 06 	sts	0x06AE, r16
    146c:	89 81       	ldd	r24, Y+1	; 0x01
    146e:	9a 81       	ldd	r25, Y+2	; 0x02
    1470:	90 93 b3 06 	sts	0x06B3, r25
    1474:	80 93 b2 06 	sts	0x06B2, r24
    1478:	f0 92 b5 06 	sts	0x06B5, r15
    147c:	e0 92 b4 06 	sts	0x06B4, r14
    1480:	10 92 b0 06 	sts	0x06B0, r1
    1484:	10 92 b6 06 	sts	0x06B6, r1
    1488:	0e 94 60 07 	call	0xec0	; 0xec0 <halRfWaitForCrystalOscillator>
    148c:	10 92 b9 06 	sts	0x06B9, r1
    1490:	10 92 ab 06 	sts	0x06AB, r1
    1494:	10 92 ba 06 	sts	0x06BA, r1
    1498:	0f 90       	pop	r0
    149a:	0f 90       	pop	r0
    149c:	cf 91       	pop	r28
    149e:	df 91       	pop	r29
    14a0:	1f 91       	pop	r17
    14a2:	0f 91       	pop	r16
    14a4:	ff 90       	pop	r15
    14a6:	ef 90       	pop	r14
    14a8:	df 90       	pop	r13
    14aa:	08 95       	ret

000014ac <rf_rx_on>:
    14ac:	81 e0       	ldi	r24, 0x01	; 1
    14ae:	80 93 b6 06 	sts	0x06B6, r24
    14b2:	c0 98       	cbi	0x18, 0	; 24
    14b4:	83 e0       	ldi	r24, 0x03	; 3
    14b6:	8f b9       	out	0x0f, r24	; 15
    14b8:	77 9b       	sbis	0x0e, 7	; 14
    14ba:	fe cf       	rjmp	.-4      	; 0x14b8 <rf_rx_on+0xc>
    14bc:	c0 9a       	sbi	0x18, 0	; 24
    14be:	c0 98       	cbi	0x18, 0	; 24
    14c0:	88 e0       	ldi	r24, 0x08	; 8
    14c2:	8f b9       	out	0x0f, r24	; 15
    14c4:	77 9b       	sbis	0x0e, 7	; 14
    14c6:	fe cf       	rjmp	.-4      	; 0x14c4 <rf_rx_on+0x18>
    14c8:	c0 9a       	sbi	0x18, 0	; 24
    14ca:	10 92 bf 06 	sts	0x06BF, r1
    14ce:	08 95       	ret

000014d0 <rf_polling_rx_on>:
    14d0:	81 e0       	ldi	r24, 0x01	; 1
    14d2:	80 93 b6 06 	sts	0x06B6, r24
    14d6:	c0 98       	cbi	0x18, 0	; 24
    14d8:	83 e0       	ldi	r24, 0x03	; 3
    14da:	8f b9       	out	0x0f, r24	; 15
    14dc:	77 9b       	sbis	0x0e, 7	; 14
    14de:	fe cf       	rjmp	.-4      	; 0x14dc <rf_polling_rx_on+0xc>
    14e0:	c0 9a       	sbi	0x18, 0	; 24
    14e2:	c0 98       	cbi	0x18, 0	; 24
    14e4:	88 e0       	ldi	r24, 0x08	; 8
    14e6:	8f b9       	out	0x0f, r24	; 15
    14e8:	77 9b       	sbis	0x0e, 7	; 14
    14ea:	fe cf       	rjmp	.-4      	; 0x14e8 <rf_polling_rx_on+0x18>
    14ec:	c0 9a       	sbi	0x18, 0	; 24
    14ee:	10 92 bf 06 	sts	0x06BF, r1
    14f2:	08 95       	ret

000014f4 <rf_rx_off>:
    14f4:	10 92 b6 06 	sts	0x06B6, r1
    14f8:	c0 98       	cbi	0x18, 0	; 24
    14fa:	86 e0       	ldi	r24, 0x06	; 6
    14fc:	8f b9       	out	0x0f, r24	; 15
    14fe:	77 9b       	sbis	0x0e, 7	; 14
    1500:	fe cf       	rjmp	.-4      	; 0x14fe <rf_rx_off+0xa>
    1502:	c0 9a       	sbi	0x18, 0	; 24
    1504:	10 92 bf 06 	sts	0x06BF, r1
    1508:	08 95       	ret

0000150a <rf_tx_tdma_packet>:
    150a:	bf 92       	push	r11
    150c:	cf 92       	push	r12
    150e:	df 92       	push	r13
    1510:	ef 92       	push	r14
    1512:	ff 92       	push	r15
    1514:	0f 93       	push	r16
    1516:	1f 93       	push	r17
    1518:	df 93       	push	r29
    151a:	cf 93       	push	r28
    151c:	00 d0       	rcall	.+0      	; 0x151e <rf_tx_tdma_packet+0x14>
    151e:	0f 92       	push	r0
    1520:	cd b7       	in	r28, 0x3d	; 61
    1522:	de b7       	in	r29, 0x3e	; 62
    1524:	8c 01       	movw	r16, r24
    1526:	6b 01       	movw	r12, r22
    1528:	7a 01       	movw	r14, r20
    152a:	0e 94 49 2d 	call	0x5a92	; 0x5a92 <_nrk_os_timer_get>
    152e:	c0 98       	cbi	0x18, 0	; 24
    1530:	88 e0       	ldi	r24, 0x08	; 8
    1532:	8f b9       	out	0x0f, r24	; 15
    1534:	77 9b       	sbis	0x0e, 7	; 14
    1536:	fe cf       	rjmp	.-4      	; 0x1534 <rf_tx_tdma_packet+0x2a>
    1538:	c0 9a       	sbi	0x18, 0	; 24
    153a:	c0 98       	cbi	0x18, 0	; 24
    153c:	88 e0       	ldi	r24, 0x08	; 8
    153e:	8f b9       	out	0x0f, r24	; 15
    1540:	77 9b       	sbis	0x0e, 7	; 14
    1542:	fe cf       	rjmp	.-4      	; 0x1540 <rf_tx_tdma_packet+0x36>
    1544:	c0 9a       	sbi	0x18, 0	; 24
    1546:	0e 99       	sbic	0x01, 6	; 1
    1548:	fe cf       	rjmp	.-4      	; 0x1546 <rf_tx_tdma_packet+0x3c>
    154a:	84 99       	sbic	0x10, 4	; 16
    154c:	fc cf       	rjmp	.-8      	; 0x1546 <rf_tx_tdma_packet+0x3c>
    154e:	f8 94       	cli
    1550:	c0 98       	cbi	0x18, 0	; 24
    1552:	89 e0       	ldi	r24, 0x09	; 9
    1554:	8f b9       	out	0x0f, r24	; 15
    1556:	77 9b       	sbis	0x0e, 7	; 14
    1558:	fe cf       	rjmp	.-4      	; 0x1556 <rf_tx_tdma_packet+0x4c>
    155a:	c0 9a       	sbi	0x18, 0	; 24
    155c:	c0 98       	cbi	0x18, 0	; 24
    155e:	89 e0       	ldi	r24, 0x09	; 9
    1560:	8f b9       	out	0x0f, r24	; 15
    1562:	77 9b       	sbis	0x0e, 7	; 14
    1564:	fe cf       	rjmp	.-4      	; 0x1562 <rf_tx_tdma_packet+0x58>
    1566:	c0 9a       	sbi	0x18, 0	; 24
    1568:	d8 01       	movw	r26, r16
    156a:	12 96       	adiw	r26, 0x02	; 2
    156c:	5c 91       	ld	r21, X
    156e:	12 97       	sbiw	r26, 0x02	; 2
    1570:	25 2f       	mov	r18, r21
    1572:	33 27       	eor	r19, r19
    1574:	27 fd       	sbrc	r18, 7
    1576:	30 95       	com	r19
    1578:	bb 24       	eor	r11, r11
    157a:	40 e0       	ldi	r20, 0x00	; 0
    157c:	0a c0       	rjmp	.+20     	; 0x1592 <rf_tx_tdma_packet+0x88>
    157e:	d8 01       	movw	r26, r16
    1580:	13 96       	adiw	r26, 0x03	; 3
    1582:	ed 91       	ld	r30, X+
    1584:	fc 91       	ld	r31, X
    1586:	14 97       	sbiw	r26, 0x04	; 4
    1588:	e8 0f       	add	r30, r24
    158a:	f9 1f       	adc	r31, r25
    158c:	80 81       	ld	r24, Z
    158e:	b8 0e       	add	r11, r24
    1590:	4f 5f       	subi	r20, 0xFF	; 255
    1592:	84 2f       	mov	r24, r20
    1594:	90 e0       	ldi	r25, 0x00	; 0
    1596:	82 17       	cp	r24, r18
    1598:	93 07       	cpc	r25, r19
    159a:	8c f3       	brlt	.-30     	; 0x157e <rf_tx_tdma_packet+0x74>
    159c:	54 5f       	subi	r21, 0xF4	; 244
    159e:	c0 98       	cbi	0x18, 0	; 24
    15a0:	8e e3       	ldi	r24, 0x3E	; 62
    15a2:	8f b9       	out	0x0f, r24	; 15
    15a4:	77 9b       	sbis	0x0e, 7	; 14
    15a6:	fe cf       	rjmp	.-4      	; 0x15a4 <rf_tx_tdma_packet+0x9a>
    15a8:	5f b9       	out	0x0f, r21	; 15
    15aa:	77 9b       	sbis	0x0e, 7	; 14
    15ac:	fe cf       	rjmp	.-4      	; 0x15aa <rf_tx_tdma_packet+0xa0>
    15ae:	c0 9a       	sbi	0x18, 0	; 24
    15b0:	f8 01       	movw	r30, r16
    15b2:	86 81       	ldd	r24, Z+6	; 0x06
    15b4:	88 23       	and	r24, r24
    15b6:	19 f0       	breq	.+6      	; 0x15be <rf_tx_tdma_packet+0xb4>
    15b8:	81 e6       	ldi	r24, 0x61	; 97
    15ba:	98 e8       	ldi	r25, 0x88	; 136
    15bc:	02 c0       	rjmp	.+4      	; 0x15c2 <rf_tx_tdma_packet+0xb8>
    15be:	81 e4       	ldi	r24, 0x41	; 65
    15c0:	98 e8       	ldi	r25, 0x88	; 136
    15c2:	9a 83       	std	Y+2, r25	; 0x02
    15c4:	89 83       	std	Y+1, r24	; 0x01
    15c6:	c0 98       	cbi	0x18, 0	; 24
    15c8:	8e e3       	ldi	r24, 0x3E	; 62
    15ca:	8f b9       	out	0x0f, r24	; 15
    15cc:	77 9b       	sbis	0x0e, 7	; 14
    15ce:	fe cf       	rjmp	.-4      	; 0x15cc <rf_tx_tdma_packet+0xc2>
    15d0:	fe 01       	movw	r30, r28
    15d2:	31 96       	adiw	r30, 0x01	; 1
    15d4:	ce 01       	movw	r24, r28
    15d6:	03 96       	adiw	r24, 0x03	; 3
    15d8:	21 91       	ld	r18, Z+
    15da:	2f b9       	out	0x0f, r18	; 15
    15dc:	77 9b       	sbis	0x0e, 7	; 14
    15de:	fe cf       	rjmp	.-4      	; 0x15dc <rf_tx_tdma_packet+0xd2>
    15e0:	e8 17       	cp	r30, r24
    15e2:	f9 07       	cpc	r31, r25
    15e4:	c9 f7       	brne	.-14     	; 0x15d8 <rf_tx_tdma_packet+0xce>
    15e6:	c0 9a       	sbi	0x18, 0	; 24
    15e8:	c0 98       	cbi	0x18, 0	; 24
    15ea:	8e e3       	ldi	r24, 0x3E	; 62
    15ec:	8f b9       	out	0x0f, r24	; 15
    15ee:	77 9b       	sbis	0x0e, 7	; 14
    15f0:	fe cf       	rjmp	.-4      	; 0x15ee <rf_tx_tdma_packet+0xe4>
    15f2:	80 91 b0 06 	lds	r24, 0x06B0
    15f6:	8f b9       	out	0x0f, r24	; 15
    15f8:	77 9b       	sbis	0x0e, 7	; 14
    15fa:	fe cf       	rjmp	.-4      	; 0x15f8 <rf_tx_tdma_packet+0xee>
    15fc:	c0 9a       	sbi	0x18, 0	; 24
    15fe:	c0 98       	cbi	0x18, 0	; 24
    1600:	8e e3       	ldi	r24, 0x3E	; 62
    1602:	8f b9       	out	0x0f, r24	; 15
    1604:	77 9b       	sbis	0x0e, 7	; 14
    1606:	fe cf       	rjmp	.-4      	; 0x1604 <rf_tx_tdma_packet+0xfa>
    1608:	80 e0       	ldi	r24, 0x00	; 0
    160a:	90 e0       	ldi	r25, 0x00	; 0
    160c:	fc 01       	movw	r30, r24
    160e:	e2 55       	subi	r30, 0x52	; 82
    1610:	f9 4f       	sbci	r31, 0xF9	; 249
    1612:	24 81       	ldd	r18, Z+4	; 0x04
    1614:	2f b9       	out	0x0f, r18	; 15
    1616:	77 9b       	sbis	0x0e, 7	; 14
    1618:	fe cf       	rjmp	.-4      	; 0x1616 <rf_tx_tdma_packet+0x10c>
    161a:	01 96       	adiw	r24, 0x01	; 1
    161c:	82 30       	cpi	r24, 0x02	; 2
    161e:	91 05       	cpc	r25, r1
    1620:	a9 f7       	brne	.-22     	; 0x160c <rf_tx_tdma_packet+0x102>
    1622:	c0 9a       	sbi	0x18, 0	; 24
    1624:	c0 98       	cbi	0x18, 0	; 24
    1626:	8e e3       	ldi	r24, 0x3E	; 62
    1628:	8f b9       	out	0x0f, r24	; 15
    162a:	77 9b       	sbis	0x0e, 7	; 14
    162c:	fe cf       	rjmp	.-4      	; 0x162a <rf_tx_tdma_packet+0x120>
    162e:	80 e0       	ldi	r24, 0x00	; 0
    1630:	90 e0       	ldi	r25, 0x00	; 0
    1632:	f8 01       	movw	r30, r16
    1634:	e8 0f       	add	r30, r24
    1636:	f9 1f       	adc	r31, r25
    1638:	20 81       	ld	r18, Z
    163a:	2f b9       	out	0x0f, r18	; 15
    163c:	77 9b       	sbis	0x0e, 7	; 14
    163e:	fe cf       	rjmp	.-4      	; 0x163c <rf_tx_tdma_packet+0x132>
    1640:	01 96       	adiw	r24, 0x01	; 1
    1642:	82 30       	cpi	r24, 0x02	; 2
    1644:	91 05       	cpc	r25, r1
    1646:	a9 f7       	brne	.-22     	; 0x1632 <rf_tx_tdma_packet+0x128>
    1648:	c0 9a       	sbi	0x18, 0	; 24
    164a:	c0 98       	cbi	0x18, 0	; 24
    164c:	8e e3       	ldi	r24, 0x3E	; 62
    164e:	8f b9       	out	0x0f, r24	; 15
    1650:	77 9b       	sbis	0x0e, 7	; 14
    1652:	fe cf       	rjmp	.-4      	; 0x1650 <rf_tx_tdma_packet+0x146>
    1654:	80 e0       	ldi	r24, 0x00	; 0
    1656:	90 e0       	ldi	r25, 0x00	; 0
    1658:	fc 01       	movw	r30, r24
    165a:	e2 55       	subi	r30, 0x52	; 82
    165c:	f9 4f       	sbci	r31, 0xF9	; 249
    165e:	26 81       	ldd	r18, Z+6	; 0x06
    1660:	2f b9       	out	0x0f, r18	; 15
    1662:	77 9b       	sbis	0x0e, 7	; 14
    1664:	fe cf       	rjmp	.-4      	; 0x1662 <rf_tx_tdma_packet+0x158>
    1666:	01 96       	adiw	r24, 0x01	; 1
    1668:	82 30       	cpi	r24, 0x02	; 2
    166a:	91 05       	cpc	r25, r1
    166c:	a9 f7       	brne	.-22     	; 0x1658 <rf_tx_tdma_packet+0x14e>
    166e:	c0 9a       	sbi	0x18, 0	; 24
    1670:	c6 01       	movw	r24, r12
    1672:	b7 01       	movw	r22, r14
    1674:	0e 94 d5 2c 	call	0x59aa	; 0x59aa <nrk_high_speed_timer_wait>
    1678:	d8 01       	movw	r26, r16
    167a:	15 96       	adiw	r26, 0x05	; 5
    167c:	8c 91       	ld	r24, X
    167e:	15 97       	sbiw	r26, 0x05	; 5
    1680:	88 23       	and	r24, r24
    1682:	a9 f1       	breq	.+106    	; 0x16ee <rf_tx_tdma_packet+0x1e4>
    1684:	80 91 b6 06 	lds	r24, 0x06B6
    1688:	88 23       	and	r24, r24
    168a:	31 f4       	brne	.+12     	; 0x1698 <rf_tx_tdma_packet+0x18e>
    168c:	c0 98       	cbi	0x18, 0	; 24
    168e:	83 e0       	ldi	r24, 0x03	; 3
    1690:	8f b9       	out	0x0f, r24	; 15
    1692:	77 9b       	sbis	0x0e, 7	; 14
    1694:	fe cf       	rjmp	.-4      	; 0x1692 <rf_tx_tdma_packet+0x188>
    1696:	c0 9a       	sbi	0x18, 0	; 24
    1698:	c0 98       	cbi	0x18, 0	; 24
    169a:	1f b8       	out	0x0f, r1	; 15
    169c:	77 9b       	sbis	0x0e, 7	; 14
    169e:	fe cf       	rjmp	.-4      	; 0x169c <rf_tx_tdma_packet+0x192>
    16a0:	8f b1       	in	r24, 0x0f	; 15
    16a2:	c0 9a       	sbi	0x18, 0	; 24
    16a4:	81 ff       	sbrs	r24, 1
    16a6:	f8 cf       	rjmp	.-16     	; 0x1698 <rf_tx_tdma_packet+0x18e>
    16a8:	20 e0       	ldi	r18, 0x00	; 0
    16aa:	a5 e0       	ldi	r26, 0x05	; 5
    16ac:	ea 2e       	mov	r14, r26
    16ae:	c0 98       	cbi	0x18, 0	; 24
    16b0:	ef b8       	out	0x0f, r14	; 15
    16b2:	77 9b       	sbis	0x0e, 7	; 14
    16b4:	fe cf       	rjmp	.-4      	; 0x16b2 <rf_tx_tdma_packet+0x1a8>
    16b6:	c0 9a       	sbi	0x18, 0	; 24
    16b8:	c0 98       	cbi	0x18, 0	; 24
    16ba:	1f b8       	out	0x0f, r1	; 15
    16bc:	77 9b       	sbis	0x0e, 7	; 14
    16be:	fe cf       	rjmp	.-4      	; 0x16bc <rf_tx_tdma_packet+0x1b2>
    16c0:	cf b0       	in	r12, 0x0f	; 15
    16c2:	c0 9a       	sbi	0x18, 0	; 24
    16c4:	2f 5f       	subi	r18, 0xFF	; 255
    16c6:	25 36       	cpi	r18, 0x65	; 101
    16c8:	49 f4       	brne	.+18     	; 0x16dc <rf_tx_tdma_packet+0x1d2>
    16ca:	78 94       	sei
    16cc:	80 91 a9 06 	lds	r24, 0x06A9
    16d0:	90 91 aa 06 	lds	r25, 0x06AA
    16d4:	0e 94 a8 21 	call	0x4350	; 0x4350 <nrk_sem_post>
    16d8:	80 e0       	ldi	r24, 0x00	; 0
    16da:	60 c0       	rjmp	.+192    	; 0x179c <rf_tx_tdma_packet+0x292>
    16dc:	84 e6       	ldi	r24, 0x64	; 100
    16de:	90 e0       	ldi	r25, 0x00	; 0
    16e0:	2b 83       	std	Y+3, r18	; 0x03
    16e2:	0e 94 a2 12 	call	0x2544	; 0x2544 <halWait>
    16e6:	2b 81       	ldd	r18, Y+3	; 0x03
    16e8:	c3 fe       	sbrs	r12, 3
    16ea:	e1 cf       	rjmp	.-62     	; 0x16ae <rf_tx_tdma_packet+0x1a4>
    16ec:	06 c0       	rjmp	.+12     	; 0x16fa <rf_tx_tdma_packet+0x1f0>
    16ee:	c0 98       	cbi	0x18, 0	; 24
    16f0:	84 e0       	ldi	r24, 0x04	; 4
    16f2:	8f b9       	out	0x0f, r24	; 15
    16f4:	77 9b       	sbis	0x0e, 7	; 14
    16f6:	fe cf       	rjmp	.-4      	; 0x16f4 <rf_tx_tdma_packet+0x1ea>
    16f8:	c0 9a       	sbi	0x18, 0	; 24
    16fa:	c0 98       	cbi	0x18, 0	; 24
    16fc:	8e e3       	ldi	r24, 0x3E	; 62
    16fe:	8f b9       	out	0x0f, r24	; 15
    1700:	77 9b       	sbis	0x0e, 7	; 14
    1702:	fe cf       	rjmp	.-4      	; 0x1700 <rf_tx_tdma_packet+0x1f6>
    1704:	40 e0       	ldi	r20, 0x00	; 0
    1706:	0c c0       	rjmp	.+24     	; 0x1720 <rf_tx_tdma_packet+0x216>
    1708:	d8 01       	movw	r26, r16
    170a:	13 96       	adiw	r26, 0x03	; 3
    170c:	ed 91       	ld	r30, X+
    170e:	fc 91       	ld	r31, X
    1710:	14 97       	sbiw	r26, 0x04	; 4
    1712:	e8 0f       	add	r30, r24
    1714:	f9 1f       	adc	r31, r25
    1716:	80 81       	ld	r24, Z
    1718:	8f b9       	out	0x0f, r24	; 15
    171a:	77 9b       	sbis	0x0e, 7	; 14
    171c:	fe cf       	rjmp	.-4      	; 0x171a <rf_tx_tdma_packet+0x210>
    171e:	4f 5f       	subi	r20, 0xFF	; 255
    1720:	84 2f       	mov	r24, r20
    1722:	90 e0       	ldi	r25, 0x00	; 0
    1724:	f8 01       	movw	r30, r16
    1726:	22 81       	ldd	r18, Z+2	; 0x02
    1728:	33 27       	eor	r19, r19
    172a:	27 fd       	sbrc	r18, 7
    172c:	30 95       	com	r19
    172e:	82 17       	cp	r24, r18
    1730:	93 07       	cpc	r25, r19
    1732:	54 f3       	brlt	.-44     	; 0x1708 <rf_tx_tdma_packet+0x1fe>
    1734:	c0 9a       	sbi	0x18, 0	; 24
    1736:	c0 98       	cbi	0x18, 0	; 24
    1738:	8e e3       	ldi	r24, 0x3E	; 62
    173a:	8f b9       	out	0x0f, r24	; 15
    173c:	77 9b       	sbis	0x0e, 7	; 14
    173e:	fe cf       	rjmp	.-4      	; 0x173c <rf_tx_tdma_packet+0x232>
    1740:	bf b8       	out	0x0f, r11	; 15
    1742:	77 9b       	sbis	0x0e, 7	; 14
    1744:	fe cf       	rjmp	.-4      	; 0x1742 <rf_tx_tdma_packet+0x238>
    1746:	c0 9a       	sbi	0x18, 0	; 24
    1748:	84 9b       	sbis	0x10, 4	; 16
    174a:	fe cf       	rjmp	.-4      	; 0x1748 <rf_tx_tdma_packet+0x23e>
    174c:	f8 94       	cli
    174e:	84 99       	sbic	0x10, 4	; 16
    1750:	fe cf       	rjmp	.-4      	; 0x174e <rf_tx_tdma_packet+0x244>
    1752:	c0 98       	cbi	0x18, 0	; 24
    1754:	88 e0       	ldi	r24, 0x08	; 8
    1756:	8f b9       	out	0x0f, r24	; 15
    1758:	77 9b       	sbis	0x0e, 7	; 14
    175a:	fe cf       	rjmp	.-4      	; 0x1758 <rf_tx_tdma_packet+0x24e>
    175c:	c0 9a       	sbi	0x18, 0	; 24
    175e:	c0 98       	cbi	0x18, 0	; 24
    1760:	88 e0       	ldi	r24, 0x08	; 8
    1762:	8f b9       	out	0x0f, r24	; 15
    1764:	77 9b       	sbis	0x0e, 7	; 14
    1766:	fe cf       	rjmp	.-4      	; 0x1764 <rf_tx_tdma_packet+0x25a>
    1768:	c0 9a       	sbi	0x18, 0	; 24
    176a:	c0 98       	cbi	0x18, 0	; 24
    176c:	89 e0       	ldi	r24, 0x09	; 9
    176e:	8f b9       	out	0x0f, r24	; 15
    1770:	77 9b       	sbis	0x0e, 7	; 14
    1772:	fe cf       	rjmp	.-4      	; 0x1770 <rf_tx_tdma_packet+0x266>
    1774:	c0 9a       	sbi	0x18, 0	; 24
    1776:	c0 98       	cbi	0x18, 0	; 24
    1778:	89 e0       	ldi	r24, 0x09	; 9
    177a:	8f b9       	out	0x0f, r24	; 15
    177c:	77 9b       	sbis	0x0e, 7	; 14
    177e:	fe cf       	rjmp	.-4      	; 0x177c <rf_tx_tdma_packet+0x272>
    1780:	c0 9a       	sbi	0x18, 0	; 24
    1782:	c0 98       	cbi	0x18, 0	; 24
    1784:	86 e0       	ldi	r24, 0x06	; 6
    1786:	8f b9       	out	0x0f, r24	; 15
    1788:	77 9b       	sbis	0x0e, 7	; 14
    178a:	fe cf       	rjmp	.-4      	; 0x1788 <rf_tx_tdma_packet+0x27e>
    178c:	c0 9a       	sbi	0x18, 0	; 24
    178e:	78 94       	sei
    1790:	80 91 b0 06 	lds	r24, 0x06B0
    1794:	8f 5f       	subi	r24, 0xFF	; 255
    1796:	80 93 b0 06 	sts	0x06B0, r24
    179a:	81 e0       	ldi	r24, 0x01	; 1
    179c:	0f 90       	pop	r0
    179e:	0f 90       	pop	r0
    17a0:	0f 90       	pop	r0
    17a2:	cf 91       	pop	r28
    17a4:	df 91       	pop	r29
    17a6:	1f 91       	pop	r17
    17a8:	0f 91       	pop	r16
    17aa:	ff 90       	pop	r15
    17ac:	ef 90       	pop	r14
    17ae:	df 90       	pop	r13
    17b0:	cf 90       	pop	r12
    17b2:	bf 90       	pop	r11
    17b4:	08 95       	ret

000017b6 <rf_tx_packet>:
    17b6:	ff 92       	push	r15
    17b8:	0f 93       	push	r16
    17ba:	1f 93       	push	r17
    17bc:	df 93       	push	r29
    17be:	cf 93       	push	r28
    17c0:	00 d0       	rcall	.+0      	; 0x17c2 <rf_tx_packet+0xc>
    17c2:	cd b7       	in	r28, 0x3d	; 61
    17c4:	de b7       	in	r29, 0x3e	; 62
    17c6:	fc 01       	movw	r30, r24
    17c8:	80 91 ab 06 	lds	r24, 0x06AB
    17cc:	88 23       	and	r24, r24
    17ce:	31 f0       	breq	.+12     	; 0x17dc <rf_tx_packet+0x26>
    17d0:	c0 98       	cbi	0x18, 0	; 24
    17d2:	8d e0       	ldi	r24, 0x0D	; 13
    17d4:	8f b9       	out	0x0f, r24	; 15
    17d6:	77 9b       	sbis	0x0e, 7	; 14
    17d8:	fe cf       	rjmp	.-4      	; 0x17d6 <rf_tx_packet+0x20>
    17da:	c0 9a       	sbi	0x18, 0	; 24
    17dc:	32 81       	ldd	r19, Z+2	; 0x02
    17de:	43 2f       	mov	r20, r19
    17e0:	55 27       	eor	r21, r21
    17e2:	47 fd       	sbrc	r20, 7
    17e4:	50 95       	com	r21
    17e6:	20 e0       	ldi	r18, 0x00	; 0
    17e8:	60 e0       	ldi	r22, 0x00	; 0
    17ea:	07 c0       	rjmp	.+14     	; 0x17fa <rf_tx_packet+0x44>
    17ec:	a3 81       	ldd	r26, Z+3	; 0x03
    17ee:	b4 81       	ldd	r27, Z+4	; 0x04
    17f0:	a8 0f       	add	r26, r24
    17f2:	b9 1f       	adc	r27, r25
    17f4:	8c 91       	ld	r24, X
    17f6:	28 0f       	add	r18, r24
    17f8:	6f 5f       	subi	r22, 0xFF	; 255
    17fa:	86 2f       	mov	r24, r22
    17fc:	90 e0       	ldi	r25, 0x00	; 0
    17fe:	84 17       	cp	r24, r20
    1800:	95 07       	cpc	r25, r21
    1802:	a4 f3       	brlt	.-24     	; 0x17ec <rf_tx_packet+0x36>
    1804:	83 2f       	mov	r24, r19
    1806:	84 5f       	subi	r24, 0xF4	; 244
    1808:	90 91 ab 06 	lds	r25, 0x06AB
    180c:	91 11       	cpse	r25, r1
    180e:	8c 5f       	subi	r24, 0xFC	; 252
    1810:	c0 98       	cbi	0x18, 0	; 24
    1812:	98 e0       	ldi	r25, 0x08	; 8
    1814:	9f b9       	out	0x0f, r25	; 15
    1816:	77 9b       	sbis	0x0e, 7	; 14
    1818:	fe cf       	rjmp	.-4      	; 0x1816 <rf_tx_packet+0x60>
    181a:	c0 9a       	sbi	0x18, 0	; 24
    181c:	c0 98       	cbi	0x18, 0	; 24
    181e:	98 e0       	ldi	r25, 0x08	; 8
    1820:	9f b9       	out	0x0f, r25	; 15
    1822:	77 9b       	sbis	0x0e, 7	; 14
    1824:	fe cf       	rjmp	.-4      	; 0x1822 <rf_tx_packet+0x6c>
    1826:	c0 9a       	sbi	0x18, 0	; 24
    1828:	0e 99       	sbic	0x01, 6	; 1
    182a:	fe cf       	rjmp	.-4      	; 0x1828 <rf_tx_packet+0x72>
    182c:	84 99       	sbic	0x10, 4	; 16
    182e:	fc cf       	rjmp	.-8      	; 0x1828 <rf_tx_packet+0x72>
    1830:	f8 94       	cli
    1832:	c0 98       	cbi	0x18, 0	; 24
    1834:	99 e0       	ldi	r25, 0x09	; 9
    1836:	9f b9       	out	0x0f, r25	; 15
    1838:	77 9b       	sbis	0x0e, 7	; 14
    183a:	fe cf       	rjmp	.-4      	; 0x1838 <rf_tx_packet+0x82>
    183c:	c0 9a       	sbi	0x18, 0	; 24
    183e:	c0 98       	cbi	0x18, 0	; 24
    1840:	99 e0       	ldi	r25, 0x09	; 9
    1842:	9f b9       	out	0x0f, r25	; 15
    1844:	77 9b       	sbis	0x0e, 7	; 14
    1846:	fe cf       	rjmp	.-4      	; 0x1844 <rf_tx_packet+0x8e>
    1848:	c0 9a       	sbi	0x18, 0	; 24
    184a:	c0 98       	cbi	0x18, 0	; 24
    184c:	9e e3       	ldi	r25, 0x3E	; 62
    184e:	9f b9       	out	0x0f, r25	; 15
    1850:	77 9b       	sbis	0x0e, 7	; 14
    1852:	fe cf       	rjmp	.-4      	; 0x1850 <rf_tx_packet+0x9a>
    1854:	8f b9       	out	0x0f, r24	; 15
    1856:	77 9b       	sbis	0x0e, 7	; 14
    1858:	fe cf       	rjmp	.-4      	; 0x1856 <rf_tx_packet+0xa0>
    185a:	c0 9a       	sbi	0x18, 0	; 24
    185c:	81 e4       	ldi	r24, 0x41	; 65
    185e:	98 e8       	ldi	r25, 0x88	; 136
    1860:	9a 83       	std	Y+2, r25	; 0x02
    1862:	89 83       	std	Y+1, r24	; 0x01
    1864:	80 91 b9 06 	lds	r24, 0x06B9
    1868:	88 23       	and	r24, r24
    186a:	21 f0       	breq	.+8      	; 0x1874 <rf_tx_packet+0xbe>
    186c:	81 e6       	ldi	r24, 0x61	; 97
    186e:	98 e8       	ldi	r25, 0x88	; 136
    1870:	9a 83       	std	Y+2, r25	; 0x02
    1872:	89 83       	std	Y+1, r24	; 0x01
    1874:	80 91 ab 06 	lds	r24, 0x06AB
    1878:	88 23       	and	r24, r24
    187a:	29 f0       	breq	.+10     	; 0x1886 <rf_tx_packet+0xd0>
    187c:	89 81       	ldd	r24, Y+1	; 0x01
    187e:	9a 81       	ldd	r25, Y+2	; 0x02
    1880:	88 60       	ori	r24, 0x08	; 8
    1882:	9a 83       	std	Y+2, r25	; 0x02
    1884:	89 83       	std	Y+1, r24	; 0x01
    1886:	c0 98       	cbi	0x18, 0	; 24
    1888:	8e e3       	ldi	r24, 0x3E	; 62
    188a:	8f b9       	out	0x0f, r24	; 15
    188c:	77 9b       	sbis	0x0e, 7	; 14
    188e:	fe cf       	rjmp	.-4      	; 0x188c <rf_tx_packet+0xd6>
    1890:	de 01       	movw	r26, r28
    1892:	11 96       	adiw	r26, 0x01	; 1
    1894:	ce 01       	movw	r24, r28
    1896:	03 96       	adiw	r24, 0x03	; 3
    1898:	3d 91       	ld	r19, X+
    189a:	3f b9       	out	0x0f, r19	; 15
    189c:	77 9b       	sbis	0x0e, 7	; 14
    189e:	fe cf       	rjmp	.-4      	; 0x189c <rf_tx_packet+0xe6>
    18a0:	a8 17       	cp	r26, r24
    18a2:	b9 07       	cpc	r27, r25
    18a4:	c9 f7       	brne	.-14     	; 0x1898 <rf_tx_packet+0xe2>
    18a6:	c0 9a       	sbi	0x18, 0	; 24
    18a8:	c0 98       	cbi	0x18, 0	; 24
    18aa:	8e e3       	ldi	r24, 0x3E	; 62
    18ac:	8f b9       	out	0x0f, r24	; 15
    18ae:	77 9b       	sbis	0x0e, 7	; 14
    18b0:	fe cf       	rjmp	.-4      	; 0x18ae <rf_tx_packet+0xf8>
    18b2:	80 91 b0 06 	lds	r24, 0x06B0
    18b6:	8f b9       	out	0x0f, r24	; 15
    18b8:	77 9b       	sbis	0x0e, 7	; 14
    18ba:	fe cf       	rjmp	.-4      	; 0x18b8 <rf_tx_packet+0x102>
    18bc:	c0 9a       	sbi	0x18, 0	; 24
    18be:	c0 98       	cbi	0x18, 0	; 24
    18c0:	8e e3       	ldi	r24, 0x3E	; 62
    18c2:	8f b9       	out	0x0f, r24	; 15
    18c4:	77 9b       	sbis	0x0e, 7	; 14
    18c6:	fe cf       	rjmp	.-4      	; 0x18c4 <rf_tx_packet+0x10e>
    18c8:	80 e0       	ldi	r24, 0x00	; 0
    18ca:	90 e0       	ldi	r25, 0x00	; 0
    18cc:	dc 01       	movw	r26, r24
    18ce:	a2 55       	subi	r26, 0x52	; 82
    18d0:	b9 4f       	sbci	r27, 0xF9	; 249
    18d2:	14 96       	adiw	r26, 0x04	; 4
    18d4:	3c 91       	ld	r19, X
    18d6:	14 97       	sbiw	r26, 0x04	; 4
    18d8:	3f b9       	out	0x0f, r19	; 15
    18da:	77 9b       	sbis	0x0e, 7	; 14
    18dc:	fe cf       	rjmp	.-4      	; 0x18da <rf_tx_packet+0x124>
    18de:	01 96       	adiw	r24, 0x01	; 1
    18e0:	82 30       	cpi	r24, 0x02	; 2
    18e2:	91 05       	cpc	r25, r1
    18e4:	99 f7       	brne	.-26     	; 0x18cc <rf_tx_packet+0x116>
    18e6:	c0 9a       	sbi	0x18, 0	; 24
    18e8:	c0 98       	cbi	0x18, 0	; 24
    18ea:	8e e3       	ldi	r24, 0x3E	; 62
    18ec:	8f b9       	out	0x0f, r24	; 15
    18ee:	77 9b       	sbis	0x0e, 7	; 14
    18f0:	fe cf       	rjmp	.-4      	; 0x18ee <rf_tx_packet+0x138>
    18f2:	80 e0       	ldi	r24, 0x00	; 0
    18f4:	90 e0       	ldi	r25, 0x00	; 0
    18f6:	df 01       	movw	r26, r30
    18f8:	a8 0f       	add	r26, r24
    18fa:	b9 1f       	adc	r27, r25
    18fc:	3c 91       	ld	r19, X
    18fe:	3f b9       	out	0x0f, r19	; 15
    1900:	77 9b       	sbis	0x0e, 7	; 14
    1902:	fe cf       	rjmp	.-4      	; 0x1900 <rf_tx_packet+0x14a>
    1904:	01 96       	adiw	r24, 0x01	; 1
    1906:	82 30       	cpi	r24, 0x02	; 2
    1908:	91 05       	cpc	r25, r1
    190a:	a9 f7       	brne	.-22     	; 0x18f6 <rf_tx_packet+0x140>
    190c:	c0 9a       	sbi	0x18, 0	; 24
    190e:	c0 98       	cbi	0x18, 0	; 24
    1910:	8e e3       	ldi	r24, 0x3E	; 62
    1912:	8f b9       	out	0x0f, r24	; 15
    1914:	77 9b       	sbis	0x0e, 7	; 14
    1916:	fe cf       	rjmp	.-4      	; 0x1914 <rf_tx_packet+0x15e>
    1918:	80 e0       	ldi	r24, 0x00	; 0
    191a:	90 e0       	ldi	r25, 0x00	; 0
    191c:	dc 01       	movw	r26, r24
    191e:	a2 55       	subi	r26, 0x52	; 82
    1920:	b9 4f       	sbci	r27, 0xF9	; 249
    1922:	16 96       	adiw	r26, 0x06	; 6
    1924:	3c 91       	ld	r19, X
    1926:	16 97       	sbiw	r26, 0x06	; 6
    1928:	3f b9       	out	0x0f, r19	; 15
    192a:	77 9b       	sbis	0x0e, 7	; 14
    192c:	fe cf       	rjmp	.-4      	; 0x192a <rf_tx_packet+0x174>
    192e:	01 96       	adiw	r24, 0x01	; 1
    1930:	82 30       	cpi	r24, 0x02	; 2
    1932:	91 05       	cpc	r25, r1
    1934:	99 f7       	brne	.-26     	; 0x191c <rf_tx_packet+0x166>
    1936:	c0 9a       	sbi	0x18, 0	; 24
    1938:	80 91 ab 06 	lds	r24, 0x06AB
    193c:	88 23       	and	r24, r24
    193e:	81 f0       	breq	.+32     	; 0x1960 <rf_tx_packet+0x1aa>
    1940:	c0 98       	cbi	0x18, 0	; 24
    1942:	8e e3       	ldi	r24, 0x3E	; 62
    1944:	8f b9       	out	0x0f, r24	; 15
    1946:	77 9b       	sbis	0x0e, 7	; 14
    1948:	fe cf       	rjmp	.-4      	; 0x1946 <rf_tx_packet+0x190>
    194a:	ab eb       	ldi	r26, 0xBB	; 187
    194c:	b6 e0       	ldi	r27, 0x06	; 6
    194e:	8d 91       	ld	r24, X+
    1950:	8f b9       	out	0x0f, r24	; 15
    1952:	77 9b       	sbis	0x0e, 7	; 14
    1954:	fe cf       	rjmp	.-4      	; 0x1952 <rf_tx_packet+0x19c>
    1956:	86 e0       	ldi	r24, 0x06	; 6
    1958:	af 3b       	cpi	r26, 0xBF	; 191
    195a:	b8 07       	cpc	r27, r24
    195c:	c1 f7       	brne	.-16     	; 0x194e <rf_tx_packet+0x198>
    195e:	c0 9a       	sbi	0x18, 0	; 24
    1960:	c0 98       	cbi	0x18, 0	; 24
    1962:	8e e3       	ldi	r24, 0x3E	; 62
    1964:	8f b9       	out	0x0f, r24	; 15
    1966:	77 9b       	sbis	0x0e, 7	; 14
    1968:	fe cf       	rjmp	.-4      	; 0x1966 <rf_tx_packet+0x1b0>
    196a:	30 e0       	ldi	r19, 0x00	; 0
    196c:	09 c0       	rjmp	.+18     	; 0x1980 <rf_tx_packet+0x1ca>
    196e:	a3 81       	ldd	r26, Z+3	; 0x03
    1970:	b4 81       	ldd	r27, Z+4	; 0x04
    1972:	a8 0f       	add	r26, r24
    1974:	b9 1f       	adc	r27, r25
    1976:	8c 91       	ld	r24, X
    1978:	8f b9       	out	0x0f, r24	; 15
    197a:	77 9b       	sbis	0x0e, 7	; 14
    197c:	fe cf       	rjmp	.-4      	; 0x197a <rf_tx_packet+0x1c4>
    197e:	3f 5f       	subi	r19, 0xFF	; 255
    1980:	83 2f       	mov	r24, r19
    1982:	90 e0       	ldi	r25, 0x00	; 0
    1984:	42 81       	ldd	r20, Z+2	; 0x02
    1986:	55 27       	eor	r21, r21
    1988:	47 fd       	sbrc	r20, 7
    198a:	50 95       	com	r21
    198c:	84 17       	cp	r24, r20
    198e:	95 07       	cpc	r25, r21
    1990:	74 f3       	brlt	.-36     	; 0x196e <rf_tx_packet+0x1b8>
    1992:	c0 9a       	sbi	0x18, 0	; 24
    1994:	c0 98       	cbi	0x18, 0	; 24
    1996:	8e e3       	ldi	r24, 0x3E	; 62
    1998:	8f b9       	out	0x0f, r24	; 15
    199a:	77 9b       	sbis	0x0e, 7	; 14
    199c:	fe cf       	rjmp	.-4      	; 0x199a <rf_tx_packet+0x1e4>
    199e:	2f b9       	out	0x0f, r18	; 15
    19a0:	77 9b       	sbis	0x0e, 7	; 14
    19a2:	fe cf       	rjmp	.-4      	; 0x19a0 <rf_tx_packet+0x1ea>
    19a4:	c0 9a       	sbi	0x18, 0	; 24
    19a6:	85 81       	ldd	r24, Z+5	; 0x05
    19a8:	88 23       	and	r24, r24
    19aa:	91 f1       	breq	.+100    	; 0x1a10 <rf_tx_packet+0x25a>
    19ac:	80 91 b6 06 	lds	r24, 0x06B6
    19b0:	88 23       	and	r24, r24
    19b2:	31 f4       	brne	.+12     	; 0x19c0 <rf_tx_packet+0x20a>
    19b4:	c0 98       	cbi	0x18, 0	; 24
    19b6:	83 e0       	ldi	r24, 0x03	; 3
    19b8:	8f b9       	out	0x0f, r24	; 15
    19ba:	77 9b       	sbis	0x0e, 7	; 14
    19bc:	fe cf       	rjmp	.-4      	; 0x19ba <rf_tx_packet+0x204>
    19be:	c0 9a       	sbi	0x18, 0	; 24
    19c0:	c0 98       	cbi	0x18, 0	; 24
    19c2:	1f b8       	out	0x0f, r1	; 15
    19c4:	77 9b       	sbis	0x0e, 7	; 14
    19c6:	fe cf       	rjmp	.-4      	; 0x19c4 <rf_tx_packet+0x20e>
    19c8:	8f b1       	in	r24, 0x0f	; 15
    19ca:	c0 9a       	sbi	0x18, 0	; 24
    19cc:	81 ff       	sbrs	r24, 1
    19ce:	f8 cf       	rjmp	.-16     	; 0x19c0 <rf_tx_packet+0x20a>
    19d0:	10 e0       	ldi	r17, 0x00	; 0
    19d2:	05 e0       	ldi	r16, 0x05	; 5
    19d4:	c0 98       	cbi	0x18, 0	; 24
    19d6:	0f b9       	out	0x0f, r16	; 15
    19d8:	77 9b       	sbis	0x0e, 7	; 14
    19da:	fe cf       	rjmp	.-4      	; 0x19d8 <rf_tx_packet+0x222>
    19dc:	c0 9a       	sbi	0x18, 0	; 24
    19de:	c0 98       	cbi	0x18, 0	; 24
    19e0:	1f b8       	out	0x0f, r1	; 15
    19e2:	77 9b       	sbis	0x0e, 7	; 14
    19e4:	fe cf       	rjmp	.-4      	; 0x19e2 <rf_tx_packet+0x22c>
    19e6:	ff b0       	in	r15, 0x0f	; 15
    19e8:	c0 9a       	sbi	0x18, 0	; 24
    19ea:	1f 5f       	subi	r17, 0xFF	; 255
    19ec:	15 36       	cpi	r17, 0x65	; 101
    19ee:	49 f4       	brne	.+18     	; 0x1a02 <rf_tx_packet+0x24c>
    19f0:	78 94       	sei
    19f2:	80 91 a9 06 	lds	r24, 0x06A9
    19f6:	90 91 aa 06 	lds	r25, 0x06AA
    19fa:	0e 94 a8 21 	call	0x4350	; 0x4350 <nrk_sem_post>
    19fe:	80 e0       	ldi	r24, 0x00	; 0
    1a00:	43 c0       	rjmp	.+134    	; 0x1a88 <rf_tx_packet+0x2d2>
    1a02:	84 e6       	ldi	r24, 0x64	; 100
    1a04:	90 e0       	ldi	r25, 0x00	; 0
    1a06:	0e 94 a2 12 	call	0x2544	; 0x2544 <halWait>
    1a0a:	f3 fe       	sbrs	r15, 3
    1a0c:	e3 cf       	rjmp	.-58     	; 0x19d4 <rf_tx_packet+0x21e>
    1a0e:	06 c0       	rjmp	.+12     	; 0x1a1c <rf_tx_packet+0x266>
    1a10:	c0 98       	cbi	0x18, 0	; 24
    1a12:	84 e0       	ldi	r24, 0x04	; 4
    1a14:	8f b9       	out	0x0f, r24	; 15
    1a16:	77 9b       	sbis	0x0e, 7	; 14
    1a18:	fe cf       	rjmp	.-4      	; 0x1a16 <rf_tx_packet+0x260>
    1a1a:	c0 9a       	sbi	0x18, 0	; 24
    1a1c:	78 94       	sei
    1a1e:	84 9b       	sbis	0x10, 4	; 16
    1a20:	fe cf       	rjmp	.-4      	; 0x1a1e <rf_tx_packet+0x268>
    1a22:	84 99       	sbic	0x10, 4	; 16
    1a24:	fe cf       	rjmp	.-4      	; 0x1a22 <rf_tx_packet+0x26c>
    1a26:	80 91 b9 06 	lds	r24, 0x06B9
    1a2a:	88 23       	and	r24, r24
    1a2c:	f9 f0       	breq	.+62     	; 0x1a6c <rf_tx_packet+0x2b6>
    1a2e:	84 ea       	ldi	r24, 0xA4	; 164
    1a30:	92 e0       	ldi	r25, 0x02	; 2
    1a32:	0e 94 a2 12 	call	0x2544	; 0x2544 <halWait>
    1a36:	b7 9b       	sbis	0x16, 7	; 22
    1a38:	0b c0       	rjmp	.+22     	; 0x1a50 <rf_tx_packet+0x29a>
    1a3a:	c0 98       	cbi	0x18, 0	; 24
    1a3c:	8f e7       	ldi	r24, 0x7F	; 127
    1a3e:	8f b9       	out	0x0f, r24	; 15
    1a40:	77 9b       	sbis	0x0e, 7	; 14
    1a42:	fe cf       	rjmp	.-4      	; 0x1a40 <rf_tx_packet+0x28a>
    1a44:	1f b8       	out	0x0f, r1	; 15
    1a46:	77 9b       	sbis	0x0e, 7	; 14
    1a48:	fe cf       	rjmp	.-4      	; 0x1a46 <rf_tx_packet+0x290>
    1a4a:	8f b1       	in	r24, 0x0f	; 15
    1a4c:	c0 9a       	sbi	0x18, 0	; 24
    1a4e:	0e c0       	rjmp	.+28     	; 0x1a6c <rf_tx_packet+0x2b6>
    1a50:	c0 98       	cbi	0x18, 0	; 24
    1a52:	88 e0       	ldi	r24, 0x08	; 8
    1a54:	8f b9       	out	0x0f, r24	; 15
    1a56:	77 9b       	sbis	0x0e, 7	; 14
    1a58:	fe cf       	rjmp	.-4      	; 0x1a56 <rf_tx_packet+0x2a0>
    1a5a:	c0 9a       	sbi	0x18, 0	; 24
    1a5c:	c0 98       	cbi	0x18, 0	; 24
    1a5e:	88 e0       	ldi	r24, 0x08	; 8
    1a60:	8f b9       	out	0x0f, r24	; 15
    1a62:	77 9b       	sbis	0x0e, 7	; 14
    1a64:	fe cf       	rjmp	.-4      	; 0x1a62 <rf_tx_packet+0x2ac>
    1a66:	c0 9a       	sbi	0x18, 0	; 24
    1a68:	80 e0       	ldi	r24, 0x00	; 0
    1a6a:	01 c0       	rjmp	.+2      	; 0x1a6e <rf_tx_packet+0x2b8>
    1a6c:	81 e0       	ldi	r24, 0x01	; 1
    1a6e:	f8 94       	cli
    1a70:	c0 98       	cbi	0x18, 0	; 24
    1a72:	96 e0       	ldi	r25, 0x06	; 6
    1a74:	9f b9       	out	0x0f, r25	; 15
    1a76:	77 9b       	sbis	0x0e, 7	; 14
    1a78:	fe cf       	rjmp	.-4      	; 0x1a76 <rf_tx_packet+0x2c0>
    1a7a:	c0 9a       	sbi	0x18, 0	; 24
    1a7c:	78 94       	sei
    1a7e:	90 91 b0 06 	lds	r25, 0x06B0
    1a82:	9f 5f       	subi	r25, 0xFF	; 255
    1a84:	90 93 b0 06 	sts	0x06B0, r25
    1a88:	0f 90       	pop	r0
    1a8a:	0f 90       	pop	r0
    1a8c:	cf 91       	pop	r28
    1a8e:	df 91       	pop	r29
    1a90:	1f 91       	pop	r17
    1a92:	0f 91       	pop	r16
    1a94:	ff 90       	pop	r15
    1a96:	08 95       	ret

00001a98 <rf_busy>:
    1a98:	81 e0       	ldi	r24, 0x01	; 1
    1a9a:	84 9b       	sbis	0x10, 4	; 16
    1a9c:	80 e0       	ldi	r24, 0x00	; 0
    1a9e:	08 95       	ret

00001aa0 <rf_rx_check_fifop>:
    1aa0:	81 e0       	ldi	r24, 0x01	; 1
    1aa2:	0e 9b       	sbis	0x01, 6	; 1
    1aa4:	80 e0       	ldi	r24, 0x00	; 0
    1aa6:	08 95       	ret

00001aa8 <rf_rx_check_sfd>:
    1aa8:	81 e0       	ldi	r24, 0x01	; 1
    1aaa:	84 9b       	sbis	0x10, 4	; 16
    1aac:	80 e0       	ldi	r24, 0x00	; 0
    1aae:	08 95       	ret

00001ab0 <rf_polling_rx_packet>:
    1ab0:	df 93       	push	r29
    1ab2:	cf 93       	push	r28
    1ab4:	00 d0       	rcall	.+0      	; 0x1ab6 <rf_polling_rx_packet+0x6>
    1ab6:	00 d0       	rcall	.+0      	; 0x1ab8 <rf_polling_rx_packet+0x8>
    1ab8:	cd b7       	in	r28, 0x3d	; 61
    1aba:	de b7       	in	r29, 0x3e	; 62
    1abc:	0e 9b       	sbis	0x01, 6	; 1
    1abe:	c7 c1       	rjmp	.+910    	; 0x1e4e <rf_polling_rx_packet+0x39e>
    1ac0:	10 92 ba 06 	sts	0x06BA, r1
    1ac4:	0e 9b       	sbis	0x01, 6	; 1
    1ac6:	1a c0       	rjmp	.+52     	; 0x1afc <rf_polling_rx_packet+0x4c>
    1ac8:	b7 99       	sbic	0x16, 7	; 22
    1aca:	18 c0       	rjmp	.+48     	; 0x1afc <rf_polling_rx_packet+0x4c>
    1acc:	c0 98       	cbi	0x18, 0	; 24
    1ace:	8f e7       	ldi	r24, 0x7F	; 127
    1ad0:	8f b9       	out	0x0f, r24	; 15
    1ad2:	77 9b       	sbis	0x0e, 7	; 14
    1ad4:	fe cf       	rjmp	.-4      	; 0x1ad2 <rf_polling_rx_packet+0x22>
    1ad6:	1f b8       	out	0x0f, r1	; 15
    1ad8:	77 9b       	sbis	0x0e, 7	; 14
    1ada:	fe cf       	rjmp	.-4      	; 0x1ad8 <rf_polling_rx_packet+0x28>
    1adc:	8f b1       	in	r24, 0x0f	; 15
    1ade:	c0 9a       	sbi	0x18, 0	; 24
    1ae0:	c0 98       	cbi	0x18, 0	; 24
    1ae2:	88 e0       	ldi	r24, 0x08	; 8
    1ae4:	8f b9       	out	0x0f, r24	; 15
    1ae6:	77 9b       	sbis	0x0e, 7	; 14
    1ae8:	fe cf       	rjmp	.-4      	; 0x1ae6 <rf_polling_rx_packet+0x36>
    1aea:	c0 9a       	sbi	0x18, 0	; 24
    1aec:	c0 98       	cbi	0x18, 0	; 24
    1aee:	88 e0       	ldi	r24, 0x08	; 8
    1af0:	8f b9       	out	0x0f, r24	; 15
    1af2:	77 9b       	sbis	0x0e, 7	; 14
    1af4:	fe cf       	rjmp	.-4      	; 0x1af2 <rf_polling_rx_packet+0x42>
    1af6:	c0 9a       	sbi	0x18, 0	; 24
    1af8:	8f ef       	ldi	r24, 0xFF	; 255
    1afa:	aa c1       	rjmp	.+852    	; 0x1e50 <rf_polling_rx_packet+0x3a0>
    1afc:	c0 98       	cbi	0x18, 0	; 24
    1afe:	8f e7       	ldi	r24, 0x7F	; 127
    1b00:	8f b9       	out	0x0f, r24	; 15
    1b02:	77 9b       	sbis	0x0e, 7	; 14
    1b04:	fe cf       	rjmp	.-4      	; 0x1b02 <rf_polling_rx_packet+0x52>
    1b06:	1f b8       	out	0x0f, r1	; 15
    1b08:	77 9b       	sbis	0x0e, 7	; 14
    1b0a:	fe cf       	rjmp	.-4      	; 0x1b08 <rf_polling_rx_packet+0x58>
    1b0c:	4f b1       	in	r20, 0x0f	; 15
    1b0e:	c0 9a       	sbi	0x18, 0	; 24
    1b10:	4f 77       	andi	r20, 0x7F	; 127
    1b12:	c1 f4       	brne	.+48     	; 0x1b44 <rf_polling_rx_packet+0x94>
    1b14:	c0 98       	cbi	0x18, 0	; 24
    1b16:	8f e7       	ldi	r24, 0x7F	; 127
    1b18:	8f b9       	out	0x0f, r24	; 15
    1b1a:	77 9b       	sbis	0x0e, 7	; 14
    1b1c:	fe cf       	rjmp	.-4      	; 0x1b1a <rf_polling_rx_packet+0x6a>
    1b1e:	1f b8       	out	0x0f, r1	; 15
    1b20:	77 9b       	sbis	0x0e, 7	; 14
    1b22:	fe cf       	rjmp	.-4      	; 0x1b20 <rf_polling_rx_packet+0x70>
    1b24:	8f b1       	in	r24, 0x0f	; 15
    1b26:	c0 9a       	sbi	0x18, 0	; 24
    1b28:	c0 98       	cbi	0x18, 0	; 24
    1b2a:	88 e0       	ldi	r24, 0x08	; 8
    1b2c:	8f b9       	out	0x0f, r24	; 15
    1b2e:	77 9b       	sbis	0x0e, 7	; 14
    1b30:	fe cf       	rjmp	.-4      	; 0x1b2e <rf_polling_rx_packet+0x7e>
    1b32:	c0 9a       	sbi	0x18, 0	; 24
    1b34:	c0 98       	cbi	0x18, 0	; 24
    1b36:	88 e0       	ldi	r24, 0x08	; 8
    1b38:	8f b9       	out	0x0f, r24	; 15
    1b3a:	77 9b       	sbis	0x0e, 7	; 14
    1b3c:	fe cf       	rjmp	.-4      	; 0x1b3a <rf_polling_rx_packet+0x8a>
    1b3e:	c0 9a       	sbi	0x18, 0	; 24
    1b40:	8e ef       	ldi	r24, 0xFE	; 254
    1b42:	86 c1       	rjmp	.+780    	; 0x1e50 <rf_polling_rx_packet+0x3a0>
    1b44:	4c 30       	cpi	r20, 0x0C	; 12
    1b46:	84 f0       	brlt	.+32     	; 0x1b68 <rf_polling_rx_packet+0xb8>
    1b48:	e0 91 ae 06 	lds	r30, 0x06AE
    1b4c:	f0 91 af 06 	lds	r31, 0x06AF
    1b50:	84 2f       	mov	r24, r20
    1b52:	99 27       	eor	r25, r25
    1b54:	87 fd       	sbrc	r24, 7
    1b56:	90 95       	com	r25
    1b58:	0b 97       	sbiw	r24, 0x0b	; 11
    1b5a:	24 81       	ldd	r18, Z+4	; 0x04
    1b5c:	33 27       	eor	r19, r19
    1b5e:	27 fd       	sbrc	r18, 7
    1b60:	30 95       	com	r19
    1b62:	28 17       	cp	r18, r24
    1b64:	39 07       	cpc	r19, r25
    1b66:	7c f5       	brge	.+94     	; 0x1bc6 <rf_polling_rx_packet+0x116>
    1b68:	c0 98       	cbi	0x18, 0	; 24
    1b6a:	8f e7       	ldi	r24, 0x7F	; 127
    1b6c:	8f b9       	out	0x0f, r24	; 15
    1b6e:	77 9b       	sbis	0x0e, 7	; 14
    1b70:	fe cf       	rjmp	.-4      	; 0x1b6e <rf_polling_rx_packet+0xbe>
    1b72:	50 e0       	ldi	r21, 0x00	; 0
    1b74:	84 2f       	mov	r24, r20
    1b76:	99 27       	eor	r25, r25
    1b78:	87 fd       	sbrc	r24, 7
    1b7a:	90 95       	com	r25
    1b7c:	04 c0       	rjmp	.+8      	; 0x1b86 <rf_polling_rx_packet+0xd6>
    1b7e:	1f b8       	out	0x0f, r1	; 15
    1b80:	77 9b       	sbis	0x0e, 7	; 14
    1b82:	fe cf       	rjmp	.-4      	; 0x1b80 <rf_polling_rx_packet+0xd0>
    1b84:	5f 5f       	subi	r21, 0xFF	; 255
    1b86:	25 2f       	mov	r18, r21
    1b88:	30 e0       	ldi	r19, 0x00	; 0
    1b8a:	28 17       	cp	r18, r24
    1b8c:	39 07       	cpc	r19, r25
    1b8e:	14 f4       	brge	.+4      	; 0x1b94 <rf_polling_rx_packet+0xe4>
    1b90:	b7 99       	sbic	0x16, 7	; 22
    1b92:	f5 cf       	rjmp	.-22     	; 0x1b7e <rf_polling_rx_packet+0xce>
    1b94:	c0 9a       	sbi	0x18, 0	; 24
    1b96:	c0 98       	cbi	0x18, 0	; 24
    1b98:	8f e7       	ldi	r24, 0x7F	; 127
    1b9a:	8f b9       	out	0x0f, r24	; 15
    1b9c:	77 9b       	sbis	0x0e, 7	; 14
    1b9e:	fe cf       	rjmp	.-4      	; 0x1b9c <rf_polling_rx_packet+0xec>
    1ba0:	1f b8       	out	0x0f, r1	; 15
    1ba2:	77 9b       	sbis	0x0e, 7	; 14
    1ba4:	fe cf       	rjmp	.-4      	; 0x1ba2 <rf_polling_rx_packet+0xf2>
    1ba6:	8f b1       	in	r24, 0x0f	; 15
    1ba8:	c0 9a       	sbi	0x18, 0	; 24
    1baa:	c0 98       	cbi	0x18, 0	; 24
    1bac:	88 e0       	ldi	r24, 0x08	; 8
    1bae:	8f b9       	out	0x0f, r24	; 15
    1bb0:	77 9b       	sbis	0x0e, 7	; 14
    1bb2:	fe cf       	rjmp	.-4      	; 0x1bb0 <rf_polling_rx_packet+0x100>
    1bb4:	c0 9a       	sbi	0x18, 0	; 24
    1bb6:	c0 98       	cbi	0x18, 0	; 24
    1bb8:	88 e0       	ldi	r24, 0x08	; 8
    1bba:	8f b9       	out	0x0f, r24	; 15
    1bbc:	77 9b       	sbis	0x0e, 7	; 14
    1bbe:	fe cf       	rjmp	.-4      	; 0x1bbc <rf_polling_rx_packet+0x10c>
    1bc0:	c0 9a       	sbi	0x18, 0	; 24
    1bc2:	8d ef       	ldi	r24, 0xFD	; 253
    1bc4:	45 c1       	rjmp	.+650    	; 0x1e50 <rf_polling_rx_packet+0x3a0>
    1bc6:	e0 91 ae 06 	lds	r30, 0x06AE
    1bca:	f0 91 af 06 	lds	r31, 0x06AF
    1bce:	4c 50       	subi	r20, 0x0C	; 12
    1bd0:	43 83       	std	Z+3, r20	; 0x03
    1bd2:	c0 98       	cbi	0x18, 0	; 24
    1bd4:	8f e7       	ldi	r24, 0x7F	; 127
    1bd6:	8f b9       	out	0x0f, r24	; 15
    1bd8:	77 9b       	sbis	0x0e, 7	; 14
    1bda:	fe cf       	rjmp	.-4      	; 0x1bd8 <rf_polling_rx_packet+0x128>
    1bdc:	fe 01       	movw	r30, r28
    1bde:	31 96       	adiw	r30, 0x01	; 1
    1be0:	ce 01       	movw	r24, r28
    1be2:	03 96       	adiw	r24, 0x03	; 3
    1be4:	1f b8       	out	0x0f, r1	; 15
    1be6:	77 9b       	sbis	0x0e, 7	; 14
    1be8:	fe cf       	rjmp	.-4      	; 0x1be6 <rf_polling_rx_packet+0x136>
    1bea:	2f b1       	in	r18, 0x0f	; 15
    1bec:	21 93       	st	Z+, r18
    1bee:	e8 17       	cp	r30, r24
    1bf0:	f9 07       	cpc	r31, r25
    1bf2:	c1 f7       	brne	.-16     	; 0x1be4 <rf_polling_rx_packet+0x134>
    1bf4:	c0 9a       	sbi	0x18, 0	; 24
    1bf6:	e0 91 ae 06 	lds	r30, 0x06AE
    1bfa:	f0 91 af 06 	lds	r31, 0x06AF
    1bfe:	99 81       	ldd	r25, Y+1	; 0x01
    1c00:	81 e0       	ldi	r24, 0x01	; 1
    1c02:	95 ff       	sbrs	r25, 5
    1c04:	80 e0       	ldi	r24, 0x00	; 0
    1c06:	87 83       	std	Z+7, r24	; 0x07
    1c08:	c0 98       	cbi	0x18, 0	; 24
    1c0a:	8f e7       	ldi	r24, 0x7F	; 127
    1c0c:	8f b9       	out	0x0f, r24	; 15
    1c0e:	77 9b       	sbis	0x0e, 7	; 14
    1c10:	fe cf       	rjmp	.-4      	; 0x1c0e <rf_polling_rx_packet+0x15e>
    1c12:	1f b8       	out	0x0f, r1	; 15
    1c14:	77 9b       	sbis	0x0e, 7	; 14
    1c16:	fe cf       	rjmp	.-4      	; 0x1c14 <rf_polling_rx_packet+0x164>
    1c18:	e0 91 ae 06 	lds	r30, 0x06AE
    1c1c:	f0 91 af 06 	lds	r31, 0x06AF
    1c20:	8f b1       	in	r24, 0x0f	; 15
    1c22:	80 83       	st	Z, r24
    1c24:	c0 9a       	sbi	0x18, 0	; 24
    1c26:	c0 98       	cbi	0x18, 0	; 24
    1c28:	8f e7       	ldi	r24, 0x7F	; 127
    1c2a:	8f b9       	out	0x0f, r24	; 15
    1c2c:	77 9b       	sbis	0x0e, 7	; 14
    1c2e:	fe cf       	rjmp	.-4      	; 0x1c2c <rf_polling_rx_packet+0x17c>
    1c30:	84 e0       	ldi	r24, 0x04	; 4
    1c32:	05 c0       	rjmp	.+10     	; 0x1c3e <rf_polling_rx_packet+0x18e>
    1c34:	1f b8       	out	0x0f, r1	; 15
    1c36:	77 9b       	sbis	0x0e, 7	; 14
    1c38:	fe cf       	rjmp	.-4      	; 0x1c36 <rf_polling_rx_packet+0x186>
    1c3a:	81 50       	subi	r24, 0x01	; 1
    1c3c:	11 f0       	breq	.+4      	; 0x1c42 <rf_polling_rx_packet+0x192>
    1c3e:	b7 99       	sbic	0x16, 7	; 22
    1c40:	f9 cf       	rjmp	.-14     	; 0x1c34 <rf_polling_rx_packet+0x184>
    1c42:	c0 9a       	sbi	0x18, 0	; 24
    1c44:	c0 98       	cbi	0x18, 0	; 24
    1c46:	8f e7       	ldi	r24, 0x7F	; 127
    1c48:	8f b9       	out	0x0f, r24	; 15
    1c4a:	77 9b       	sbis	0x0e, 7	; 14
    1c4c:	fe cf       	rjmp	.-4      	; 0x1c4a <rf_polling_rx_packet+0x19a>
    1c4e:	80 e0       	ldi	r24, 0x00	; 0
    1c50:	90 e0       	ldi	r25, 0x00	; 0
    1c52:	1f b8       	out	0x0f, r1	; 15
    1c54:	77 9b       	sbis	0x0e, 7	; 14
    1c56:	fe cf       	rjmp	.-4      	; 0x1c54 <rf_polling_rx_packet+0x1a4>
    1c58:	e0 91 ae 06 	lds	r30, 0x06AE
    1c5c:	f0 91 af 06 	lds	r31, 0x06AF
    1c60:	2f b1       	in	r18, 0x0f	; 15
    1c62:	e8 0f       	add	r30, r24
    1c64:	f9 1f       	adc	r31, r25
    1c66:	21 83       	std	Z+1, r18	; 0x01
    1c68:	01 96       	adiw	r24, 0x01	; 1
    1c6a:	82 30       	cpi	r24, 0x02	; 2
    1c6c:	91 05       	cpc	r25, r1
    1c6e:	89 f7       	brne	.-30     	; 0x1c52 <rf_polling_rx_packet+0x1a2>
    1c70:	c0 9a       	sbi	0x18, 0	; 24
    1c72:	89 81       	ldd	r24, Y+1	; 0x01
    1c74:	83 ff       	sbrs	r24, 3
    1c76:	4d c0       	rjmp	.+154    	; 0x1d12 <rf_polling_rx_packet+0x262>
    1c78:	c0 98       	cbi	0x18, 0	; 24
    1c7a:	8f e7       	ldi	r24, 0x7F	; 127
    1c7c:	8f b9       	out	0x0f, r24	; 15
    1c7e:	77 9b       	sbis	0x0e, 7	; 14
    1c80:	fe cf       	rjmp	.-4      	; 0x1c7e <rf_polling_rx_packet+0x1ce>
    1c82:	e5 ea       	ldi	r30, 0xA5	; 165
    1c84:	f6 e0       	ldi	r31, 0x06	; 6
    1c86:	1f b8       	out	0x0f, r1	; 15
    1c88:	77 9b       	sbis	0x0e, 7	; 14
    1c8a:	fe cf       	rjmp	.-4      	; 0x1c88 <rf_polling_rx_packet+0x1d8>
    1c8c:	8f b1       	in	r24, 0x0f	; 15
    1c8e:	81 93       	st	Z+, r24
    1c90:	86 e0       	ldi	r24, 0x06	; 6
    1c92:	e9 3a       	cpi	r30, 0xA9	; 169
    1c94:	f8 07       	cpc	r31, r24
    1c96:	b9 f7       	brne	.-18     	; 0x1c86 <rf_polling_rx_packet+0x1d6>
    1c98:	c0 9a       	sbi	0x18, 0	; 24
    1c9a:	c0 98       	cbi	0x18, 0	; 24
    1c9c:	89 e9       	ldi	r24, 0x99	; 153
    1c9e:	8f b9       	out	0x0f, r24	; 15
    1ca0:	77 9b       	sbis	0x0e, 7	; 14
    1ca2:	fe cf       	rjmp	.-4      	; 0x1ca0 <rf_polling_rx_packet+0x1f0>
    1ca4:	80 e8       	ldi	r24, 0x80	; 128
    1ca6:	8f b9       	out	0x0f, r24	; 15
    1ca8:	77 9b       	sbis	0x0e, 7	; 14
    1caa:	fe cf       	rjmp	.-4      	; 0x1ca8 <rf_polling_rx_packet+0x1f8>
    1cac:	82 e0       	ldi	r24, 0x02	; 2
    1cae:	81 50       	subi	r24, 0x01	; 1
    1cb0:	e8 2f       	mov	r30, r24
    1cb2:	f0 e0       	ldi	r31, 0x00	; 0
    1cb4:	eb 55       	subi	r30, 0x5B	; 91
    1cb6:	f9 4f       	sbci	r31, 0xF9	; 249
    1cb8:	90 81       	ld	r25, Z
    1cba:	9f b9       	out	0x0f, r25	; 15
    1cbc:	77 9b       	sbis	0x0e, 7	; 14
    1cbe:	fe cf       	rjmp	.-4      	; 0x1cbc <rf_polling_rx_packet+0x20c>
    1cc0:	88 23       	and	r24, r24
    1cc2:	a9 f7       	brne	.-22     	; 0x1cae <rf_polling_rx_packet+0x1fe>
    1cc4:	c0 9a       	sbi	0x18, 0	; 24
    1cc6:	c0 98       	cbi	0x18, 0	; 24
    1cc8:	8b e9       	ldi	r24, 0x9B	; 155
    1cca:	8f b9       	out	0x0f, r24	; 15
    1ccc:	77 9b       	sbis	0x0e, 7	; 14
    1cce:	fe cf       	rjmp	.-4      	; 0x1ccc <rf_polling_rx_packet+0x21c>
    1cd0:	80 e8       	ldi	r24, 0x80	; 128
    1cd2:	8f b9       	out	0x0f, r24	; 15
    1cd4:	77 9b       	sbis	0x0e, 7	; 14
    1cd6:	fe cf       	rjmp	.-4      	; 0x1cd4 <rf_polling_rx_packet+0x224>
    1cd8:	82 e0       	ldi	r24, 0x02	; 2
    1cda:	81 50       	subi	r24, 0x01	; 1
    1cdc:	e8 2f       	mov	r30, r24
    1cde:	f0 e0       	ldi	r31, 0x00	; 0
    1ce0:	e9 55       	subi	r30, 0x59	; 89
    1ce2:	f9 4f       	sbci	r31, 0xF9	; 249
    1ce4:	90 81       	ld	r25, Z
    1ce6:	9f b9       	out	0x0f, r25	; 15
    1ce8:	77 9b       	sbis	0x0e, 7	; 14
    1cea:	fe cf       	rjmp	.-4      	; 0x1ce8 <rf_polling_rx_packet+0x238>
    1cec:	88 23       	and	r24, r24
    1cee:	a9 f7       	brne	.-22     	; 0x1cda <rf_polling_rx_packet+0x22a>
    1cf0:	c0 9a       	sbi	0x18, 0	; 24
    1cf2:	c0 98       	cbi	0x18, 0	; 24
    1cf4:	8c e0       	ldi	r24, 0x0C	; 12
    1cf6:	8f b9       	out	0x0f, r24	; 15
    1cf8:	77 9b       	sbis	0x0e, 7	; 14
    1cfa:	fe cf       	rjmp	.-4      	; 0x1cf8 <rf_polling_rx_packet+0x248>
    1cfc:	c0 9a       	sbi	0x18, 0	; 24
    1cfe:	81 e0       	ldi	r24, 0x01	; 1
    1d00:	80 93 ba 06 	sts	0x06BA, r24
    1d04:	e0 91 ae 06 	lds	r30, 0x06AE
    1d08:	f0 91 af 06 	lds	r31, 0x06AF
    1d0c:	83 81       	ldd	r24, Z+3	; 0x03
    1d0e:	84 50       	subi	r24, 0x04	; 4
    1d10:	83 83       	std	Z+3, r24	; 0x03
    1d12:	c0 98       	cbi	0x18, 0	; 24
    1d14:	8f e7       	ldi	r24, 0x7F	; 127
    1d16:	8f b9       	out	0x0f, r24	; 15
    1d18:	77 9b       	sbis	0x0e, 7	; 14
    1d1a:	fe cf       	rjmp	.-4      	; 0x1d18 <rf_polling_rx_packet+0x268>
    1d1c:	40 e0       	ldi	r20, 0x00	; 0
    1d1e:	0f c0       	rjmp	.+30     	; 0x1d3e <rf_polling_rx_packet+0x28e>
    1d20:	1f b8       	out	0x0f, r1	; 15
    1d22:	77 9b       	sbis	0x0e, 7	; 14
    1d24:	fe cf       	rjmp	.-4      	; 0x1d22 <rf_polling_rx_packet+0x272>
    1d26:	e0 91 ae 06 	lds	r30, 0x06AE
    1d2a:	f0 91 af 06 	lds	r31, 0x06AF
    1d2e:	8f b1       	in	r24, 0x0f	; 15
    1d30:	05 80       	ldd	r0, Z+5	; 0x05
    1d32:	f6 81       	ldd	r31, Z+6	; 0x06
    1d34:	e0 2d       	mov	r30, r0
    1d36:	e4 0f       	add	r30, r20
    1d38:	f1 1d       	adc	r31, r1
    1d3a:	80 83       	st	Z, r24
    1d3c:	4f 5f       	subi	r20, 0xFF	; 255
    1d3e:	e0 91 ae 06 	lds	r30, 0x06AE
    1d42:	f0 91 af 06 	lds	r31, 0x06AF
    1d46:	24 2f       	mov	r18, r20
    1d48:	30 e0       	ldi	r19, 0x00	; 0
    1d4a:	83 81       	ldd	r24, Z+3	; 0x03
    1d4c:	99 27       	eor	r25, r25
    1d4e:	87 fd       	sbrc	r24, 7
    1d50:	90 95       	com	r25
    1d52:	28 17       	cp	r18, r24
    1d54:	39 07       	cpc	r19, r25
    1d56:	24 f3       	brlt	.-56     	; 0x1d20 <rf_polling_rx_packet+0x270>
    1d58:	c0 9a       	sbi	0x18, 0	; 24
    1d5a:	c0 98       	cbi	0x18, 0	; 24
    1d5c:	8f e7       	ldi	r24, 0x7F	; 127
    1d5e:	8f b9       	out	0x0f, r24	; 15
    1d60:	77 9b       	sbis	0x0e, 7	; 14
    1d62:	fe cf       	rjmp	.-4      	; 0x1d60 <rf_polling_rx_packet+0x2b0>
    1d64:	1f b8       	out	0x0f, r1	; 15
    1d66:	77 9b       	sbis	0x0e, 7	; 14
    1d68:	fe cf       	rjmp	.-4      	; 0x1d66 <rf_polling_rx_packet+0x2b6>
    1d6a:	6f b1       	in	r22, 0x0f	; 15
    1d6c:	c0 9a       	sbi	0x18, 0	; 24
    1d6e:	c0 98       	cbi	0x18, 0	; 24
    1d70:	8f e7       	ldi	r24, 0x7F	; 127
    1d72:	8f b9       	out	0x0f, r24	; 15
    1d74:	77 9b       	sbis	0x0e, 7	; 14
    1d76:	fe cf       	rjmp	.-4      	; 0x1d74 <rf_polling_rx_packet+0x2c4>
    1d78:	fe 01       	movw	r30, r28
    1d7a:	33 96       	adiw	r30, 0x03	; 3
    1d7c:	ce 01       	movw	r24, r28
    1d7e:	05 96       	adiw	r24, 0x05	; 5
    1d80:	1f b8       	out	0x0f, r1	; 15
    1d82:	77 9b       	sbis	0x0e, 7	; 14
    1d84:	fe cf       	rjmp	.-4      	; 0x1d82 <rf_polling_rx_packet+0x2d2>
    1d86:	2f b1       	in	r18, 0x0f	; 15
    1d88:	21 93       	st	Z+, r18
    1d8a:	e8 17       	cp	r30, r24
    1d8c:	f9 07       	cpc	r31, r25
    1d8e:	c1 f7       	brne	.-16     	; 0x1d80 <rf_polling_rx_packet+0x2d0>
    1d90:	c0 9a       	sbi	0x18, 0	; 24
    1d92:	e0 91 ae 06 	lds	r30, 0x06AE
    1d96:	f0 91 af 06 	lds	r31, 0x06AF
    1d9a:	8b 81       	ldd	r24, Y+3	; 0x03
    1d9c:	80 87       	std	Z+8, r24	; 0x08
    1d9e:	50 e0       	ldi	r21, 0x00	; 0
    1da0:	40 e0       	ldi	r20, 0x00	; 0
    1da2:	0c c0       	rjmp	.+24     	; 0x1dbc <rf_polling_rx_packet+0x30c>
    1da4:	e0 91 ae 06 	lds	r30, 0x06AE
    1da8:	f0 91 af 06 	lds	r31, 0x06AF
    1dac:	05 80       	ldd	r0, Z+5	; 0x05
    1dae:	f6 81       	ldd	r31, Z+6	; 0x06
    1db0:	e0 2d       	mov	r30, r0
    1db2:	e8 0f       	add	r30, r24
    1db4:	f9 1f       	adc	r31, r25
    1db6:	80 81       	ld	r24, Z
    1db8:	48 0f       	add	r20, r24
    1dba:	5f 5f       	subi	r21, 0xFF	; 255
    1dbc:	e0 91 ae 06 	lds	r30, 0x06AE
    1dc0:	f0 91 af 06 	lds	r31, 0x06AF
    1dc4:	85 2f       	mov	r24, r21
    1dc6:	90 e0       	ldi	r25, 0x00	; 0
    1dc8:	23 81       	ldd	r18, Z+3	; 0x03
    1dca:	33 27       	eor	r19, r19
    1dcc:	27 fd       	sbrc	r18, 7
    1dce:	30 95       	com	r19
    1dd0:	82 17       	cp	r24, r18
    1dd2:	93 07       	cpc	r25, r19
    1dd4:	3c f3       	brlt	.-50     	; 0x1da4 <rf_polling_rx_packet+0x2f4>
    1dd6:	46 17       	cp	r20, r22
    1dd8:	c1 f0       	breq	.+48     	; 0x1e0a <rf_polling_rx_packet+0x35a>
    1dda:	c0 98       	cbi	0x18, 0	; 24
    1ddc:	8f e7       	ldi	r24, 0x7F	; 127
    1dde:	8f b9       	out	0x0f, r24	; 15
    1de0:	77 9b       	sbis	0x0e, 7	; 14
    1de2:	fe cf       	rjmp	.-4      	; 0x1de0 <rf_polling_rx_packet+0x330>
    1de4:	1f b8       	out	0x0f, r1	; 15
    1de6:	77 9b       	sbis	0x0e, 7	; 14
    1de8:	fe cf       	rjmp	.-4      	; 0x1de6 <rf_polling_rx_packet+0x336>
    1dea:	8f b1       	in	r24, 0x0f	; 15
    1dec:	c0 9a       	sbi	0x18, 0	; 24
    1dee:	c0 98       	cbi	0x18, 0	; 24
    1df0:	88 e0       	ldi	r24, 0x08	; 8
    1df2:	8f b9       	out	0x0f, r24	; 15
    1df4:	77 9b       	sbis	0x0e, 7	; 14
    1df6:	fe cf       	rjmp	.-4      	; 0x1df4 <rf_polling_rx_packet+0x344>
    1df8:	c0 9a       	sbi	0x18, 0	; 24
    1dfa:	c0 98       	cbi	0x18, 0	; 24
    1dfc:	88 e0       	ldi	r24, 0x08	; 8
    1dfe:	8f b9       	out	0x0f, r24	; 15
    1e00:	77 9b       	sbis	0x0e, 7	; 14
    1e02:	fe cf       	rjmp	.-4      	; 0x1e00 <rf_polling_rx_packet+0x350>
    1e04:	c0 9a       	sbi	0x18, 0	; 24
    1e06:	8c ef       	ldi	r24, 0xFC	; 252
    1e08:	23 c0       	rjmp	.+70     	; 0x1e50 <rf_polling_rx_packet+0x3a0>
    1e0a:	8c 81       	ldd	r24, Y+4	; 0x04
    1e0c:	87 ff       	sbrs	r24, 7
    1e0e:	07 c0       	rjmp	.+14     	; 0x1e1e <rf_polling_rx_packet+0x36e>
    1e10:	80 91 bf 06 	lds	r24, 0x06BF
    1e14:	8f 5f       	subi	r24, 0xFF	; 255
    1e16:	80 93 bf 06 	sts	0x06BF, r24
    1e1a:	81 e0       	ldi	r24, 0x01	; 1
    1e1c:	19 c0       	rjmp	.+50     	; 0x1e50 <rf_polling_rx_packet+0x3a0>
    1e1e:	c0 98       	cbi	0x18, 0	; 24
    1e20:	8f e7       	ldi	r24, 0x7F	; 127
    1e22:	8f b9       	out	0x0f, r24	; 15
    1e24:	77 9b       	sbis	0x0e, 7	; 14
    1e26:	fe cf       	rjmp	.-4      	; 0x1e24 <rf_polling_rx_packet+0x374>
    1e28:	1f b8       	out	0x0f, r1	; 15
    1e2a:	77 9b       	sbis	0x0e, 7	; 14
    1e2c:	fe cf       	rjmp	.-4      	; 0x1e2a <rf_polling_rx_packet+0x37a>
    1e2e:	8f b1       	in	r24, 0x0f	; 15
    1e30:	c0 9a       	sbi	0x18, 0	; 24
    1e32:	c0 98       	cbi	0x18, 0	; 24
    1e34:	88 e0       	ldi	r24, 0x08	; 8
    1e36:	8f b9       	out	0x0f, r24	; 15
    1e38:	77 9b       	sbis	0x0e, 7	; 14
    1e3a:	fe cf       	rjmp	.-4      	; 0x1e38 <rf_polling_rx_packet+0x388>
    1e3c:	c0 9a       	sbi	0x18, 0	; 24
    1e3e:	c0 98       	cbi	0x18, 0	; 24
    1e40:	88 e0       	ldi	r24, 0x08	; 8
    1e42:	8f b9       	out	0x0f, r24	; 15
    1e44:	77 9b       	sbis	0x0e, 7	; 14
    1e46:	fe cf       	rjmp	.-4      	; 0x1e44 <rf_polling_rx_packet+0x394>
    1e48:	c0 9a       	sbi	0x18, 0	; 24
    1e4a:	8b ef       	ldi	r24, 0xFB	; 251
    1e4c:	01 c0       	rjmp	.+2      	; 0x1e50 <rf_polling_rx_packet+0x3a0>
    1e4e:	80 e0       	ldi	r24, 0x00	; 0
    1e50:	0f 90       	pop	r0
    1e52:	0f 90       	pop	r0
    1e54:	0f 90       	pop	r0
    1e56:	0f 90       	pop	r0
    1e58:	cf 91       	pop	r28
    1e5a:	df 91       	pop	r29
    1e5c:	08 95       	ret

00001e5e <rf_rx_packet>:
    1e5e:	80 91 bf 06 	lds	r24, 0x06BF
    1e62:	88 23       	and	r24, r24
    1e64:	29 f0       	breq	.+10     	; 0x1e70 <rf_rx_packet+0x12>
    1e66:	80 91 bf 06 	lds	r24, 0x06BF
    1e6a:	10 92 bf 06 	sts	0x06BF, r1
    1e6e:	08 95       	ret
    1e70:	80 e0       	ldi	r24, 0x00	; 0
    1e72:	08 95       	ret

00001e74 <rf_flush_rx_fifo>:
    1e74:	c0 98       	cbi	0x18, 0	; 24
    1e76:	88 e0       	ldi	r24, 0x08	; 8
    1e78:	8f b9       	out	0x0f, r24	; 15
    1e7a:	77 9b       	sbis	0x0e, 7	; 14
    1e7c:	fe cf       	rjmp	.-4      	; 0x1e7a <rf_flush_rx_fifo+0x6>
    1e7e:	c0 9a       	sbi	0x18, 0	; 24
    1e80:	c0 98       	cbi	0x18, 0	; 24
    1e82:	88 e0       	ldi	r24, 0x08	; 8
    1e84:	8f b9       	out	0x0f, r24	; 15
    1e86:	77 9b       	sbis	0x0e, 7	; 14
    1e88:	fe cf       	rjmp	.-4      	; 0x1e86 <rf_flush_rx_fifo+0x12>
    1e8a:	c0 9a       	sbi	0x18, 0	; 24
    1e8c:	08 95       	ret

00001e8e <rf_set_cca_thresh>:
    1e8e:	99 27       	eor	r25, r25
    1e90:	87 fd       	sbrc	r24, 7
    1e92:	90 95       	com	r25
    1e94:	98 2f       	mov	r25, r24
    1e96:	88 27       	eor	r24, r24
    1e98:	80 68       	ori	r24, 0x80	; 128
    1e9a:	c0 98       	cbi	0x18, 0	; 24
    1e9c:	23 e1       	ldi	r18, 0x13	; 19
    1e9e:	2f b9       	out	0x0f, r18	; 15
    1ea0:	77 9b       	sbis	0x0e, 7	; 14
    1ea2:	fe cf       	rjmp	.-4      	; 0x1ea0 <rf_set_cca_thresh+0x12>
    1ea4:	9f b9       	out	0x0f, r25	; 15
    1ea6:	77 9b       	sbis	0x0e, 7	; 14
    1ea8:	fe cf       	rjmp	.-4      	; 0x1ea6 <rf_set_cca_thresh+0x18>
    1eaa:	8f b9       	out	0x0f, r24	; 15
    1eac:	77 9b       	sbis	0x0e, 7	; 14
    1eae:	fe cf       	rjmp	.-4      	; 0x1eac <rf_set_cca_thresh+0x1e>
    1eb0:	c0 9a       	sbi	0x18, 0	; 24
    1eb2:	08 95       	ret

00001eb4 <rf_test_mode>:
    1eb4:	c0 98       	cbi	0x18, 0	; 24
    1eb6:	86 e0       	ldi	r24, 0x06	; 6
    1eb8:	8f b9       	out	0x0f, r24	; 15
    1eba:	77 9b       	sbis	0x0e, 7	; 14
    1ebc:	fe cf       	rjmp	.-4      	; 0x1eba <rf_test_mode+0x6>
    1ebe:	c0 9a       	sbi	0x18, 0	; 24
    1ec0:	c0 98       	cbi	0x18, 0	; 24
    1ec2:	82 e1       	ldi	r24, 0x12	; 18
    1ec4:	8f b9       	out	0x0f, r24	; 15
    1ec6:	77 9b       	sbis	0x0e, 7	; 14
    1ec8:	fe cf       	rjmp	.-4      	; 0x1ec6 <rf_test_mode+0x12>
    1eca:	85 e0       	ldi	r24, 0x05	; 5
    1ecc:	8f b9       	out	0x0f, r24	; 15
    1ece:	77 9b       	sbis	0x0e, 7	; 14
    1ed0:	fe cf       	rjmp	.-4      	; 0x1ece <rf_test_mode+0x1a>
    1ed2:	88 e0       	ldi	r24, 0x08	; 8
    1ed4:	8f b9       	out	0x0f, r24	; 15
    1ed6:	77 9b       	sbis	0x0e, 7	; 14
    1ed8:	fe cf       	rjmp	.-4      	; 0x1ed6 <rf_test_mode+0x22>
    1eda:	c0 9a       	sbi	0x18, 0	; 24
    1edc:	c0 98       	cbi	0x18, 0	; 24
    1ede:	8e e2       	ldi	r24, 0x2E	; 46
    1ee0:	8f b9       	out	0x0f, r24	; 15
    1ee2:	77 9b       	sbis	0x0e, 7	; 14
    1ee4:	fe cf       	rjmp	.-4      	; 0x1ee2 <rf_test_mode+0x2e>
    1ee6:	88 e1       	ldi	r24, 0x18	; 24
    1ee8:	8f b9       	out	0x0f, r24	; 15
    1eea:	77 9b       	sbis	0x0e, 7	; 14
    1eec:	fe cf       	rjmp	.-4      	; 0x1eea <rf_test_mode+0x36>
    1eee:	1f b8       	out	0x0f, r1	; 15
    1ef0:	77 9b       	sbis	0x0e, 7	; 14
    1ef2:	fe cf       	rjmp	.-4      	; 0x1ef0 <rf_test_mode+0x3c>
    1ef4:	c0 9a       	sbi	0x18, 0	; 24
    1ef6:	0e 94 3a 0f 	call	0x1e74	; 0x1e74 <rf_flush_rx_fifo>
    1efa:	08 95       	ret

00001efc <rf_data_mode>:
    1efc:	c0 98       	cbi	0x18, 0	; 24
    1efe:	86 e0       	ldi	r24, 0x06	; 6
    1f00:	8f b9       	out	0x0f, r24	; 15
    1f02:	77 9b       	sbis	0x0e, 7	; 14
    1f04:	fe cf       	rjmp	.-4      	; 0x1f02 <rf_data_mode+0x6>
    1f06:	c0 9a       	sbi	0x18, 0	; 24
    1f08:	c0 98       	cbi	0x18, 0	; 24
    1f0a:	82 e1       	ldi	r24, 0x12	; 18
    1f0c:	8f b9       	out	0x0f, r24	; 15
    1f0e:	77 9b       	sbis	0x0e, 7	; 14
    1f10:	fe cf       	rjmp	.-4      	; 0x1f0e <rf_data_mode+0x12>
    1f12:	85 e0       	ldi	r24, 0x05	; 5
    1f14:	8f b9       	out	0x0f, r24	; 15
    1f16:	77 9b       	sbis	0x0e, 7	; 14
    1f18:	fe cf       	rjmp	.-4      	; 0x1f16 <rf_data_mode+0x1a>
    1f1a:	1f b8       	out	0x0f, r1	; 15
    1f1c:	77 9b       	sbis	0x0e, 7	; 14
    1f1e:	fe cf       	rjmp	.-4      	; 0x1f1c <rf_data_mode+0x20>
    1f20:	c0 9a       	sbi	0x18, 0	; 24
    1f22:	c0 98       	cbi	0x18, 0	; 24
    1f24:	8e e2       	ldi	r24, 0x2E	; 46
    1f26:	8f b9       	out	0x0f, r24	; 15
    1f28:	77 9b       	sbis	0x0e, 7	; 14
    1f2a:	fe cf       	rjmp	.-4      	; 0x1f28 <rf_data_mode+0x2c>
    1f2c:	1f b8       	out	0x0f, r1	; 15
    1f2e:	77 9b       	sbis	0x0e, 7	; 14
    1f30:	fe cf       	rjmp	.-4      	; 0x1f2e <rf_data_mode+0x32>
    1f32:	1f b8       	out	0x0f, r1	; 15
    1f34:	77 9b       	sbis	0x0e, 7	; 14
    1f36:	fe cf       	rjmp	.-4      	; 0x1f34 <rf_data_mode+0x38>
    1f38:	c0 9a       	sbi	0x18, 0	; 24
    1f3a:	0e 94 3a 0f 	call	0x1e74	; 0x1e74 <rf_flush_rx_fifo>
    1f3e:	08 95       	ret

00001f40 <rf_rx_set_serial>:
    1f40:	c0 98       	cbi	0x18, 0	; 24
    1f42:	86 e0       	ldi	r24, 0x06	; 6
    1f44:	8f b9       	out	0x0f, r24	; 15
    1f46:	77 9b       	sbis	0x0e, 7	; 14
    1f48:	fe cf       	rjmp	.-4      	; 0x1f46 <rf_rx_set_serial+0x6>
    1f4a:	c0 9a       	sbi	0x18, 0	; 24
    1f4c:	c0 98       	cbi	0x18, 0	; 24
    1f4e:	82 e1       	ldi	r24, 0x12	; 18
    1f50:	8f b9       	out	0x0f, r24	; 15
    1f52:	77 9b       	sbis	0x0e, 7	; 14
    1f54:	fe cf       	rjmp	.-4      	; 0x1f52 <rf_rx_set_serial+0x12>
    1f56:	85 e0       	ldi	r24, 0x05	; 5
    1f58:	8f b9       	out	0x0f, r24	; 15
    1f5a:	77 9b       	sbis	0x0e, 7	; 14
    1f5c:	fe cf       	rjmp	.-4      	; 0x1f5a <rf_rx_set_serial+0x1a>
    1f5e:	81 e0       	ldi	r24, 0x01	; 1
    1f60:	8f b9       	out	0x0f, r24	; 15
    1f62:	77 9b       	sbis	0x0e, 7	; 14
    1f64:	fe cf       	rjmp	.-4      	; 0x1f62 <rf_rx_set_serial+0x22>
    1f66:	c0 9a       	sbi	0x18, 0	; 24
    1f68:	0e 94 3a 0f 	call	0x1e74	; 0x1e74 <rf_flush_rx_fifo>
    1f6c:	08 95       	ret

00001f6e <rf_tx_set_serial>:
    1f6e:	c0 98       	cbi	0x18, 0	; 24
    1f70:	82 e1       	ldi	r24, 0x12	; 18
    1f72:	8f b9       	out	0x0f, r24	; 15
    1f74:	77 9b       	sbis	0x0e, 7	; 14
    1f76:	fe cf       	rjmp	.-4      	; 0x1f74 <rf_tx_set_serial+0x6>
    1f78:	85 e0       	ldi	r24, 0x05	; 5
    1f7a:	8f b9       	out	0x0f, r24	; 15
    1f7c:	77 9b       	sbis	0x0e, 7	; 14
    1f7e:	fe cf       	rjmp	.-4      	; 0x1f7c <rf_tx_set_serial+0xe>
    1f80:	84 e0       	ldi	r24, 0x04	; 4
    1f82:	8f b9       	out	0x0f, r24	; 15
    1f84:	77 9b       	sbis	0x0e, 7	; 14
    1f86:	fe cf       	rjmp	.-4      	; 0x1f84 <rf_tx_set_serial+0x16>
    1f88:	c0 9a       	sbi	0x18, 0	; 24
    1f8a:	0e 94 3a 0f 	call	0x1e74	; 0x1e74 <rf_flush_rx_fifo>
    1f8e:	08 95       	ret

00001f90 <rf_set_preamble_length>:
    1f90:	90 e0       	ldi	r25, 0x00	; 0
    1f92:	8f 70       	andi	r24, 0x0F	; 15
    1f94:	90 70       	andi	r25, 0x00	; 0
    1f96:	20 91 ac 06 	lds	r18, 0x06AC
    1f9a:	30 91 ad 06 	lds	r19, 0x06AD
    1f9e:	20 7f       	andi	r18, 0xF0	; 240
    1fa0:	82 2b       	or	r24, r18
    1fa2:	93 2b       	or	r25, r19
    1fa4:	90 93 ad 06 	sts	0x06AD, r25
    1fa8:	80 93 ac 06 	sts	0x06AC, r24
    1fac:	c0 98       	cbi	0x18, 0	; 24
    1fae:	81 e1       	ldi	r24, 0x11	; 17
    1fb0:	8f b9       	out	0x0f, r24	; 15
    1fb2:	77 9b       	sbis	0x0e, 7	; 14
    1fb4:	fe cf       	rjmp	.-4      	; 0x1fb2 <rf_set_preamble_length+0x22>
    1fb6:	80 91 ad 06 	lds	r24, 0x06AD
    1fba:	8f b9       	out	0x0f, r24	; 15
    1fbc:	77 9b       	sbis	0x0e, 7	; 14
    1fbe:	fe cf       	rjmp	.-4      	; 0x1fbc <rf_set_preamble_length+0x2c>
    1fc0:	80 91 ac 06 	lds	r24, 0x06AC
    1fc4:	8f b9       	out	0x0f, r24	; 15
    1fc6:	77 9b       	sbis	0x0e, 7	; 14
    1fc8:	fe cf       	rjmp	.-4      	; 0x1fc6 <rf_set_preamble_length+0x36>
    1fca:	c0 9a       	sbi	0x18, 0	; 24
    1fcc:	08 95       	ret

00001fce <rf_set_cca_mode>:
    1fce:	90 e0       	ldi	r25, 0x00	; 0
    1fd0:	26 e0       	ldi	r18, 0x06	; 6
    1fd2:	88 0f       	add	r24, r24
    1fd4:	99 1f       	adc	r25, r25
    1fd6:	2a 95       	dec	r18
    1fd8:	e1 f7       	brne	.-8      	; 0x1fd2 <rf_set_cca_mode+0x4>
    1fda:	90 70       	andi	r25, 0x00	; 0
    1fdc:	20 91 ac 06 	lds	r18, 0x06AC
    1fe0:	30 91 ad 06 	lds	r19, 0x06AD
    1fe4:	2f 73       	andi	r18, 0x3F	; 63
    1fe6:	82 2b       	or	r24, r18
    1fe8:	93 2b       	or	r25, r19
    1fea:	90 93 ad 06 	sts	0x06AD, r25
    1fee:	80 93 ac 06 	sts	0x06AC, r24
    1ff2:	c0 98       	cbi	0x18, 0	; 24
    1ff4:	81 e1       	ldi	r24, 0x11	; 17
    1ff6:	8f b9       	out	0x0f, r24	; 15
    1ff8:	77 9b       	sbis	0x0e, 7	; 14
    1ffa:	fe cf       	rjmp	.-4      	; 0x1ff8 <rf_set_cca_mode+0x2a>
    1ffc:	80 91 ad 06 	lds	r24, 0x06AD
    2000:	8f b9       	out	0x0f, r24	; 15
    2002:	77 9b       	sbis	0x0e, 7	; 14
    2004:	fe cf       	rjmp	.-4      	; 0x2002 <rf_set_cca_mode+0x34>
    2006:	80 91 ac 06 	lds	r24, 0x06AC
    200a:	8f b9       	out	0x0f, r24	; 15
    200c:	77 9b       	sbis	0x0e, 7	; 14
    200e:	fe cf       	rjmp	.-4      	; 0x200c <rf_set_cca_mode+0x3e>
    2010:	c0 9a       	sbi	0x18, 0	; 24
    2012:	08 95       	ret

00002014 <rf_carrier_on>:
    2014:	c0 98       	cbi	0x18, 0	; 24
    2016:	84 e0       	ldi	r24, 0x04	; 4
    2018:	8f b9       	out	0x0f, r24	; 15
    201a:	77 9b       	sbis	0x0e, 7	; 14
    201c:	fe cf       	rjmp	.-4      	; 0x201a <rf_carrier_on+0x6>
    201e:	c0 9a       	sbi	0x18, 0	; 24
    2020:	08 95       	ret

00002022 <rf_carrier_off>:
    2022:	c0 98       	cbi	0x18, 0	; 24
    2024:	86 e0       	ldi	r24, 0x06	; 6
    2026:	8f b9       	out	0x0f, r24	; 15
    2028:	77 9b       	sbis	0x0e, 7	; 14
    202a:	fe cf       	rjmp	.-4      	; 0x2028 <rf_carrier_off+0x6>
    202c:	c0 9a       	sbi	0x18, 0	; 24
    202e:	08 95       	ret

00002030 <getc0>:
    2030:	5f 9b       	sbis	0x0b, 7	; 11
    2032:	fe cf       	rjmp	.-4      	; 0x2030 <getc0>
    2034:	5f 98       	cbi	0x0b, 7	; 11
    2036:	8c b1       	in	r24, 0x0c	; 12
    2038:	08 95       	ret

0000203a <putc0>:
    203a:	5d 9b       	sbis	0x0b, 5	; 11
    203c:	fe cf       	rjmp	.-4      	; 0x203a <putc0>
    203e:	5d 98       	cbi	0x0b, 5	; 11
    2040:	8c b9       	out	0x0c, r24	; 12
    2042:	08 95       	ret

00002044 <nrk_uart_rx_signal_get>:
    2044:	8f ef       	ldi	r24, 0xFF	; 255
    2046:	08 95       	ret

00002048 <nrk_uart_data_ready>:
    2048:	88 23       	and	r24, r24
    204a:	11 f4       	brne	.+4      	; 0x2050 <nrk_uart_data_ready+0x8>
    204c:	8b b1       	in	r24, 0x0b	; 11
    204e:	04 c0       	rjmp	.+8      	; 0x2058 <nrk_uart_data_ready+0x10>
    2050:	81 30       	cpi	r24, 0x01	; 1
    2052:	31 f4       	brne	.+12     	; 0x2060 <nrk_uart_data_ready+0x18>
    2054:	80 91 9b 00 	lds	r24, 0x009B
    2058:	88 1f       	adc	r24, r24
    205a:	88 27       	eor	r24, r24
    205c:	88 1f       	adc	r24, r24
    205e:	08 95       	ret
    2060:	80 e0       	ldi	r24, 0x00	; 0
    2062:	08 95       	ret

00002064 <nrk_kprintf>:
    2064:	cf 93       	push	r28
    2066:	df 93       	push	r29
    2068:	ec 01       	movw	r28, r24
    206a:	07 c0       	rjmp	.+14     	; 0x207a <nrk_kprintf+0x16>
    206c:	60 91 e7 07 	lds	r22, 0x07E7
    2070:	70 91 e8 07 	lds	r23, 0x07E8
    2074:	90 e0       	ldi	r25, 0x00	; 0
    2076:	0e 94 1b 4a 	call	0x9436	; 0x9436 <fputc>
    207a:	fe 01       	movw	r30, r28
    207c:	21 96       	adiw	r28, 0x01	; 1
    207e:	84 91       	lpm	r24, Z+
    2080:	88 23       	and	r24, r24
    2082:	a1 f7       	brne	.-24     	; 0x206c <nrk_kprintf+0x8>
    2084:	df 91       	pop	r29
    2086:	cf 91       	pop	r28
    2088:	08 95       	ret

0000208a <nrk_gpio_set>:
    208a:	8f 3f       	cpi	r24, 0xFF	; 255
    208c:	09 f4       	brne	.+2      	; 0x2090 <nrk_gpio_set+0x6>
    208e:	3f c0       	rjmp	.+126    	; 0x210e <nrk_gpio_set+0x84>
    2090:	98 2f       	mov	r25, r24
    2092:	96 95       	lsr	r25
    2094:	96 95       	lsr	r25
    2096:	96 95       	lsr	r25
    2098:	21 e0       	ldi	r18, 0x01	; 1
    209a:	30 e0       	ldi	r19, 0x00	; 0
    209c:	02 c0       	rjmp	.+4      	; 0x20a2 <nrk_gpio_set+0x18>
    209e:	22 0f       	add	r18, r18
    20a0:	33 1f       	adc	r19, r19
    20a2:	9a 95       	dec	r25
    20a4:	e2 f7       	brpl	.-8      	; 0x209e <nrk_gpio_set+0x14>
    20a6:	90 e0       	ldi	r25, 0x00	; 0
    20a8:	87 70       	andi	r24, 0x07	; 7
    20aa:	90 70       	andi	r25, 0x00	; 0
    20ac:	82 30       	cpi	r24, 0x02	; 2
    20ae:	91 05       	cpc	r25, r1
    20b0:	d9 f0       	breq	.+54     	; 0x20e8 <nrk_gpio_set+0x5e>
    20b2:	83 30       	cpi	r24, 0x03	; 3
    20b4:	91 05       	cpc	r25, r1
    20b6:	34 f4       	brge	.+12     	; 0x20c4 <nrk_gpio_set+0x3a>
    20b8:	00 97       	sbiw	r24, 0x00	; 0
    20ba:	71 f0       	breq	.+28     	; 0x20d8 <nrk_gpio_set+0x4e>
    20bc:	81 30       	cpi	r24, 0x01	; 1
    20be:	91 05       	cpc	r25, r1
    20c0:	41 f5       	brne	.+80     	; 0x2112 <nrk_gpio_set+0x88>
    20c2:	0e c0       	rjmp	.+28     	; 0x20e0 <nrk_gpio_set+0x56>
    20c4:	84 30       	cpi	r24, 0x04	; 4
    20c6:	91 05       	cpc	r25, r1
    20c8:	c1 f0       	breq	.+48     	; 0x20fa <nrk_gpio_set+0x70>
    20ca:	84 30       	cpi	r24, 0x04	; 4
    20cc:	91 05       	cpc	r25, r1
    20ce:	8c f0       	brlt	.+34     	; 0x20f2 <nrk_gpio_set+0x68>
    20d0:	85 30       	cpi	r24, 0x05	; 5
    20d2:	91 05       	cpc	r25, r1
    20d4:	f1 f4       	brne	.+60     	; 0x2112 <nrk_gpio_set+0x88>
    20d6:	15 c0       	rjmp	.+42     	; 0x2102 <nrk_gpio_set+0x78>
    20d8:	8b b3       	in	r24, 0x1b	; 27
    20da:	82 2b       	or	r24, r18
    20dc:	8b bb       	out	0x1b, r24	; 27
    20de:	07 c0       	rjmp	.+14     	; 0x20ee <nrk_gpio_set+0x64>
    20e0:	88 b3       	in	r24, 0x18	; 24
    20e2:	82 2b       	or	r24, r18
    20e4:	88 bb       	out	0x18, r24	; 24
    20e6:	03 c0       	rjmp	.+6      	; 0x20ee <nrk_gpio_set+0x64>
    20e8:	85 b3       	in	r24, 0x15	; 21
    20ea:	82 2b       	or	r24, r18
    20ec:	85 bb       	out	0x15, r24	; 21
    20ee:	81 e0       	ldi	r24, 0x01	; 1
    20f0:	08 95       	ret
    20f2:	82 b3       	in	r24, 0x12	; 18
    20f4:	82 2b       	or	r24, r18
    20f6:	82 bb       	out	0x12, r24	; 18
    20f8:	fa cf       	rjmp	.-12     	; 0x20ee <nrk_gpio_set+0x64>
    20fa:	83 b1       	in	r24, 0x03	; 3
    20fc:	82 2b       	or	r24, r18
    20fe:	83 b9       	out	0x03, r24	; 3
    2100:	f6 cf       	rjmp	.-20     	; 0x20ee <nrk_gpio_set+0x64>
    2102:	80 91 62 00 	lds	r24, 0x0062
    2106:	82 2b       	or	r24, r18
    2108:	80 93 62 00 	sts	0x0062, r24
    210c:	f0 cf       	rjmp	.-32     	; 0x20ee <nrk_gpio_set+0x64>
    210e:	8f ef       	ldi	r24, 0xFF	; 255
    2110:	08 95       	ret
    2112:	8f ef       	ldi	r24, 0xFF	; 255
    2114:	08 95       	ret

00002116 <nrk_gpio_clr>:
    2116:	8f 3f       	cpi	r24, 0xFF	; 255
    2118:	09 f4       	brne	.+2      	; 0x211c <nrk_gpio_clr+0x6>
    211a:	40 c0       	rjmp	.+128    	; 0x219c <nrk_gpio_clr+0x86>
    211c:	98 2f       	mov	r25, r24
    211e:	96 95       	lsr	r25
    2120:	96 95       	lsr	r25
    2122:	96 95       	lsr	r25
    2124:	21 e0       	ldi	r18, 0x01	; 1
    2126:	30 e0       	ldi	r19, 0x00	; 0
    2128:	02 c0       	rjmp	.+4      	; 0x212e <nrk_gpio_clr+0x18>
    212a:	22 0f       	add	r18, r18
    212c:	33 1f       	adc	r19, r19
    212e:	9a 95       	dec	r25
    2130:	e2 f7       	brpl	.-8      	; 0x212a <nrk_gpio_clr+0x14>
    2132:	20 95       	com	r18
    2134:	90 e0       	ldi	r25, 0x00	; 0
    2136:	87 70       	andi	r24, 0x07	; 7
    2138:	90 70       	andi	r25, 0x00	; 0
    213a:	82 30       	cpi	r24, 0x02	; 2
    213c:	91 05       	cpc	r25, r1
    213e:	d9 f0       	breq	.+54     	; 0x2176 <nrk_gpio_clr+0x60>
    2140:	83 30       	cpi	r24, 0x03	; 3
    2142:	91 05       	cpc	r25, r1
    2144:	34 f4       	brge	.+12     	; 0x2152 <nrk_gpio_clr+0x3c>
    2146:	00 97       	sbiw	r24, 0x00	; 0
    2148:	71 f0       	breq	.+28     	; 0x2166 <nrk_gpio_clr+0x50>
    214a:	81 30       	cpi	r24, 0x01	; 1
    214c:	91 05       	cpc	r25, r1
    214e:	41 f5       	brne	.+80     	; 0x21a0 <nrk_gpio_clr+0x8a>
    2150:	0e c0       	rjmp	.+28     	; 0x216e <nrk_gpio_clr+0x58>
    2152:	84 30       	cpi	r24, 0x04	; 4
    2154:	91 05       	cpc	r25, r1
    2156:	c1 f0       	breq	.+48     	; 0x2188 <nrk_gpio_clr+0x72>
    2158:	84 30       	cpi	r24, 0x04	; 4
    215a:	91 05       	cpc	r25, r1
    215c:	8c f0       	brlt	.+34     	; 0x2180 <nrk_gpio_clr+0x6a>
    215e:	85 30       	cpi	r24, 0x05	; 5
    2160:	91 05       	cpc	r25, r1
    2162:	f1 f4       	brne	.+60     	; 0x21a0 <nrk_gpio_clr+0x8a>
    2164:	15 c0       	rjmp	.+42     	; 0x2190 <nrk_gpio_clr+0x7a>
    2166:	8b b3       	in	r24, 0x1b	; 27
    2168:	82 23       	and	r24, r18
    216a:	8b bb       	out	0x1b, r24	; 27
    216c:	07 c0       	rjmp	.+14     	; 0x217c <nrk_gpio_clr+0x66>
    216e:	88 b3       	in	r24, 0x18	; 24
    2170:	82 23       	and	r24, r18
    2172:	88 bb       	out	0x18, r24	; 24
    2174:	03 c0       	rjmp	.+6      	; 0x217c <nrk_gpio_clr+0x66>
    2176:	85 b3       	in	r24, 0x15	; 21
    2178:	82 23       	and	r24, r18
    217a:	85 bb       	out	0x15, r24	; 21
    217c:	81 e0       	ldi	r24, 0x01	; 1
    217e:	08 95       	ret
    2180:	82 b3       	in	r24, 0x12	; 18
    2182:	82 23       	and	r24, r18
    2184:	82 bb       	out	0x12, r24	; 18
    2186:	fa cf       	rjmp	.-12     	; 0x217c <nrk_gpio_clr+0x66>
    2188:	83 b1       	in	r24, 0x03	; 3
    218a:	82 23       	and	r24, r18
    218c:	83 b9       	out	0x03, r24	; 3
    218e:	f6 cf       	rjmp	.-20     	; 0x217c <nrk_gpio_clr+0x66>
    2190:	80 91 62 00 	lds	r24, 0x0062
    2194:	82 23       	and	r24, r18
    2196:	80 93 62 00 	sts	0x0062, r24
    219a:	f0 cf       	rjmp	.-32     	; 0x217c <nrk_gpio_clr+0x66>
    219c:	8f ef       	ldi	r24, 0xFF	; 255
    219e:	08 95       	ret
    21a0:	8f ef       	ldi	r24, 0xFF	; 255
    21a2:	08 95       	ret

000021a4 <nrk_gpio_get>:
    21a4:	8f 3f       	cpi	r24, 0xFF	; 255
    21a6:	89 f1       	breq	.+98     	; 0x220a <nrk_gpio_get+0x66>
    21a8:	28 2f       	mov	r18, r24
    21aa:	30 e0       	ldi	r19, 0x00	; 0
    21ac:	27 70       	andi	r18, 0x07	; 7
    21ae:	30 70       	andi	r19, 0x00	; 0
    21b0:	22 30       	cpi	r18, 0x02	; 2
    21b2:	31 05       	cpc	r19, r1
    21b4:	c1 f0       	breq	.+48     	; 0x21e6 <nrk_gpio_get+0x42>
    21b6:	23 30       	cpi	r18, 0x03	; 3
    21b8:	31 05       	cpc	r19, r1
    21ba:	3c f4       	brge	.+14     	; 0x21ca <nrk_gpio_get+0x26>
    21bc:	21 15       	cp	r18, r1
    21be:	31 05       	cpc	r19, r1
    21c0:	71 f0       	breq	.+28     	; 0x21de <nrk_gpio_get+0x3a>
    21c2:	21 30       	cpi	r18, 0x01	; 1
    21c4:	31 05       	cpc	r19, r1
    21c6:	09 f5       	brne	.+66     	; 0x220a <nrk_gpio_get+0x66>
    21c8:	0c c0       	rjmp	.+24     	; 0x21e2 <nrk_gpio_get+0x3e>
    21ca:	24 30       	cpi	r18, 0x04	; 4
    21cc:	31 05       	cpc	r19, r1
    21ce:	79 f0       	breq	.+30     	; 0x21ee <nrk_gpio_get+0x4a>
    21d0:	24 30       	cpi	r18, 0x04	; 4
    21d2:	31 05       	cpc	r19, r1
    21d4:	54 f0       	brlt	.+20     	; 0x21ea <nrk_gpio_get+0x46>
    21d6:	25 30       	cpi	r18, 0x05	; 5
    21d8:	31 05       	cpc	r19, r1
    21da:	b9 f4       	brne	.+46     	; 0x220a <nrk_gpio_get+0x66>
    21dc:	0a c0       	rjmp	.+20     	; 0x21f2 <nrk_gpio_get+0x4e>
    21de:	29 b3       	in	r18, 0x19	; 25
    21e0:	09 c0       	rjmp	.+18     	; 0x21f4 <nrk_gpio_get+0x50>
    21e2:	26 b3       	in	r18, 0x16	; 22
    21e4:	07 c0       	rjmp	.+14     	; 0x21f4 <nrk_gpio_get+0x50>
    21e6:	23 b3       	in	r18, 0x13	; 19
    21e8:	05 c0       	rjmp	.+10     	; 0x21f4 <nrk_gpio_get+0x50>
    21ea:	20 b3       	in	r18, 0x10	; 16
    21ec:	03 c0       	rjmp	.+6      	; 0x21f4 <nrk_gpio_get+0x50>
    21ee:	21 b1       	in	r18, 0x01	; 1
    21f0:	01 c0       	rjmp	.+2      	; 0x21f4 <nrk_gpio_get+0x50>
    21f2:	20 b1       	in	r18, 0x00	; 0
    21f4:	30 e0       	ldi	r19, 0x00	; 0
    21f6:	86 95       	lsr	r24
    21f8:	86 95       	lsr	r24
    21fa:	86 95       	lsr	r24
    21fc:	02 c0       	rjmp	.+4      	; 0x2202 <nrk_gpio_get+0x5e>
    21fe:	35 95       	asr	r19
    2200:	27 95       	ror	r18
    2202:	8a 95       	dec	r24
    2204:	e2 f7       	brpl	.-8      	; 0x21fe <nrk_gpio_get+0x5a>
    2206:	21 70       	andi	r18, 0x01	; 1
    2208:	01 c0       	rjmp	.+2      	; 0x220c <nrk_gpio_get+0x68>
    220a:	2f ef       	ldi	r18, 0xFF	; 255
    220c:	82 2f       	mov	r24, r18
    220e:	08 95       	ret

00002210 <nrk_gpio_pullups>:
    2210:	88 23       	and	r24, r24
    2212:	19 f0       	breq	.+6      	; 0x221a <nrk_gpio_pullups+0xa>
    2214:	80 b5       	in	r24, 0x20	; 32
    2216:	8b 7f       	andi	r24, 0xFB	; 251
    2218:	02 c0       	rjmp	.+4      	; 0x221e <nrk_gpio_pullups+0xe>
    221a:	80 b5       	in	r24, 0x20	; 32
    221c:	84 60       	ori	r24, 0x04	; 4
    221e:	80 bd       	out	0x20, r24	; 32
    2220:	81 e0       	ldi	r24, 0x01	; 1
    2222:	08 95       	ret

00002224 <nrk_gpio_toggle>:
    2224:	8f 3f       	cpi	r24, 0xFF	; 255
    2226:	09 f4       	brne	.+2      	; 0x222a <nrk_gpio_toggle+0x6>
    2228:	3f c0       	rjmp	.+126    	; 0x22a8 <nrk_gpio_toggle+0x84>
    222a:	98 2f       	mov	r25, r24
    222c:	96 95       	lsr	r25
    222e:	96 95       	lsr	r25
    2230:	96 95       	lsr	r25
    2232:	21 e0       	ldi	r18, 0x01	; 1
    2234:	30 e0       	ldi	r19, 0x00	; 0
    2236:	02 c0       	rjmp	.+4      	; 0x223c <nrk_gpio_toggle+0x18>
    2238:	22 0f       	add	r18, r18
    223a:	33 1f       	adc	r19, r19
    223c:	9a 95       	dec	r25
    223e:	e2 f7       	brpl	.-8      	; 0x2238 <nrk_gpio_toggle+0x14>
    2240:	90 e0       	ldi	r25, 0x00	; 0
    2242:	87 70       	andi	r24, 0x07	; 7
    2244:	90 70       	andi	r25, 0x00	; 0
    2246:	82 30       	cpi	r24, 0x02	; 2
    2248:	91 05       	cpc	r25, r1
    224a:	d9 f0       	breq	.+54     	; 0x2282 <nrk_gpio_toggle+0x5e>
    224c:	83 30       	cpi	r24, 0x03	; 3
    224e:	91 05       	cpc	r25, r1
    2250:	34 f4       	brge	.+12     	; 0x225e <nrk_gpio_toggle+0x3a>
    2252:	00 97       	sbiw	r24, 0x00	; 0
    2254:	71 f0       	breq	.+28     	; 0x2272 <nrk_gpio_toggle+0x4e>
    2256:	81 30       	cpi	r24, 0x01	; 1
    2258:	91 05       	cpc	r25, r1
    225a:	41 f5       	brne	.+80     	; 0x22ac <nrk_gpio_toggle+0x88>
    225c:	0e c0       	rjmp	.+28     	; 0x227a <nrk_gpio_toggle+0x56>
    225e:	84 30       	cpi	r24, 0x04	; 4
    2260:	91 05       	cpc	r25, r1
    2262:	c1 f0       	breq	.+48     	; 0x2294 <nrk_gpio_toggle+0x70>
    2264:	84 30       	cpi	r24, 0x04	; 4
    2266:	91 05       	cpc	r25, r1
    2268:	8c f0       	brlt	.+34     	; 0x228c <nrk_gpio_toggle+0x68>
    226a:	85 30       	cpi	r24, 0x05	; 5
    226c:	91 05       	cpc	r25, r1
    226e:	f1 f4       	brne	.+60     	; 0x22ac <nrk_gpio_toggle+0x88>
    2270:	15 c0       	rjmp	.+42     	; 0x229c <nrk_gpio_toggle+0x78>
    2272:	8b b3       	in	r24, 0x1b	; 27
    2274:	82 27       	eor	r24, r18
    2276:	8b bb       	out	0x1b, r24	; 27
    2278:	07 c0       	rjmp	.+14     	; 0x2288 <nrk_gpio_toggle+0x64>
    227a:	88 b3       	in	r24, 0x18	; 24
    227c:	82 27       	eor	r24, r18
    227e:	88 bb       	out	0x18, r24	; 24
    2280:	03 c0       	rjmp	.+6      	; 0x2288 <nrk_gpio_toggle+0x64>
    2282:	85 b3       	in	r24, 0x15	; 21
    2284:	82 27       	eor	r24, r18
    2286:	85 bb       	out	0x15, r24	; 21
    2288:	81 e0       	ldi	r24, 0x01	; 1
    228a:	08 95       	ret
    228c:	82 b3       	in	r24, 0x12	; 18
    228e:	82 27       	eor	r24, r18
    2290:	82 bb       	out	0x12, r24	; 18
    2292:	fa cf       	rjmp	.-12     	; 0x2288 <nrk_gpio_toggle+0x64>
    2294:	83 b1       	in	r24, 0x03	; 3
    2296:	82 27       	eor	r24, r18
    2298:	83 b9       	out	0x03, r24	; 3
    229a:	f6 cf       	rjmp	.-20     	; 0x2288 <nrk_gpio_toggle+0x64>
    229c:	80 91 62 00 	lds	r24, 0x0062
    22a0:	82 27       	eor	r24, r18
    22a2:	80 93 62 00 	sts	0x0062, r24
    22a6:	f0 cf       	rjmp	.-32     	; 0x2288 <nrk_gpio_toggle+0x64>
    22a8:	8f ef       	ldi	r24, 0xFF	; 255
    22aa:	08 95       	ret
    22ac:	8f ef       	ldi	r24, 0xFF	; 255
    22ae:	08 95       	ret

000022b0 <nrk_gpio_direction>:
    22b0:	8f 3f       	cpi	r24, 0xFF	; 255
    22b2:	09 f4       	brne	.+2      	; 0x22b6 <nrk_gpio_direction+0x6>
    22b4:	8c c0       	rjmp	.+280    	; 0x23ce <nrk_gpio_direction+0x11e>
    22b6:	98 2f       	mov	r25, r24
    22b8:	96 95       	lsr	r25
    22ba:	96 95       	lsr	r25
    22bc:	96 95       	lsr	r25
    22be:	21 e0       	ldi	r18, 0x01	; 1
    22c0:	30 e0       	ldi	r19, 0x00	; 0
    22c2:	02 c0       	rjmp	.+4      	; 0x22c8 <nrk_gpio_direction+0x18>
    22c4:	22 0f       	add	r18, r18
    22c6:	33 1f       	adc	r19, r19
    22c8:	9a 95       	dec	r25
    22ca:	e2 f7       	brpl	.-8      	; 0x22c4 <nrk_gpio_direction+0x14>
    22cc:	90 e0       	ldi	r25, 0x00	; 0
    22ce:	66 23       	and	r22, r22
    22d0:	09 f0       	breq	.+2      	; 0x22d4 <nrk_gpio_direction+0x24>
    22d2:	4a c0       	rjmp	.+148    	; 0x2368 <nrk_gpio_direction+0xb8>
    22d4:	32 2f       	mov	r19, r18
    22d6:	30 95       	com	r19
    22d8:	87 70       	andi	r24, 0x07	; 7
    22da:	90 70       	andi	r25, 0x00	; 0
    22dc:	82 30       	cpi	r24, 0x02	; 2
    22de:	91 05       	cpc	r25, r1
    22e0:	19 f1       	breq	.+70     	; 0x2328 <nrk_gpio_direction+0x78>
    22e2:	83 30       	cpi	r24, 0x03	; 3
    22e4:	91 05       	cpc	r25, r1
    22e6:	3c f4       	brge	.+14     	; 0x22f6 <nrk_gpio_direction+0x46>
    22e8:	00 97       	sbiw	r24, 0x00	; 0
    22ea:	81 f0       	breq	.+32     	; 0x230c <nrk_gpio_direction+0x5c>
    22ec:	81 30       	cpi	r24, 0x01	; 1
    22ee:	91 05       	cpc	r25, r1
    22f0:	09 f0       	breq	.+2      	; 0x22f4 <nrk_gpio_direction+0x44>
    22f2:	6d c0       	rjmp	.+218    	; 0x23ce <nrk_gpio_direction+0x11e>
    22f4:	12 c0       	rjmp	.+36     	; 0x231a <nrk_gpio_direction+0x6a>
    22f6:	84 30       	cpi	r24, 0x04	; 4
    22f8:	91 05       	cpc	r25, r1
    22fa:	21 f1       	breq	.+72     	; 0x2344 <nrk_gpio_direction+0x94>
    22fc:	84 30       	cpi	r24, 0x04	; 4
    22fe:	91 05       	cpc	r25, r1
    2300:	d4 f0       	brlt	.+52     	; 0x2336 <nrk_gpio_direction+0x86>
    2302:	85 30       	cpi	r24, 0x05	; 5
    2304:	91 05       	cpc	r25, r1
    2306:	09 f0       	breq	.+2      	; 0x230a <nrk_gpio_direction+0x5a>
    2308:	62 c0       	rjmp	.+196    	; 0x23ce <nrk_gpio_direction+0x11e>
    230a:	23 c0       	rjmp	.+70     	; 0x2352 <nrk_gpio_direction+0xa2>
    230c:	8a b3       	in	r24, 0x1a	; 26
    230e:	83 23       	and	r24, r19
    2310:	8a bb       	out	0x1a, r24	; 26
    2312:	8b b3       	in	r24, 0x1b	; 27
    2314:	82 2b       	or	r24, r18
    2316:	8b bb       	out	0x1b, r24	; 27
    2318:	58 c0       	rjmp	.+176    	; 0x23ca <nrk_gpio_direction+0x11a>
    231a:	87 b3       	in	r24, 0x17	; 23
    231c:	83 23       	and	r24, r19
    231e:	87 bb       	out	0x17, r24	; 23
    2320:	88 b3       	in	r24, 0x18	; 24
    2322:	82 2b       	or	r24, r18
    2324:	88 bb       	out	0x18, r24	; 24
    2326:	51 c0       	rjmp	.+162    	; 0x23ca <nrk_gpio_direction+0x11a>
    2328:	84 b3       	in	r24, 0x14	; 20
    232a:	83 23       	and	r24, r19
    232c:	84 bb       	out	0x14, r24	; 20
    232e:	85 b3       	in	r24, 0x15	; 21
    2330:	82 2b       	or	r24, r18
    2332:	85 bb       	out	0x15, r24	; 21
    2334:	4a c0       	rjmp	.+148    	; 0x23ca <nrk_gpio_direction+0x11a>
    2336:	81 b3       	in	r24, 0x11	; 17
    2338:	83 23       	and	r24, r19
    233a:	81 bb       	out	0x11, r24	; 17
    233c:	82 b3       	in	r24, 0x12	; 18
    233e:	82 2b       	or	r24, r18
    2340:	82 bb       	out	0x12, r24	; 18
    2342:	43 c0       	rjmp	.+134    	; 0x23ca <nrk_gpio_direction+0x11a>
    2344:	82 b1       	in	r24, 0x02	; 2
    2346:	83 23       	and	r24, r19
    2348:	82 b9       	out	0x02, r24	; 2
    234a:	83 b1       	in	r24, 0x03	; 3
    234c:	82 2b       	or	r24, r18
    234e:	83 b9       	out	0x03, r24	; 3
    2350:	3c c0       	rjmp	.+120    	; 0x23ca <nrk_gpio_direction+0x11a>
    2352:	80 91 61 00 	lds	r24, 0x0061
    2356:	83 23       	and	r24, r19
    2358:	80 93 61 00 	sts	0x0061, r24
    235c:	80 91 62 00 	lds	r24, 0x0062
    2360:	82 2b       	or	r24, r18
    2362:	80 93 62 00 	sts	0x0062, r24
    2366:	31 c0       	rjmp	.+98     	; 0x23ca <nrk_gpio_direction+0x11a>
    2368:	87 70       	andi	r24, 0x07	; 7
    236a:	90 70       	andi	r25, 0x00	; 0
    236c:	82 30       	cpi	r24, 0x02	; 2
    236e:	91 05       	cpc	r25, r1
    2370:	d9 f0       	breq	.+54     	; 0x23a8 <nrk_gpio_direction+0xf8>
    2372:	83 30       	cpi	r24, 0x03	; 3
    2374:	91 05       	cpc	r25, r1
    2376:	34 f4       	brge	.+12     	; 0x2384 <nrk_gpio_direction+0xd4>
    2378:	00 97       	sbiw	r24, 0x00	; 0
    237a:	71 f0       	breq	.+28     	; 0x2398 <nrk_gpio_direction+0xe8>
    237c:	81 30       	cpi	r24, 0x01	; 1
    237e:	91 05       	cpc	r25, r1
    2380:	41 f5       	brne	.+80     	; 0x23d2 <nrk_gpio_direction+0x122>
    2382:	0e c0       	rjmp	.+28     	; 0x23a0 <nrk_gpio_direction+0xf0>
    2384:	84 30       	cpi	r24, 0x04	; 4
    2386:	91 05       	cpc	r25, r1
    2388:	b9 f0       	breq	.+46     	; 0x23b8 <nrk_gpio_direction+0x108>
    238a:	84 30       	cpi	r24, 0x04	; 4
    238c:	91 05       	cpc	r25, r1
    238e:	84 f0       	brlt	.+32     	; 0x23b0 <nrk_gpio_direction+0x100>
    2390:	85 30       	cpi	r24, 0x05	; 5
    2392:	91 05       	cpc	r25, r1
    2394:	f1 f4       	brne	.+60     	; 0x23d2 <nrk_gpio_direction+0x122>
    2396:	14 c0       	rjmp	.+40     	; 0x23c0 <nrk_gpio_direction+0x110>
    2398:	8a b3       	in	r24, 0x1a	; 26
    239a:	82 2b       	or	r24, r18
    239c:	8a bb       	out	0x1a, r24	; 26
    239e:	15 c0       	rjmp	.+42     	; 0x23ca <nrk_gpio_direction+0x11a>
    23a0:	87 b3       	in	r24, 0x17	; 23
    23a2:	82 2b       	or	r24, r18
    23a4:	87 bb       	out	0x17, r24	; 23
    23a6:	11 c0       	rjmp	.+34     	; 0x23ca <nrk_gpio_direction+0x11a>
    23a8:	84 b3       	in	r24, 0x14	; 20
    23aa:	82 2b       	or	r24, r18
    23ac:	84 bb       	out	0x14, r24	; 20
    23ae:	0d c0       	rjmp	.+26     	; 0x23ca <nrk_gpio_direction+0x11a>
    23b0:	81 b3       	in	r24, 0x11	; 17
    23b2:	82 2b       	or	r24, r18
    23b4:	81 bb       	out	0x11, r24	; 17
    23b6:	09 c0       	rjmp	.+18     	; 0x23ca <nrk_gpio_direction+0x11a>
    23b8:	82 b1       	in	r24, 0x02	; 2
    23ba:	82 2b       	or	r24, r18
    23bc:	82 b9       	out	0x02, r24	; 2
    23be:	05 c0       	rjmp	.+10     	; 0x23ca <nrk_gpio_direction+0x11a>
    23c0:	80 91 61 00 	lds	r24, 0x0061
    23c4:	82 2b       	or	r24, r18
    23c6:	80 93 61 00 	sts	0x0061, r24
    23ca:	81 e0       	ldi	r24, 0x01	; 1
    23cc:	08 95       	ret
    23ce:	8f ef       	ldi	r24, 0xFF	; 255
    23d0:	08 95       	ret
    23d2:	8f ef       	ldi	r24, 0xFF	; 255
    23d4:	08 95       	ret

000023d6 <nrk_get_button>:
    23d6:	8f ef       	ldi	r24, 0xFF	; 255
    23d8:	08 95       	ret

000023da <nrk_led_toggle>:
    23da:	00 97       	sbiw	r24, 0x00	; 0
    23dc:	11 f4       	brne	.+4      	; 0x23e2 <nrk_led_toggle+0x8>
    23de:	80 e0       	ldi	r24, 0x00	; 0
    23e0:	09 c0       	rjmp	.+18     	; 0x23f4 <nrk_led_toggle+0x1a>
    23e2:	81 30       	cpi	r24, 0x01	; 1
    23e4:	91 05       	cpc	r25, r1
    23e6:	11 f4       	brne	.+4      	; 0x23ec <nrk_led_toggle+0x12>
    23e8:	88 e0       	ldi	r24, 0x08	; 8
    23ea:	04 c0       	rjmp	.+8      	; 0x23f4 <nrk_led_toggle+0x1a>
    23ec:	82 30       	cpi	r24, 0x02	; 2
    23ee:	91 05       	cpc	r25, r1
    23f0:	29 f4       	brne	.+10     	; 0x23fc <nrk_led_toggle+0x22>
    23f2:	80 e1       	ldi	r24, 0x10	; 16
    23f4:	0e 94 12 11 	call	0x2224	; 0x2224 <nrk_gpio_toggle>
    23f8:	81 e0       	ldi	r24, 0x01	; 1
    23fa:	08 95       	ret
    23fc:	8f ef       	ldi	r24, 0xFF	; 255
    23fe:	08 95       	ret

00002400 <nrk_led_clr>:
    2400:	00 97       	sbiw	r24, 0x00	; 0
    2402:	11 f4       	brne	.+4      	; 0x2408 <nrk_led_clr+0x8>
    2404:	80 e0       	ldi	r24, 0x00	; 0
    2406:	09 c0       	rjmp	.+18     	; 0x241a <nrk_led_clr+0x1a>
    2408:	81 30       	cpi	r24, 0x01	; 1
    240a:	91 05       	cpc	r25, r1
    240c:	11 f4       	brne	.+4      	; 0x2412 <nrk_led_clr+0x12>
    240e:	88 e0       	ldi	r24, 0x08	; 8
    2410:	04 c0       	rjmp	.+8      	; 0x241a <nrk_led_clr+0x1a>
    2412:	82 30       	cpi	r24, 0x02	; 2
    2414:	91 05       	cpc	r25, r1
    2416:	29 f4       	brne	.+10     	; 0x2422 <nrk_led_clr+0x22>
    2418:	80 e1       	ldi	r24, 0x10	; 16
    241a:	0e 94 45 10 	call	0x208a	; 0x208a <nrk_gpio_set>
    241e:	81 e0       	ldi	r24, 0x01	; 1
    2420:	08 95       	ret
    2422:	8f ef       	ldi	r24, 0xFF	; 255
    2424:	08 95       	ret

00002426 <nrk_setup_ports>:
    2426:	80 b5       	in	r24, 0x20	; 32
    2428:	84 60       	ori	r24, 0x04	; 4
    242a:	80 bd       	out	0x20, r24	; 32
    242c:	87 e0       	ldi	r24, 0x07	; 7
    242e:	87 bb       	out	0x17, r24	; 23
    2430:	88 bb       	out	0x18, r24	; 24
    2432:	8f ef       	ldi	r24, 0xFF	; 255
    2434:	84 bb       	out	0x14, r24	; 20
    2436:	15 ba       	out	0x15, r1	; 21
    2438:	82 e0       	ldi	r24, 0x02	; 2
    243a:	82 b9       	out	0x02, r24	; 2
    243c:	87 e6       	ldi	r24, 0x67	; 103
    243e:	8a bb       	out	0x1a, r24	; 26
    2440:	80 e4       	ldi	r24, 0x40	; 64
    2442:	8b bb       	out	0x1b, r24	; 27
    2444:	80 e5       	ldi	r24, 0x50	; 80
    2446:	8d b9       	out	0x0d, r24	; 13
    2448:	81 e0       	ldi	r24, 0x01	; 1
    244a:	8e b9       	out	0x0e, r24	; 14
    244c:	80 e0       	ldi	r24, 0x00	; 0
    244e:	90 e0       	ldi	r25, 0x00	; 0
    2450:	0e 94 00 12 	call	0x2400	; 0x2400 <nrk_led_clr>
    2454:	81 e0       	ldi	r24, 0x01	; 1
    2456:	90 e0       	ldi	r25, 0x00	; 0
    2458:	0e 94 00 12 	call	0x2400	; 0x2400 <nrk_led_clr>
    245c:	82 e0       	ldi	r24, 0x02	; 2
    245e:	90 e0       	ldi	r25, 0x00	; 0
    2460:	0e 94 00 12 	call	0x2400	; 0x2400 <nrk_led_clr>
    2464:	83 e0       	ldi	r24, 0x03	; 3
    2466:	90 e0       	ldi	r25, 0x00	; 0
    2468:	0e 94 00 12 	call	0x2400	; 0x2400 <nrk_led_clr>
    246c:	08 95       	ret

0000246e <nrk_led_set>:
    246e:	00 97       	sbiw	r24, 0x00	; 0
    2470:	11 f4       	brne	.+4      	; 0x2476 <nrk_led_set+0x8>
    2472:	80 e0       	ldi	r24, 0x00	; 0
    2474:	09 c0       	rjmp	.+18     	; 0x2488 <nrk_led_set+0x1a>
    2476:	81 30       	cpi	r24, 0x01	; 1
    2478:	91 05       	cpc	r25, r1
    247a:	11 f4       	brne	.+4      	; 0x2480 <nrk_led_set+0x12>
    247c:	88 e0       	ldi	r24, 0x08	; 8
    247e:	04 c0       	rjmp	.+8      	; 0x2488 <nrk_led_set+0x1a>
    2480:	82 30       	cpi	r24, 0x02	; 2
    2482:	91 05       	cpc	r25, r1
    2484:	29 f4       	brne	.+10     	; 0x2490 <nrk_led_set+0x22>
    2486:	80 e1       	ldi	r24, 0x10	; 16
    2488:	0e 94 8b 10 	call	0x2116	; 0x2116 <nrk_gpio_clr>
    248c:	81 e0       	ldi	r24, 0x01	; 1
    248e:	08 95       	ret
    2490:	8f ef       	ldi	r24, 0xFF	; 255
    2492:	08 95       	ret

00002494 <putc1>:
    2494:	90 91 9b 00 	lds	r25, 0x009B
    2498:	95 ff       	sbrs	r25, 5
    249a:	fc cf       	rjmp	.-8      	; 0x2494 <putc1>
    249c:	90 91 9b 00 	lds	r25, 0x009B
    24a0:	9f 7d       	andi	r25, 0xDF	; 223
    24a2:	90 93 9b 00 	sts	0x009B, r25
    24a6:	80 93 9c 00 	sts	0x009C, r24
    24aa:	08 95       	ret

000024ac <setup_uart0>:
    24ac:	90 93 90 00 	sts	0x0090, r25
    24b0:	89 b9       	out	0x09, r24	; 9
    24b2:	86 e0       	ldi	r24, 0x06	; 6
    24b4:	80 93 95 00 	sts	0x0095, r24
    24b8:	52 98       	cbi	0x0a, 2	; 10
    24ba:	59 9a       	sbi	0x0b, 1	; 11
    24bc:	8a b1       	in	r24, 0x0a	; 10
    24be:	88 61       	ori	r24, 0x18	; 24
    24c0:	8a b9       	out	0x0a, r24	; 10
    24c2:	08 95       	ret

000024c4 <nrk_setup_uart>:
    24c4:	0f 93       	push	r16
    24c6:	1f 93       	push	r17
    24c8:	cf 93       	push	r28
    24ca:	df 93       	push	r29
    24cc:	0e 94 56 12 	call	0x24ac	; 0x24ac <setup_uart0>
    24d0:	cd e1       	ldi	r28, 0x1D	; 29
    24d2:	d0 e1       	ldi	r29, 0x10	; 16
    24d4:	08 e1       	ldi	r16, 0x18	; 24
    24d6:	10 e1       	ldi	r17, 0x10	; 16
    24d8:	ce 01       	movw	r24, r28
    24da:	b8 01       	movw	r22, r16
    24dc:	0e 94 8e 49 	call	0x931c	; 0x931c <fdevopen>
    24e0:	90 93 e8 07 	sts	0x07E8, r25
    24e4:	80 93 e7 07 	sts	0x07E7, r24
    24e8:	ce 01       	movw	r24, r28
    24ea:	b8 01       	movw	r22, r16
    24ec:	0e 94 8e 49 	call	0x931c	; 0x931c <fdevopen>
    24f0:	90 93 e6 07 	sts	0x07E6, r25
    24f4:	80 93 e5 07 	sts	0x07E5, r24
    24f8:	df 91       	pop	r29
    24fa:	cf 91       	pop	r28
    24fc:	1f 91       	pop	r17
    24fe:	0f 91       	pop	r16
    2500:	08 95       	ret

00002502 <setup_uart1>:
    2502:	90 93 98 00 	sts	0x0098, r25
    2506:	80 93 99 00 	sts	0x0099, r24
    250a:	86 e0       	ldi	r24, 0x06	; 6
    250c:	80 93 9d 00 	sts	0x009D, r24
    2510:	ea e9       	ldi	r30, 0x9A	; 154
    2512:	f0 e0       	ldi	r31, 0x00	; 0
    2514:	80 81       	ld	r24, Z
    2516:	8b 7f       	andi	r24, 0xFB	; 251
    2518:	80 83       	st	Z, r24
    251a:	ab e9       	ldi	r26, 0x9B	; 155
    251c:	b0 e0       	ldi	r27, 0x00	; 0
    251e:	8c 91       	ld	r24, X
    2520:	82 60       	ori	r24, 0x02	; 2
    2522:	8c 93       	st	X, r24
    2524:	80 81       	ld	r24, Z
    2526:	88 61       	ori	r24, 0x18	; 24
    2528:	80 83       	st	Z, r24
    252a:	08 95       	ret

0000252c <getc1>:
    252c:	80 91 9b 00 	lds	r24, 0x009B
    2530:	87 ff       	sbrs	r24, 7
    2532:	fc cf       	rjmp	.-8      	; 0x252c <getc1>
    2534:	80 91 9b 00 	lds	r24, 0x009B
    2538:	8f 77       	andi	r24, 0x7F	; 127
    253a:	80 93 9b 00 	sts	0x009B, r24
    253e:	80 91 9c 00 	lds	r24, 0x009C
    2542:	08 95       	ret

00002544 <halWait>:
    2544:	00 00       	nop
    2546:	00 00       	nop
    2548:	00 00       	nop
    254a:	00 00       	nop
    254c:	01 97       	sbiw	r24, 0x01	; 1
    254e:	d1 f7       	brne	.-12     	; 0x2544 <halWait>
    2550:	08 95       	ret

00002552 <nrk_eeprom_read_byte>:
    2552:	0e 94 1e 4b 	call	0x963c	; 0x963c <__eerd_byte_m128>
    2556:	08 95       	ret

00002558 <nrk_eeprom_write_byte>:
    2558:	0e 94 26 4b 	call	0x964c	; 0x964c <__eewr_byte_m128>
    255c:	80 e0       	ldi	r24, 0x00	; 0
    255e:	08 95       	ret

00002560 <read_eeprom_mac_address>:
    2560:	ef 92       	push	r14
    2562:	ff 92       	push	r15
    2564:	0f 93       	push	r16
    2566:	1f 93       	push	r17
    2568:	cf 93       	push	r28
    256a:	df 93       	push	r29
    256c:	e8 2e       	mov	r14, r24
    256e:	e7 01       	movw	r28, r14
    2570:	7e 01       	movw	r14, r28
    2572:	f9 2e       	mov	r15, r25
    2574:	e7 01       	movw	r28, r14
    2576:	80 e0       	ldi	r24, 0x00	; 0
    2578:	90 e0       	ldi	r25, 0x00	; 0
    257a:	0e 94 1e 4b 	call	0x963c	; 0x963c <__eerd_byte_m128>
    257e:	08 2f       	mov	r16, r24
    2580:	8b 83       	std	Y+3, r24	; 0x03
    2582:	81 e0       	ldi	r24, 0x01	; 1
    2584:	90 e0       	ldi	r25, 0x00	; 0
    2586:	0e 94 1e 4b 	call	0x963c	; 0x963c <__eerd_byte_m128>
    258a:	e8 2e       	mov	r14, r24
    258c:	8a 83       	std	Y+2, r24	; 0x02
    258e:	82 e0       	ldi	r24, 0x02	; 2
    2590:	90 e0       	ldi	r25, 0x00	; 0
    2592:	0e 94 1e 4b 	call	0x963c	; 0x963c <__eerd_byte_m128>
    2596:	f8 2e       	mov	r15, r24
    2598:	89 83       	std	Y+1, r24	; 0x01
    259a:	83 e0       	ldi	r24, 0x03	; 3
    259c:	90 e0       	ldi	r25, 0x00	; 0
    259e:	0e 94 1e 4b 	call	0x963c	; 0x963c <__eerd_byte_m128>
    25a2:	18 2f       	mov	r17, r24
    25a4:	88 83       	st	Y, r24
    25a6:	84 e0       	ldi	r24, 0x04	; 4
    25a8:	90 e0       	ldi	r25, 0x00	; 0
    25aa:	0e 94 1e 4b 	call	0x963c	; 0x963c <__eerd_byte_m128>
    25ae:	fe 0c       	add	r15, r14
    25b0:	f0 0e       	add	r15, r16
    25b2:	f1 0e       	add	r15, r17
    25b4:	8f 15       	cp	r24, r15
    25b6:	11 f4       	brne	.+4      	; 0x25bc <read_eeprom_mac_address+0x5c>
    25b8:	81 e0       	ldi	r24, 0x01	; 1
    25ba:	01 c0       	rjmp	.+2      	; 0x25be <read_eeprom_mac_address+0x5e>
    25bc:	8f ef       	ldi	r24, 0xFF	; 255
    25be:	df 91       	pop	r29
    25c0:	cf 91       	pop	r28
    25c2:	1f 91       	pop	r17
    25c4:	0f 91       	pop	r16
    25c6:	ff 90       	pop	r15
    25c8:	ef 90       	pop	r14
    25ca:	08 95       	ret

000025cc <read_eeprom_channel>:
    25cc:	cf 93       	push	r28
    25ce:	df 93       	push	r29
    25d0:	ec 01       	movw	r28, r24
    25d2:	85 e0       	ldi	r24, 0x05	; 5
    25d4:	90 e0       	ldi	r25, 0x00	; 0
    25d6:	0e 94 1e 4b 	call	0x963c	; 0x963c <__eerd_byte_m128>
    25da:	88 83       	st	Y, r24
    25dc:	81 e0       	ldi	r24, 0x01	; 1
    25de:	df 91       	pop	r29
    25e0:	cf 91       	pop	r28
    25e2:	08 95       	ret

000025e4 <write_eeprom_load_img_pages>:
    25e4:	fc 01       	movw	r30, r24
    25e6:	86 e0       	ldi	r24, 0x06	; 6
    25e8:	90 e0       	ldi	r25, 0x00	; 0
    25ea:	60 81       	ld	r22, Z
    25ec:	0e 94 26 4b 	call	0x964c	; 0x964c <__eewr_byte_m128>
    25f0:	81 e0       	ldi	r24, 0x01	; 1
    25f2:	08 95       	ret

000025f4 <read_eeprom_load_img_pages>:
    25f4:	cf 93       	push	r28
    25f6:	df 93       	push	r29
    25f8:	ec 01       	movw	r28, r24
    25fa:	86 e0       	ldi	r24, 0x06	; 6
    25fc:	90 e0       	ldi	r25, 0x00	; 0
    25fe:	0e 94 1e 4b 	call	0x963c	; 0x963c <__eerd_byte_m128>
    2602:	88 83       	st	Y, r24
    2604:	81 e0       	ldi	r24, 0x01	; 1
    2606:	df 91       	pop	r29
    2608:	cf 91       	pop	r28
    260a:	08 95       	ret

0000260c <read_eeprom_aes_key>:
    260c:	0f 93       	push	r16
    260e:	1f 93       	push	r17
    2610:	cf 93       	push	r28
    2612:	df 93       	push	r29
    2614:	08 2f       	mov	r16, r24
    2616:	19 2f       	mov	r17, r25
    2618:	c8 e0       	ldi	r28, 0x08	; 8
    261a:	d0 e0       	ldi	r29, 0x00	; 0
    261c:	ce 01       	movw	r24, r28
    261e:	0e 94 1e 4b 	call	0x963c	; 0x963c <__eerd_byte_m128>
    2622:	f8 01       	movw	r30, r16
    2624:	81 93       	st	Z+, r24
    2626:	8f 01       	movw	r16, r30
    2628:	21 96       	adiw	r28, 0x01	; 1
    262a:	c8 31       	cpi	r28, 0x18	; 24
    262c:	d1 05       	cpc	r29, r1
    262e:	b1 f7       	brne	.-20     	; 0x261c <read_eeprom_aes_key+0x10>
    2630:	81 e0       	ldi	r24, 0x01	; 1
    2632:	df 91       	pop	r29
    2634:	cf 91       	pop	r28
    2636:	1f 91       	pop	r17
    2638:	0f 91       	pop	r16
    263a:	08 95       	ret

0000263c <write_eeprom_aes_key>:
    263c:	0f 93       	push	r16
    263e:	1f 93       	push	r17
    2640:	cf 93       	push	r28
    2642:	df 93       	push	r29
    2644:	08 2f       	mov	r16, r24
    2646:	19 2f       	mov	r17, r25
    2648:	c8 e0       	ldi	r28, 0x08	; 8
    264a:	d0 e0       	ldi	r29, 0x00	; 0
    264c:	f8 01       	movw	r30, r16
    264e:	61 91       	ld	r22, Z+
    2650:	8f 01       	movw	r16, r30
    2652:	ce 01       	movw	r24, r28
    2654:	0e 94 26 4b 	call	0x964c	; 0x964c <__eewr_byte_m128>
    2658:	21 96       	adiw	r28, 0x01	; 1
    265a:	c8 31       	cpi	r28, 0x18	; 24
    265c:	d1 05       	cpc	r29, r1
    265e:	b1 f7       	brne	.-20     	; 0x264c <write_eeprom_aes_key+0x10>
    2660:	81 e0       	ldi	r24, 0x01	; 1
    2662:	df 91       	pop	r29
    2664:	cf 91       	pop	r28
    2666:	1f 91       	pop	r17
    2668:	0f 91       	pop	r16
    266a:	08 95       	ret

0000266c <read_eeprom_current_image_checksum>:
    266c:	cf 93       	push	r28
    266e:	df 93       	push	r29
    2670:	ec 01       	movw	r28, r24
    2672:	87 e0       	ldi	r24, 0x07	; 7
    2674:	90 e0       	ldi	r25, 0x00	; 0
    2676:	0e 94 1e 4b 	call	0x963c	; 0x963c <__eerd_byte_m128>
    267a:	88 83       	st	Y, r24
    267c:	81 e0       	ldi	r24, 0x01	; 1
    267e:	df 91       	pop	r29
    2680:	cf 91       	pop	r28
    2682:	08 95       	ret

00002684 <write_eeprom_current_image_checksum>:
    2684:	fc 01       	movw	r30, r24
    2686:	87 e0       	ldi	r24, 0x07	; 7
    2688:	90 e0       	ldi	r25, 0x00	; 0
    268a:	60 81       	ld	r22, Z
    268c:	0e 94 26 4b 	call	0x964c	; 0x964c <__eewr_byte_m128>
    2690:	81 e0       	ldi	r24, 0x01	; 1
    2692:	08 95       	ret

00002694 <nrk_int_disable>:
    2694:	f8 94       	cli
    2696:	08 95       	ret

00002698 <nrk_int_enable>:
    2698:	78 94       	sei
    269a:	08 95       	ret

0000269c <nrk_halt>:
    269c:	0e 94 4a 13 	call	0x2694	; 0x2694 <nrk_int_disable>
    26a0:	ff cf       	rjmp	.-2      	; 0x26a0 <nrk_halt+0x4>

000026a2 <nrk_init>:
    26a2:	0f 93       	push	r16
    26a4:	1f 93       	push	r17
    26a6:	df 93       	push	r29
    26a8:	cf 93       	push	r28
    26aa:	cd b7       	in	r28, 0x3d	; 61
    26ac:	de b7       	in	r29, 0x3e	; 62
    26ae:	a3 97       	sbiw	r28, 0x23	; 35
    26b0:	0f b6       	in	r0, 0x3f	; 63
    26b2:	f8 94       	cli
    26b4:	de bf       	out	0x3e, r29	; 62
    26b6:	0f be       	out	0x3f, r0	; 63
    26b8:	cd bf       	out	0x3d, r28	; 61
    26ba:	0e 94 90 1f 	call	0x3f20	; 0x3f20 <nrk_signal_create>
    26be:	80 93 6d 07 	sts	0x076D, r24
    26c2:	8f 3f       	cpi	r24, 0xFF	; 255
    26c4:	21 f4       	brne	.+8      	; 0x26ce <nrk_init+0x2c>
    26c6:	8e e0       	ldi	r24, 0x0E	; 14
    26c8:	60 e0       	ldi	r22, 0x00	; 0
    26ca:	0e 94 5b 1d 	call	0x3ab6	; 0x3ab6 <nrk_kernel_error_add>
    26ce:	0e 94 2b 2e 	call	0x5c56	; 0x5c56 <_nrk_startup_error>
    26d2:	0e 94 9b 2e 	call	0x5d36	; 0x5d36 <nrk_watchdog_check>
    26d6:	8f 3f       	cpi	r24, 0xFF	; 255
    26d8:	31 f4       	brne	.+12     	; 0x26e6 <nrk_init+0x44>
    26da:	0e 94 80 2e 	call	0x5d00	; 0x5d00 <nrk_watchdog_disable>
    26de:	80 e1       	ldi	r24, 0x10	; 16
    26e0:	60 e0       	ldi	r22, 0x00	; 0
    26e2:	0e 94 5b 1d 	call	0x3ab6	; 0x3ab6 <nrk_kernel_error_add>
    26e6:	0e 94 8d 2e 	call	0x5d1a	; 0x5d1a <nrk_watchdog_enable>
    26ea:	10 92 70 07 	sts	0x0770, r1
    26ee:	10 92 7e 07 	sts	0x077E, r1
    26f2:	10 92 7d 07 	sts	0x077D, r1
    26f6:	10 92 6f 07 	sts	0x076F, r1
    26fa:	10 92 6e 07 	sts	0x076E, r1
    26fe:	10 92 7f 07 	sts	0x077F, r1
    2702:	0e 94 43 15 	call	0x2a86	; 0x2a86 <nrk_stats_reset>
    2706:	10 92 7c 07 	sts	0x077C, r1
    270a:	8f ef       	ldi	r24, 0xFF	; 255
    270c:	80 93 69 07 	sts	0x0769, r24
    2710:	80 93 6b 07 	sts	0x076B, r24
    2714:	80 93 6a 07 	sts	0x076A, r24
    2718:	93 e6       	ldi	r25, 0x63	; 99
    271a:	90 93 cc 06 	sts	0x06CC, r25
    271e:	80 93 ca 06 	sts	0x06CA, r24
    2722:	90 93 ed 06 	sts	0x06ED, r25
    2726:	80 93 eb 06 	sts	0x06EB, r24
    272a:	90 93 0e 07 	sts	0x070E, r25
    272e:	80 93 0c 07 	sts	0x070C, r24
    2732:	90 93 2f 07 	sts	0x072F, r25
    2736:	80 93 2d 07 	sts	0x072D, r24
    273a:	90 93 50 07 	sts	0x0750, r25
    273e:	80 93 4e 07 	sts	0x074E, r24
    2742:	ec eb       	ldi	r30, 0xBC	; 188
    2744:	f7 e0       	ldi	r31, 0x07	; 7
    2746:	20 e0       	ldi	r18, 0x00	; 0
    2748:	30 e0       	ldi	r19, 0x00	; 0
    274a:	01 c0       	rjmp	.+2      	; 0x274e <nrk_init+0xac>
    274c:	9a 01       	movw	r18, r20
    274e:	a9 01       	movw	r20, r18
    2750:	4f 5f       	subi	r20, 0xFF	; 255
    2752:	5f 4f       	sbci	r21, 0xFF	; 255
    2754:	ca 01       	movw	r24, r20
    2756:	88 0f       	add	r24, r24
    2758:	99 1f       	adc	r25, r25
    275a:	88 0f       	add	r24, r24
    275c:	99 1f       	adc	r25, r25
    275e:	84 0f       	add	r24, r20
    2760:	95 1f       	adc	r25, r21
    2762:	87 54       	subi	r24, 0x47	; 71
    2764:	98 4f       	sbci	r25, 0xF8	; 248
    2766:	91 83       	std	Z+1, r25	; 0x01
    2768:	80 83       	st	Z, r24
    276a:	c9 01       	movw	r24, r18
    276c:	88 0f       	add	r24, r24
    276e:	99 1f       	adc	r25, r25
    2770:	88 0f       	add	r24, r24
    2772:	99 1f       	adc	r25, r25
    2774:	82 0f       	add	r24, r18
    2776:	93 1f       	adc	r25, r19
    2778:	87 54       	subi	r24, 0x47	; 71
    277a:	98 4f       	sbci	r25, 0xF8	; 248
    277c:	94 83       	std	Z+4, r25	; 0x04
    277e:	83 83       	std	Z+3, r24	; 0x03
    2780:	35 96       	adiw	r30, 0x05	; 5
    2782:	45 30       	cpi	r20, 0x05	; 5
    2784:	51 05       	cpc	r21, r1
    2786:	11 f7       	brne	.-60     	; 0x274c <nrk_init+0xaa>
    2788:	10 92 bb 07 	sts	0x07BB, r1
    278c:	10 92 ba 07 	sts	0x07BA, r1
    2790:	10 92 d6 07 	sts	0x07D6, r1
    2794:	10 92 d5 07 	sts	0x07D5, r1
    2798:	10 92 73 07 	sts	0x0773, r1
    279c:	10 92 72 07 	sts	0x0772, r1
    27a0:	89 eb       	ldi	r24, 0xB9	; 185
    27a2:	97 e0       	ldi	r25, 0x07	; 7
    27a4:	90 93 c1 06 	sts	0x06C1, r25
    27a8:	80 93 c0 06 	sts	0x06C0, r24
    27ac:	8e 01       	movw	r16, r28
    27ae:	0f 5f       	subi	r16, 0xFF	; 255
    27b0:	1f 4f       	sbci	r17, 0xFF	; 255
    27b2:	c8 01       	movw	r24, r16
    27b4:	63 e9       	ldi	r22, 0x93	; 147
    27b6:	78 e2       	ldi	r23, 0x28	; 40
    27b8:	0e 94 a5 2e 	call	0x5d4a	; 0x5d4a <nrk_task_set_entry_function>
    27bc:	c8 01       	movw	r24, r16
    27be:	62 e8       	ldi	r22, 0x82	; 130
    27c0:	75 e0       	ldi	r23, 0x05	; 5
    27c2:	40 e8       	ldi	r20, 0x80	; 128
    27c4:	50 e0       	ldi	r21, 0x00	; 0
    27c6:	0e 94 eb 2e 	call	0x5dd6	; 0x5dd6 <nrk_task_set_stk>
    27ca:	85 e5       	ldi	r24, 0x55	; 85
    27cc:	80 93 82 05 	sts	0x0582, r24
    27d0:	19 86       	std	Y+9, r1	; 0x09
    27d2:	1c 86       	std	Y+12, r1	; 0x0c
    27d4:	1d 86       	std	Y+13, r1	; 0x0d
    27d6:	1e 86       	std	Y+14, r1	; 0x0e
    27d8:	1f 86       	std	Y+15, r1	; 0x0f
    27da:	18 8a       	std	Y+16, r1	; 0x10
    27dc:	19 8a       	std	Y+17, r1	; 0x11
    27de:	1a 8a       	std	Y+18, r1	; 0x12
    27e0:	1b 8a       	std	Y+19, r1	; 0x13
    27e2:	1c 8a       	std	Y+20, r1	; 0x14
    27e4:	1d 8a       	std	Y+21, r1	; 0x15
    27e6:	1e 8a       	std	Y+22, r1	; 0x16
    27e8:	1f 8a       	std	Y+23, r1	; 0x17
    27ea:	18 8e       	std	Y+24, r1	; 0x18
    27ec:	19 8e       	std	Y+25, r1	; 0x19
    27ee:	1a 8e       	std	Y+26, r1	; 0x1a
    27f0:	1b 8e       	std	Y+27, r1	; 0x1b
    27f2:	1c 8e       	std	Y+28, r1	; 0x1c
    27f4:	1d 8e       	std	Y+29, r1	; 0x1d
    27f6:	1e 8e       	std	Y+30, r1	; 0x1e
    27f8:	1f 8e       	std	Y+31, r1	; 0x1f
    27fa:	18 a2       	std	Y+32, r1	; 0x20
    27fc:	19 a2       	std	Y+33, r1	; 0x21
    27fe:	1a a2       	std	Y+34, r1	; 0x22
    2800:	1b a2       	std	Y+35, r1	; 0x23
    2802:	81 e0       	ldi	r24, 0x01	; 1
    2804:	88 87       	std	Y+8, r24	; 0x08
    2806:	92 e0       	ldi	r25, 0x02	; 2
    2808:	9a 87       	std	Y+10, r25	; 0x0a
    280a:	8b 87       	std	Y+11, r24	; 0x0b
    280c:	c8 01       	movw	r24, r16
    280e:	0e 94 7b 23 	call	0x46f6	; 0x46f6 <nrk_activate_task>
    2812:	a3 96       	adiw	r28, 0x23	; 35
    2814:	0f b6       	in	r0, 0x3f	; 63
    2816:	f8 94       	cli
    2818:	de bf       	out	0x3e, r29	; 62
    281a:	0f be       	out	0x3f, r0	; 63
    281c:	cd bf       	out	0x3d, r28	; 61
    281e:	cf 91       	pop	r28
    2820:	df 91       	pop	r29
    2822:	1f 91       	pop	r17
    2824:	0f 91       	pop	r16
    2826:	08 95       	ret

00002828 <nrk_start>:
    2828:	cf 92       	push	r12
    282a:	df 92       	push	r13
    282c:	ff 92       	push	r15
    282e:	0f 93       	push	r16
    2830:	1f 93       	push	r17
    2832:	df 93       	push	r29
    2834:	cf 93       	push	r28
    2836:	00 d0       	rcall	.+0      	; 0x2838 <nrk_start+0x10>
    2838:	cd b7       	in	r28, 0x3d	; 61
    283a:	de b7       	in	r29, 0x3e	; 62
    283c:	ba ec       	ldi	r27, 0xCA	; 202
    283e:	cb 2e       	mov	r12, r27
    2840:	b6 e0       	ldi	r27, 0x06	; 6
    2842:	db 2e       	mov	r13, r27
    2844:	90 e0       	ldi	r25, 0x00	; 0
    2846:	f6 01       	movw	r30, r12
    2848:	f0 80       	ld	r15, Z
    284a:	ff 2d       	mov	r31, r15
    284c:	ff 3f       	cpi	r31, 0xFF	; 255
    284e:	b1 f0       	breq	.+44     	; 0x287c <nrk_start+0x54>
    2850:	0a ec       	ldi	r16, 0xCA	; 202
    2852:	16 e0       	ldi	r17, 0x06	; 6
    2854:	20 e0       	ldi	r18, 0x00	; 0
    2856:	92 17       	cp	r25, r18
    2858:	61 f0       	breq	.+24     	; 0x2872 <nrk_start+0x4a>
    285a:	f8 01       	movw	r30, r16
    285c:	80 81       	ld	r24, Z
    285e:	f8 16       	cp	r15, r24
    2860:	41 f4       	brne	.+16     	; 0x2872 <nrk_start+0x4a>
    2862:	85 e0       	ldi	r24, 0x05	; 5
    2864:	6f 2d       	mov	r22, r15
    2866:	29 83       	std	Y+1, r18	; 0x01
    2868:	9a 83       	std	Y+2, r25	; 0x02
    286a:	0e 94 5b 1d 	call	0x3ab6	; 0x3ab6 <nrk_kernel_error_add>
    286e:	9a 81       	ldd	r25, Y+2	; 0x02
    2870:	29 81       	ldd	r18, Y+1	; 0x01
    2872:	2f 5f       	subi	r18, 0xFF	; 255
    2874:	0f 5d       	subi	r16, 0xDF	; 223
    2876:	1f 4f       	sbci	r17, 0xFF	; 255
    2878:	25 30       	cpi	r18, 0x05	; 5
    287a:	69 f7       	brne	.-38     	; 0x2856 <nrk_start+0x2e>
    287c:	9f 5f       	subi	r25, 0xFF	; 255
    287e:	21 e2       	ldi	r18, 0x21	; 33
    2880:	30 e0       	ldi	r19, 0x00	; 0
    2882:	c2 0e       	add	r12, r18
    2884:	d3 1e       	adc	r13, r19
    2886:	95 30       	cpi	r25, 0x05	; 5
    2888:	f1 f6       	brne	.-68     	; 0x2846 <nrk_start+0x1e>
    288a:	0e 94 78 22 	call	0x44f0	; 0x44f0 <nrk_get_high_ready_task_ID>
    288e:	99 27       	eor	r25, r25
    2890:	87 fd       	sbrc	r24, 7
    2892:	90 95       	com	r25
    2894:	fc 01       	movw	r30, r24
    2896:	a5 e0       	ldi	r26, 0x05	; 5
    2898:	ee 0f       	add	r30, r30
    289a:	ff 1f       	adc	r31, r31
    289c:	aa 95       	dec	r26
    289e:	e1 f7       	brne	.-8      	; 0x2898 <nrk_start+0x70>
    28a0:	e8 0f       	add	r30, r24
    28a2:	f9 1f       	adc	r31, r25
    28a4:	ee 53       	subi	r30, 0x3E	; 62
    28a6:	f9 4f       	sbci	r31, 0xF9	; 249
    28a8:	82 85       	ldd	r24, Z+10	; 0x0a
    28aa:	80 93 7f 07 	sts	0x077F, r24
    28ae:	f0 93 7e 07 	sts	0x077E, r31
    28b2:	e0 93 7d 07 	sts	0x077D, r30
    28b6:	f0 93 6f 07 	sts	0x076F, r31
    28ba:	e0 93 6e 07 	sts	0x076E, r30
    28be:	80 93 70 07 	sts	0x0770, r24
    28c2:	0e 94 20 2f 	call	0x5e40	; 0x5e40 <nrk_target_start>
    28c6:	0e 94 11 2f 	call	0x5e22	; 0x5e22 <nrk_stack_pointer_init>
    28ca:	0e 94 6d 3a 	call	0x74da	; 0x74da <nrk_start_high_ready_task>
    28ce:	ff cf       	rjmp	.-2      	; 0x28ce <nrk_start+0xa6>

000028d0 <nrk_TCB_init>:
    28d0:	ef 92       	push	r14
    28d2:	ff 92       	push	r15
    28d4:	0f 93       	push	r16
    28d6:	1f 93       	push	r17
    28d8:	cf 93       	push	r28
    28da:	df 93       	push	r29
    28dc:	ec 01       	movw	r28, r24
    28de:	7b 01       	movw	r14, r22
    28e0:	8a 01       	movw	r16, r20
    28e2:	89 85       	ldd	r24, Y+9	; 0x09
    28e4:	82 30       	cpi	r24, 0x02	; 2
    28e6:	21 f0       	breq	.+8      	; 0x28f0 <nrk_TCB_init+0x20>
    28e8:	80 91 6c 07 	lds	r24, 0x076C
    28ec:	88 83       	st	Y, r24
    28ee:	01 c0       	rjmp	.+2      	; 0x28f2 <nrk_TCB_init+0x22>
    28f0:	18 82       	st	Y, r1
    28f2:	80 91 6c 07 	lds	r24, 0x076C
    28f6:	85 30       	cpi	r24, 0x05	; 5
    28f8:	20 f0       	brcs	.+8      	; 0x2902 <nrk_TCB_init+0x32>
    28fa:	87 e0       	ldi	r24, 0x07	; 7
    28fc:	60 e0       	ldi	r22, 0x00	; 0
    28fe:	0e 94 5b 1d 	call	0x3ab6	; 0x3ab6 <nrk_kernel_error_add>
    2902:	89 85       	ldd	r24, Y+9	; 0x09
    2904:	82 30       	cpi	r24, 0x02	; 2
    2906:	29 f0       	breq	.+10     	; 0x2912 <nrk_TCB_init+0x42>
    2908:	80 91 6c 07 	lds	r24, 0x076C
    290c:	8f 5f       	subi	r24, 0xFF	; 255
    290e:	80 93 6c 07 	sts	0x076C, r24
    2912:	80 91 6c 07 	lds	r24, 0x076C
    2916:	88 23       	and	r24, r24
    2918:	19 f4       	brne	.+6      	; 0x2920 <nrk_TCB_init+0x50>
    291a:	81 e0       	ldi	r24, 0x01	; 1
    291c:	80 93 6c 07 	sts	0x076C, r24
    2920:	88 81       	ld	r24, Y
    2922:	99 27       	eor	r25, r25
    2924:	87 fd       	sbrc	r24, 7
    2926:	90 95       	com	r25
    2928:	fc 01       	movw	r30, r24
    292a:	a5 e0       	ldi	r26, 0x05	; 5
    292c:	ee 0f       	add	r30, r30
    292e:	ff 1f       	adc	r31, r31
    2930:	aa 95       	dec	r26
    2932:	e1 f7       	brne	.-8      	; 0x292c <nrk_TCB_init+0x5c>
    2934:	e8 0f       	add	r30, r24
    2936:	f9 1f       	adc	r31, r25
    2938:	ee 53       	subi	r30, 0x3E	; 62
    293a:	f9 4f       	sbci	r31, 0xF9	; 249
    293c:	f1 82       	std	Z+1, r15	; 0x01
    293e:	e0 82       	st	Z, r14
    2940:	88 85       	ldd	r24, Y+8	; 0x08
    2942:	82 87       	std	Z+10, r24	; 0x0a
    2944:	88 81       	ld	r24, Y
    2946:	99 27       	eor	r25, r25
    2948:	87 fd       	sbrc	r24, 7
    294a:	90 95       	com	r25
    294c:	fc 01       	movw	r30, r24
    294e:	75 e0       	ldi	r23, 0x05	; 5
    2950:	ee 0f       	add	r30, r30
    2952:	ff 1f       	adc	r31, r31
    2954:	7a 95       	dec	r23
    2956:	e1 f7       	brne	.-8      	; 0x2950 <nrk_TCB_init+0x80>
    2958:	e8 0f       	add	r30, r24
    295a:	f9 1f       	adc	r31, r25
    295c:	ee 53       	subi	r30, 0x3E	; 62
    295e:	f9 4f       	sbci	r31, 0xF9	; 249
    2960:	83 e0       	ldi	r24, 0x03	; 3
    2962:	81 87       	std	Z+9, r24	; 0x09
    2964:	28 81       	ld	r18, Y
    2966:	82 2f       	mov	r24, r18
    2968:	99 27       	eor	r25, r25
    296a:	87 fd       	sbrc	r24, 7
    296c:	90 95       	com	r25
    296e:	fc 01       	movw	r30, r24
    2970:	65 e0       	ldi	r22, 0x05	; 5
    2972:	ee 0f       	add	r30, r30
    2974:	ff 1f       	adc	r31, r31
    2976:	6a 95       	dec	r22
    2978:	e1 f7       	brne	.-8      	; 0x2972 <nrk_TCB_init+0xa2>
    297a:	e8 0f       	add	r30, r24
    297c:	f9 1f       	adc	r31, r25
    297e:	ee 53       	subi	r30, 0x3E	; 62
    2980:	f9 4f       	sbci	r31, 0xF9	; 249
    2982:	20 87       	std	Z+8, r18	; 0x08
    2984:	88 81       	ld	r24, Y
    2986:	99 27       	eor	r25, r25
    2988:	87 fd       	sbrc	r24, 7
    298a:	90 95       	com	r25
    298c:	7c 01       	movw	r14, r24
    298e:	55 e0       	ldi	r21, 0x05	; 5
    2990:	ee 0c       	add	r14, r14
    2992:	ff 1c       	adc	r15, r15
    2994:	5a 95       	dec	r21
    2996:	e1 f7       	brne	.-8      	; 0x2990 <nrk_TCB_init+0xc0>
    2998:	e8 0e       	add	r14, r24
    299a:	f9 1e       	adc	r15, r25
    299c:	82 ec       	ldi	r24, 0xC2	; 194
    299e:	96 e0       	ldi	r25, 0x06	; 6
    29a0:	e8 0e       	add	r14, r24
    29a2:	f9 1e       	adc	r15, r25
    29a4:	f7 01       	movw	r30, r14
    29a6:	15 82       	std	Z+5, r1	; 0x05
    29a8:	ce 01       	movw	r24, r28
    29aa:	0b 96       	adiw	r24, 0x0b	; 11
    29ac:	0e 94 44 27 	call	0x4e88	; 0x4e88 <_nrk_time_to_ticks>
    29b0:	f7 01       	movw	r30, r14
    29b2:	94 8f       	std	Z+28, r25	; 0x1c
    29b4:	83 8f       	std	Z+27, r24	; 0x1b
    29b6:	8b 85       	ldd	r24, Y+11	; 0x0b
    29b8:	9c 85       	ldd	r25, Y+12	; 0x0c
    29ba:	ad 85       	ldd	r26, Y+13	; 0x0d
    29bc:	be 85       	ldd	r27, Y+14	; 0x0e
    29be:	8e 33       	cpi	r24, 0x3E	; 62
    29c0:	91 05       	cpc	r25, r1
    29c2:	a1 05       	cpc	r26, r1
    29c4:	b1 05       	cpc	r27, r1
    29c6:	20 f0       	brcs	.+8      	; 0x29d0 <nrk_TCB_init+0x100>
    29c8:	86 e1       	ldi	r24, 0x16	; 22
    29ca:	68 81       	ld	r22, Y
    29cc:	0e 94 5b 1d 	call	0x3ab6	; 0x3ab6 <nrk_kernel_error_add>
    29d0:	e8 80       	ld	r14, Y
    29d2:	ff 24       	eor	r15, r15
    29d4:	e7 fc       	sbrc	r14, 7
    29d6:	f0 94       	com	r15
    29d8:	ce 01       	movw	r24, r28
    29da:	4b 96       	adiw	r24, 0x1b	; 27
    29dc:	0e 94 44 27 	call	0x4e88	; 0x4e88 <_nrk_time_to_ticks>
    29e0:	f7 01       	movw	r30, r14
    29e2:	45 e0       	ldi	r20, 0x05	; 5
    29e4:	ee 0f       	add	r30, r30
    29e6:	ff 1f       	adc	r31, r31
    29e8:	4a 95       	dec	r20
    29ea:	e1 f7       	brne	.-8      	; 0x29e4 <nrk_TCB_init+0x114>
    29ec:	ee 0d       	add	r30, r14
    29ee:	ff 1d       	adc	r31, r15
    29f0:	ee 53       	subi	r30, 0x3E	; 62
    29f2:	f9 4f       	sbci	r31, 0xF9	; 249
    29f4:	96 8b       	std	Z+22, r25	; 0x16
    29f6:	85 8b       	std	Z+21, r24	; 0x15
    29f8:	88 81       	ld	r24, Y
    29fa:	99 27       	eor	r25, r25
    29fc:	87 fd       	sbrc	r24, 7
    29fe:	90 95       	com	r25
    2a00:	7c 01       	movw	r14, r24
    2a02:	35 e0       	ldi	r19, 0x05	; 5
    2a04:	ee 0c       	add	r14, r14
    2a06:	ff 1c       	adc	r15, r15
    2a08:	3a 95       	dec	r19
    2a0a:	e1 f7       	brne	.-8      	; 0x2a04 <nrk_TCB_init+0x134>
    2a0c:	e8 0e       	add	r14, r24
    2a0e:	f9 1e       	adc	r15, r25
    2a10:	82 ec       	ldi	r24, 0xC2	; 194
    2a12:	96 e0       	ldi	r25, 0x06	; 6
    2a14:	e8 0e       	add	r14, r24
    2a16:	f9 1e       	adc	r15, r25
    2a18:	f7 01       	movw	r30, r14
    2a1a:	85 89       	ldd	r24, Z+21	; 0x15
    2a1c:	96 89       	ldd	r25, Z+22	; 0x16
    2a1e:	23 8d       	ldd	r18, Z+27	; 0x1b
    2a20:	34 8d       	ldd	r19, Z+28	; 0x1c
    2a22:	82 0f       	add	r24, r18
    2a24:	93 1f       	adc	r25, r19
    2a26:	90 8f       	std	Z+24, r25	; 0x18
    2a28:	87 8b       	std	Z+23, r24	; 0x17
    2a2a:	ce 01       	movw	r24, r28
    2a2c:	43 96       	adiw	r24, 0x13	; 19
    2a2e:	0e 94 44 27 	call	0x4e88	; 0x4e88 <_nrk_time_to_ticks>
    2a32:	f7 01       	movw	r30, r14
    2a34:	96 8f       	std	Z+30, r25	; 0x1e
    2a36:	85 8f       	std	Z+29, r24	; 0x1d
    2a38:	88 81       	ld	r24, Y
    2a3a:	99 27       	eor	r25, r25
    2a3c:	87 fd       	sbrc	r24, 7
    2a3e:	90 95       	com	r25
    2a40:	fc 01       	movw	r30, r24
    2a42:	25 e0       	ldi	r18, 0x05	; 5
    2a44:	ee 0f       	add	r30, r30
    2a46:	ff 1f       	adc	r31, r31
    2a48:	2a 95       	dec	r18
    2a4a:	e1 f7       	brne	.-8      	; 0x2a44 <nrk_TCB_init+0x174>
    2a4c:	e8 0f       	add	r30, r24
    2a4e:	f9 1f       	adc	r31, r25
    2a50:	ee 53       	subi	r30, 0x3E	; 62
    2a52:	f9 4f       	sbci	r31, 0xF9	; 249
    2a54:	85 8d       	ldd	r24, Z+29	; 0x1d
    2a56:	96 8d       	ldd	r25, Z+30	; 0x1e
    2a58:	92 8f       	std	Z+26, r25	; 0x1a
    2a5a:	81 8f       	std	Z+25, r24	; 0x19
    2a5c:	81 e0       	ldi	r24, 0x01	; 1
    2a5e:	90 e0       	ldi	r25, 0x00	; 0
    2a60:	90 a3       	std	Z+32, r25	; 0x20
    2a62:	87 8f       	std	Z+31, r24	; 0x1f
    2a64:	13 83       	std	Z+3, r17	; 0x03
    2a66:	02 83       	std	Z+2, r16	; 0x02
    2a68:	81 e0       	ldi	r24, 0x01	; 1
    2a6a:	84 87       	std	Z+12, r24	; 0x0c
    2a6c:	df 91       	pop	r29
    2a6e:	cf 91       	pop	r28
    2a70:	1f 91       	pop	r17
    2a72:	0f 91       	pop	r16
    2a74:	ff 90       	pop	r15
    2a76:	ef 90       	pop	r14
    2a78:	08 95       	ret

00002a7a <_nrk_timer_tick>:
    2a7a:	0e 94 b9 28 	call	0x5172	; 0x5172 <_nrk_scheduler>
    2a7e:	08 95       	ret

00002a80 <nrk_version>:
    2a80:	85 e6       	ldi	r24, 0x65	; 101
    2a82:	90 e0       	ldi	r25, 0x00	; 0
    2a84:	08 95       	ret

00002a86 <nrk_stats_reset>:
    2a86:	10 92 b8 03 	sts	0x03B8, r1
    2a8a:	10 92 b9 03 	sts	0x03B9, r1
    2a8e:	10 92 ba 03 	sts	0x03BA, r1
    2a92:	10 92 bb 03 	sts	0x03BB, r1
    2a96:	10 92 bc 03 	sts	0x03BC, r1
    2a9a:	10 92 bd 03 	sts	0x03BD, r1
    2a9e:	10 92 be 03 	sts	0x03BE, r1
    2aa2:	10 92 bf 03 	sts	0x03BF, r1
    2aa6:	eb ee       	ldi	r30, 0xEB	; 235
    2aa8:	f4 e0       	ldi	r31, 0x04	; 4
    2aaa:	10 82       	st	Z, r1
    2aac:	11 82       	std	Z+1, r1	; 0x01
    2aae:	12 82       	std	Z+2, r1	; 0x02
    2ab0:	13 82       	std	Z+3, r1	; 0x03
    2ab2:	10 86       	std	Z+8, r1	; 0x08
    2ab4:	11 86       	std	Z+9, r1	; 0x09
    2ab6:	12 86       	std	Z+10, r1	; 0x0a
    2ab8:	13 86       	std	Z+11, r1	; 0x0b
    2aba:	14 82       	std	Z+4, r1	; 0x04
    2abc:	15 82       	std	Z+5, r1	; 0x05
    2abe:	16 82       	std	Z+6, r1	; 0x06
    2ac0:	17 82       	std	Z+7, r1	; 0x07
    2ac2:	14 86       	std	Z+12, r1	; 0x0c
    2ac4:	15 86       	std	Z+13, r1	; 0x0d
    2ac6:	16 86       	std	Z+14, r1	; 0x0e
    2ac8:	17 86       	std	Z+15, r1	; 0x0f
    2aca:	10 8a       	std	Z+16, r1	; 0x10
    2acc:	11 8a       	std	Z+17, r1	; 0x11
    2ace:	12 8a       	std	Z+18, r1	; 0x12
    2ad0:	13 8a       	std	Z+19, r1	; 0x13
    2ad2:	10 8e       	std	Z+24, r1	; 0x18
    2ad4:	11 8e       	std	Z+25, r1	; 0x19
    2ad6:	12 8e       	std	Z+26, r1	; 0x1a
    2ad8:	13 8e       	std	Z+27, r1	; 0x1b
    2ada:	14 8e       	std	Z+28, r1	; 0x1c
    2adc:	15 8e       	std	Z+29, r1	; 0x1d
    2ade:	7e 96       	adiw	r30, 0x1e	; 30
    2ae0:	85 e0       	ldi	r24, 0x05	; 5
    2ae2:	e1 38       	cpi	r30, 0x81	; 129
    2ae4:	f8 07       	cpc	r31, r24
    2ae6:	09 f7       	brne	.-62     	; 0x2aaa <nrk_stats_reset+0x24>
    2ae8:	08 95       	ret

00002aea <_nrk_stats_sleep>:
    2aea:	68 2f       	mov	r22, r24
    2aec:	70 e0       	ldi	r23, 0x00	; 0
    2aee:	80 e0       	ldi	r24, 0x00	; 0
    2af0:	90 e0       	ldi	r25, 0x00	; 0
    2af2:	23 eb       	ldi	r18, 0xB3	; 179
    2af4:	36 ee       	ldi	r19, 0xE6	; 230
    2af6:	4e e0       	ldi	r20, 0x0E	; 14
    2af8:	50 e0       	ldi	r21, 0x00	; 0
    2afa:	0e 94 14 48 	call	0x9028	; 0x9028 <__mulsi3>
    2afe:	20 91 bc 03 	lds	r18, 0x03BC
    2b02:	30 91 bd 03 	lds	r19, 0x03BD
    2b06:	40 91 be 03 	lds	r20, 0x03BE
    2b0a:	50 91 bf 03 	lds	r21, 0x03BF
    2b0e:	62 0f       	add	r22, r18
    2b10:	73 1f       	adc	r23, r19
    2b12:	84 1f       	adc	r24, r20
    2b14:	95 1f       	adc	r25, r21
    2b16:	60 93 bc 03 	sts	0x03BC, r22
    2b1a:	70 93 bd 03 	sts	0x03BD, r23
    2b1e:	80 93 be 03 	sts	0x03BE, r24
    2b22:	90 93 bf 03 	sts	0x03BF, r25
    2b26:	88 eb       	ldi	r24, 0xB8	; 184
    2b28:	93 e0       	ldi	r25, 0x03	; 3
    2b2a:	0e 94 b5 26 	call	0x4d6a	; 0x4d6a <nrk_time_compact_nanos>
    2b2e:	08 95       	ret

00002b30 <nrk_stats_get_deep_sleep>:
    2b30:	fc 01       	movw	r30, r24
    2b32:	20 91 b8 03 	lds	r18, 0x03B8
    2b36:	30 91 b9 03 	lds	r19, 0x03B9
    2b3a:	40 91 ba 03 	lds	r20, 0x03BA
    2b3e:	50 91 bb 03 	lds	r21, 0x03BB
    2b42:	20 83       	st	Z, r18
    2b44:	31 83       	std	Z+1, r19	; 0x01
    2b46:	42 83       	std	Z+2, r20	; 0x02
    2b48:	53 83       	std	Z+3, r21	; 0x03
    2b4a:	20 91 bc 03 	lds	r18, 0x03BC
    2b4e:	30 91 bd 03 	lds	r19, 0x03BD
    2b52:	40 91 be 03 	lds	r20, 0x03BE
    2b56:	50 91 bf 03 	lds	r21, 0x03BF
    2b5a:	24 83       	std	Z+4, r18	; 0x04
    2b5c:	35 83       	std	Z+5, r19	; 0x05
    2b5e:	46 83       	std	Z+6, r20	; 0x06
    2b60:	57 83       	std	Z+7, r21	; 0x07
    2b62:	08 95       	ret

00002b64 <_nrk_stats_add_violation>:
    2b64:	e8 2f       	mov	r30, r24
    2b66:	f0 e0       	ldi	r31, 0x00	; 0
    2b68:	9f 01       	movw	r18, r30
    2b6a:	22 0f       	add	r18, r18
    2b6c:	33 1f       	adc	r19, r19
    2b6e:	a5 e0       	ldi	r26, 0x05	; 5
    2b70:	ee 0f       	add	r30, r30
    2b72:	ff 1f       	adc	r31, r31
    2b74:	aa 95       	dec	r26
    2b76:	e1 f7       	brne	.-8      	; 0x2b70 <_nrk_stats_add_violation+0xc>
    2b78:	e2 1b       	sub	r30, r18
    2b7a:	f3 0b       	sbc	r31, r19
    2b7c:	e5 51       	subi	r30, 0x15	; 21
    2b7e:	fb 4f       	sbci	r31, 0xFB	; 251
    2b80:	95 8d       	ldd	r25, Z+29	; 0x1d
    2b82:	91 30       	cpi	r25, 0x01	; 1
    2b84:	89 f1       	breq	.+98     	; 0x2be8 <_nrk_stats_add_violation+0x84>
    2b86:	e8 2f       	mov	r30, r24
    2b88:	f0 e0       	ldi	r31, 0x00	; 0
    2b8a:	9f 01       	movw	r18, r30
    2b8c:	22 0f       	add	r18, r18
    2b8e:	33 1f       	adc	r19, r19
    2b90:	65 e0       	ldi	r22, 0x05	; 5
    2b92:	ee 0f       	add	r30, r30
    2b94:	ff 1f       	adc	r31, r31
    2b96:	6a 95       	dec	r22
    2b98:	e1 f7       	brne	.-8      	; 0x2b92 <_nrk_stats_add_violation+0x2e>
    2b9a:	e2 1b       	sub	r30, r18
    2b9c:	f3 0b       	sbc	r31, r19
    2b9e:	e5 51       	subi	r30, 0x15	; 21
    2ba0:	fb 4f       	sbci	r31, 0xFB	; 251
    2ba2:	94 8d       	ldd	r25, Z+28	; 0x1c
    2ba4:	9f 5f       	subi	r25, 0xFF	; 255
    2ba6:	e8 2f       	mov	r30, r24
    2ba8:	f0 e0       	ldi	r31, 0x00	; 0
    2baa:	9f 01       	movw	r18, r30
    2bac:	22 0f       	add	r18, r18
    2bae:	33 1f       	adc	r19, r19
    2bb0:	45 e0       	ldi	r20, 0x05	; 5
    2bb2:	ee 0f       	add	r30, r30
    2bb4:	ff 1f       	adc	r31, r31
    2bb6:	4a 95       	dec	r20
    2bb8:	e1 f7       	brne	.-8      	; 0x2bb2 <_nrk_stats_add_violation+0x4e>
    2bba:	e2 1b       	sub	r30, r18
    2bbc:	f3 0b       	sbc	r31, r19
    2bbe:	e5 51       	subi	r30, 0x15	; 21
    2bc0:	fb 4f       	sbci	r31, 0xFB	; 251
    2bc2:	94 8f       	std	Z+28, r25	; 0x1c
    2bc4:	9f 3f       	cpi	r25, 0xFF	; 255
    2bc6:	81 f4       	brne	.+32     	; 0x2be8 <_nrk_stats_add_violation+0x84>
    2bc8:	e8 2f       	mov	r30, r24
    2bca:	f0 e0       	ldi	r31, 0x00	; 0
    2bcc:	cf 01       	movw	r24, r30
    2bce:	88 0f       	add	r24, r24
    2bd0:	99 1f       	adc	r25, r25
    2bd2:	25 e0       	ldi	r18, 0x05	; 5
    2bd4:	ee 0f       	add	r30, r30
    2bd6:	ff 1f       	adc	r31, r31
    2bd8:	2a 95       	dec	r18
    2bda:	e1 f7       	brne	.-8      	; 0x2bd4 <_nrk_stats_add_violation+0x70>
    2bdc:	e8 1b       	sub	r30, r24
    2bde:	f9 0b       	sbc	r31, r25
    2be0:	e5 51       	subi	r30, 0x15	; 21
    2be2:	fb 4f       	sbci	r31, 0xFB	; 251
    2be4:	81 e0       	ldi	r24, 0x01	; 1
    2be6:	85 8f       	std	Z+29, r24	; 0x1d
    2be8:	08 95       	ret

00002bea <_nrk_stats_task_start>:
    2bea:	e8 2f       	mov	r30, r24
    2bec:	f0 e0       	ldi	r31, 0x00	; 0
    2bee:	9f 01       	movw	r18, r30
    2bf0:	22 0f       	add	r18, r18
    2bf2:	33 1f       	adc	r19, r19
    2bf4:	75 e0       	ldi	r23, 0x05	; 5
    2bf6:	ee 0f       	add	r30, r30
    2bf8:	ff 1f       	adc	r31, r31
    2bfa:	7a 95       	dec	r23
    2bfc:	e1 f7       	brne	.-8      	; 0x2bf6 <_nrk_stats_task_start+0xc>
    2bfe:	e2 1b       	sub	r30, r18
    2c00:	f3 0b       	sbc	r31, r19
    2c02:	e5 51       	subi	r30, 0x15	; 21
    2c04:	fb 4f       	sbci	r31, 0xFB	; 251
    2c06:	95 8d       	ldd	r25, Z+29	; 0x1d
    2c08:	91 30       	cpi	r25, 0x01	; 1
    2c0a:	09 f4       	brne	.+2      	; 0x2c0e <_nrk_stats_task_start+0x24>
    2c0c:	52 c0       	rjmp	.+164    	; 0x2cb2 <_nrk_stats_task_start+0xc8>
    2c0e:	e8 2f       	mov	r30, r24
    2c10:	f0 e0       	ldi	r31, 0x00	; 0
    2c12:	9f 01       	movw	r18, r30
    2c14:	22 0f       	add	r18, r18
    2c16:	33 1f       	adc	r19, r19
    2c18:	55 e0       	ldi	r21, 0x05	; 5
    2c1a:	ee 0f       	add	r30, r30
    2c1c:	ff 1f       	adc	r31, r31
    2c1e:	5a 95       	dec	r21
    2c20:	e1 f7       	brne	.-8      	; 0x2c1a <_nrk_stats_task_start+0x30>
    2c22:	e2 1b       	sub	r30, r18
    2c24:	f3 0b       	sbc	r31, r19
    2c26:	e5 51       	subi	r30, 0x15	; 21
    2c28:	fb 4f       	sbci	r31, 0xFB	; 251
    2c2a:	14 8a       	std	Z+20, r1	; 0x14
    2c2c:	15 8a       	std	Z+21, r1	; 0x15
    2c2e:	16 8a       	std	Z+22, r1	; 0x16
    2c30:	17 8a       	std	Z+23, r1	; 0x17
    2c32:	e8 2f       	mov	r30, r24
    2c34:	f0 e0       	ldi	r31, 0x00	; 0
    2c36:	9f 01       	movw	r18, r30
    2c38:	22 0f       	add	r18, r18
    2c3a:	33 1f       	adc	r19, r19
    2c3c:	95 e0       	ldi	r25, 0x05	; 5
    2c3e:	ee 0f       	add	r30, r30
    2c40:	ff 1f       	adc	r31, r31
    2c42:	9a 95       	dec	r25
    2c44:	e1 f7       	brne	.-8      	; 0x2c3e <_nrk_stats_task_start+0x54>
    2c46:	e2 1b       	sub	r30, r18
    2c48:	f3 0b       	sbc	r31, r19
    2c4a:	e5 51       	subi	r30, 0x15	; 21
    2c4c:	fb 4f       	sbci	r31, 0xFB	; 251
    2c4e:	20 89       	ldd	r18, Z+16	; 0x10
    2c50:	31 89       	ldd	r19, Z+17	; 0x11
    2c52:	42 89       	ldd	r20, Z+18	; 0x12
    2c54:	53 89       	ldd	r21, Z+19	; 0x13
    2c56:	2f 5f       	subi	r18, 0xFF	; 255
    2c58:	3f 4f       	sbci	r19, 0xFF	; 255
    2c5a:	4f 4f       	sbci	r20, 0xFF	; 255
    2c5c:	5f 4f       	sbci	r21, 0xFF	; 255
    2c5e:	e8 2f       	mov	r30, r24
    2c60:	f0 e0       	ldi	r31, 0x00	; 0
    2c62:	bf 01       	movw	r22, r30
    2c64:	66 0f       	add	r22, r22
    2c66:	77 1f       	adc	r23, r23
    2c68:	a5 e0       	ldi	r26, 0x05	; 5
    2c6a:	ee 0f       	add	r30, r30
    2c6c:	ff 1f       	adc	r31, r31
    2c6e:	aa 95       	dec	r26
    2c70:	e1 f7       	brne	.-8      	; 0x2c6a <_nrk_stats_task_start+0x80>
    2c72:	e6 1b       	sub	r30, r22
    2c74:	f7 0b       	sbc	r31, r23
    2c76:	e5 51       	subi	r30, 0x15	; 21
    2c78:	fb 4f       	sbci	r31, 0xFB	; 251
    2c7a:	20 8b       	std	Z+16, r18	; 0x10
    2c7c:	31 8b       	std	Z+17, r19	; 0x11
    2c7e:	42 8b       	std	Z+18, r20	; 0x12
    2c80:	53 8b       	std	Z+19, r21	; 0x13
    2c82:	2e 3f       	cpi	r18, 0xFE	; 254
    2c84:	9f ef       	ldi	r25, 0xFF	; 255
    2c86:	39 07       	cpc	r19, r25
    2c88:	9f ef       	ldi	r25, 0xFF	; 255
    2c8a:	49 07       	cpc	r20, r25
    2c8c:	9f ef       	ldi	r25, 0xFF	; 255
    2c8e:	59 07       	cpc	r21, r25
    2c90:	81 f4       	brne	.+32     	; 0x2cb2 <_nrk_stats_task_start+0xc8>
    2c92:	e8 2f       	mov	r30, r24
    2c94:	f0 e0       	ldi	r31, 0x00	; 0
    2c96:	cf 01       	movw	r24, r30
    2c98:	88 0f       	add	r24, r24
    2c9a:	99 1f       	adc	r25, r25
    2c9c:	25 e0       	ldi	r18, 0x05	; 5
    2c9e:	ee 0f       	add	r30, r30
    2ca0:	ff 1f       	adc	r31, r31
    2ca2:	2a 95       	dec	r18
    2ca4:	e1 f7       	brne	.-8      	; 0x2c9e <_nrk_stats_task_start+0xb4>
    2ca6:	e8 1b       	sub	r30, r24
    2ca8:	f9 0b       	sbc	r31, r25
    2caa:	e5 51       	subi	r30, 0x15	; 21
    2cac:	fb 4f       	sbci	r31, 0xFB	; 251
    2cae:	81 e0       	ldi	r24, 0x01	; 1
    2cb0:	85 8f       	std	Z+29, r24	; 0x1d
    2cb2:	08 95       	ret

00002cb4 <_nrk_stats_task_preempted>:
    2cb4:	ef 92       	push	r14
    2cb6:	ff 92       	push	r15
    2cb8:	cf 93       	push	r28
    2cba:	df 93       	push	r29
    2cbc:	a8 2f       	mov	r26, r24
    2cbe:	e8 2f       	mov	r30, r24
    2cc0:	f0 e0       	ldi	r31, 0x00	; 0
    2cc2:	cf 01       	movw	r24, r30
    2cc4:	88 0f       	add	r24, r24
    2cc6:	99 1f       	adc	r25, r25
    2cc8:	75 e0       	ldi	r23, 0x05	; 5
    2cca:	ee 0f       	add	r30, r30
    2ccc:	ff 1f       	adc	r31, r31
    2cce:	7a 95       	dec	r23
    2cd0:	e1 f7       	brne	.-8      	; 0x2cca <_nrk_stats_task_preempted+0x16>
    2cd2:	e8 1b       	sub	r30, r24
    2cd4:	f9 0b       	sbc	r31, r25
    2cd6:	e5 51       	subi	r30, 0x15	; 21
    2cd8:	fb 4f       	sbci	r31, 0xFB	; 251
    2cda:	85 8d       	ldd	r24, Z+29	; 0x1d
    2cdc:	81 30       	cpi	r24, 0x01	; 1
    2cde:	09 f4       	brne	.+2      	; 0x2ce2 <_nrk_stats_task_preempted+0x2e>
    2ce0:	b1 c0       	rjmp	.+354    	; 0x2e44 <_nrk_stats_task_preempted+0x190>
    2ce2:	ea 2f       	mov	r30, r26
    2ce4:	f0 e0       	ldi	r31, 0x00	; 0
    2ce6:	cf 01       	movw	r24, r30
    2ce8:	88 0f       	add	r24, r24
    2cea:	99 1f       	adc	r25, r25
    2cec:	45 e0       	ldi	r20, 0x05	; 5
    2cee:	ee 0f       	add	r30, r30
    2cf0:	ff 1f       	adc	r31, r31
    2cf2:	4a 95       	dec	r20
    2cf4:	e1 f7       	brne	.-8      	; 0x2cee <_nrk_stats_task_preempted+0x3a>
    2cf6:	e8 1b       	sub	r30, r24
    2cf8:	f9 0b       	sbc	r31, r25
    2cfa:	e5 51       	subi	r30, 0x15	; 21
    2cfc:	fb 4f       	sbci	r31, 0xFB	; 251
    2cfe:	ea 2e       	mov	r14, r26
    2d00:	e7 01       	movw	r28, r14
    2d02:	7e 01       	movw	r14, r28
    2d04:	20 e0       	ldi	r18, 0x00	; 0
    2d06:	f2 2e       	mov	r15, r18
    2d08:	e7 01       	movw	r28, r14
    2d0a:	c7 01       	movw	r24, r14
    2d0c:	88 0f       	add	r24, r24
    2d0e:	99 1f       	adc	r25, r25
    2d10:	25 e0       	ldi	r18, 0x05	; 5
    2d12:	cc 0f       	add	r28, r28
    2d14:	dd 1f       	adc	r29, r29
    2d16:	2a 95       	dec	r18
    2d18:	e1 f7       	brne	.-8      	; 0x2d12 <_nrk_stats_task_preempted+0x5e>
    2d1a:	c8 1b       	sub	r28, r24
    2d1c:	d9 0b       	sbc	r29, r25
    2d1e:	c5 51       	subi	r28, 0x15	; 21
    2d20:	db 4f       	sbci	r29, 0xFB	; 251
    2d22:	28 8d       	ldd	r18, Y+24	; 0x18
    2d24:	39 8d       	ldd	r19, Y+25	; 0x19
    2d26:	4a 8d       	ldd	r20, Y+26	; 0x1a
    2d28:	5b 8d       	ldd	r21, Y+27	; 0x1b
    2d2a:	2f 5f       	subi	r18, 0xFF	; 255
    2d2c:	3f 4f       	sbci	r19, 0xFF	; 255
    2d2e:	4f 4f       	sbci	r20, 0xFF	; 255
    2d30:	5f 4f       	sbci	r21, 0xFF	; 255
    2d32:	20 8f       	std	Z+24, r18	; 0x18
    2d34:	31 8f       	std	Z+25, r19	; 0x19
    2d36:	42 8f       	std	Z+26, r20	; 0x1a
    2d38:	53 8f       	std	Z+27, r21	; 0x1b
    2d3a:	70 e0       	ldi	r23, 0x00	; 0
    2d3c:	80 e0       	ldi	r24, 0x00	; 0
    2d3e:	90 e0       	ldi	r25, 0x00	; 0
    2d40:	ea 2f       	mov	r30, r26
    2d42:	f0 e0       	ldi	r31, 0x00	; 0
    2d44:	9f 01       	movw	r18, r30
    2d46:	22 0f       	add	r18, r18
    2d48:	33 1f       	adc	r19, r19
    2d4a:	55 e0       	ldi	r21, 0x05	; 5
    2d4c:	ee 0f       	add	r30, r30
    2d4e:	ff 1f       	adc	r31, r31
    2d50:	5a 95       	dec	r21
    2d52:	e1 f7       	brne	.-8      	; 0x2d4c <_nrk_stats_task_preempted+0x98>
    2d54:	e2 1b       	sub	r30, r18
    2d56:	f3 0b       	sbc	r31, r19
    2d58:	e5 51       	subi	r30, 0x15	; 21
    2d5a:	fb 4f       	sbci	r31, 0xFB	; 251
    2d5c:	ea 2e       	mov	r14, r26
    2d5e:	e7 01       	movw	r28, r14
    2d60:	7e 01       	movw	r14, r28
    2d62:	20 e0       	ldi	r18, 0x00	; 0
    2d64:	f2 2e       	mov	r15, r18
    2d66:	e7 01       	movw	r28, r14
    2d68:	97 01       	movw	r18, r14
    2d6a:	22 0f       	add	r18, r18
    2d6c:	33 1f       	adc	r19, r19
    2d6e:	b5 e0       	ldi	r27, 0x05	; 5
    2d70:	cc 0f       	add	r28, r28
    2d72:	dd 1f       	adc	r29, r29
    2d74:	ba 95       	dec	r27
    2d76:	e1 f7       	brne	.-8      	; 0x2d70 <_nrk_stats_task_preempted+0xbc>
    2d78:	c2 1b       	sub	r28, r18
    2d7a:	d3 0b       	sbc	r29, r19
    2d7c:	c5 51       	subi	r28, 0x15	; 21
    2d7e:	db 4f       	sbci	r29, 0xFB	; 251
    2d80:	2c 89       	ldd	r18, Y+20	; 0x14
    2d82:	3d 89       	ldd	r19, Y+21	; 0x15
    2d84:	4e 89       	ldd	r20, Y+22	; 0x16
    2d86:	5f 89       	ldd	r21, Y+23	; 0x17
    2d88:	26 0f       	add	r18, r22
    2d8a:	37 1f       	adc	r19, r23
    2d8c:	48 1f       	adc	r20, r24
    2d8e:	59 1f       	adc	r21, r25
    2d90:	24 8b       	std	Z+20, r18	; 0x14
    2d92:	35 8b       	std	Z+21, r19	; 0x15
    2d94:	46 8b       	std	Z+22, r20	; 0x16
    2d96:	57 8b       	std	Z+23, r21	; 0x17
    2d98:	ea 2f       	mov	r30, r26
    2d9a:	f0 e0       	ldi	r31, 0x00	; 0
    2d9c:	9f 01       	movw	r18, r30
    2d9e:	22 0f       	add	r18, r18
    2da0:	33 1f       	adc	r19, r19
    2da2:	45 e0       	ldi	r20, 0x05	; 5
    2da4:	ee 0f       	add	r30, r30
    2da6:	ff 1f       	adc	r31, r31
    2da8:	4a 95       	dec	r20
    2daa:	e1 f7       	brne	.-8      	; 0x2da4 <_nrk_stats_task_preempted+0xf0>
    2dac:	e2 1b       	sub	r30, r18
    2dae:	f3 0b       	sbc	r31, r19
    2db0:	e5 51       	subi	r30, 0x15	; 21
    2db2:	fb 4f       	sbci	r31, 0xFB	; 251
    2db4:	ea 2e       	mov	r14, r26
    2db6:	e7 01       	movw	r28, r14
    2db8:	7e 01       	movw	r14, r28
    2dba:	20 e0       	ldi	r18, 0x00	; 0
    2dbc:	f2 2e       	mov	r15, r18
    2dbe:	e7 01       	movw	r28, r14
    2dc0:	97 01       	movw	r18, r14
    2dc2:	22 0f       	add	r18, r18
    2dc4:	33 1f       	adc	r19, r19
    2dc6:	55 e0       	ldi	r21, 0x05	; 5
    2dc8:	cc 0f       	add	r28, r28
    2dca:	dd 1f       	adc	r29, r29
    2dcc:	5a 95       	dec	r21
    2dce:	e1 f7       	brne	.-8      	; 0x2dc8 <_nrk_stats_task_preempted+0x114>
    2dd0:	c2 1b       	sub	r28, r18
    2dd2:	d3 0b       	sbc	r29, r19
    2dd4:	c5 51       	subi	r28, 0x15	; 21
    2dd6:	db 4f       	sbci	r29, 0xFB	; 251
    2dd8:	28 81       	ld	r18, Y
    2dda:	39 81       	ldd	r19, Y+1	; 0x01
    2ddc:	4a 81       	ldd	r20, Y+2	; 0x02
    2dde:	5b 81       	ldd	r21, Y+3	; 0x03
    2de0:	26 0f       	add	r18, r22
    2de2:	37 1f       	adc	r19, r23
    2de4:	48 1f       	adc	r20, r24
    2de6:	59 1f       	adc	r21, r25
    2de8:	20 83       	st	Z, r18
    2dea:	31 83       	std	Z+1, r19	; 0x01
    2dec:	42 83       	std	Z+2, r20	; 0x02
    2dee:	53 83       	std	Z+3, r21	; 0x03
    2df0:	ea 2f       	mov	r30, r26
    2df2:	f0 e0       	ldi	r31, 0x00	; 0
    2df4:	cf 01       	movw	r24, r30
    2df6:	88 0f       	add	r24, r24
    2df8:	99 1f       	adc	r25, r25
    2dfa:	35 e0       	ldi	r19, 0x05	; 5
    2dfc:	ee 0f       	add	r30, r30
    2dfe:	ff 1f       	adc	r31, r31
    2e00:	3a 95       	dec	r19
    2e02:	e1 f7       	brne	.-8      	; 0x2dfc <_nrk_stats_task_preempted+0x148>
    2e04:	e8 1b       	sub	r30, r24
    2e06:	f9 0b       	sbc	r31, r25
    2e08:	e5 51       	subi	r30, 0x15	; 21
    2e0a:	fb 4f       	sbci	r31, 0xFB	; 251
    2e0c:	20 8d       	ldd	r18, Z+24	; 0x18
    2e0e:	31 8d       	ldd	r19, Z+25	; 0x19
    2e10:	42 8d       	ldd	r20, Z+26	; 0x1a
    2e12:	53 8d       	ldd	r21, Z+27	; 0x1b
    2e14:	2e 3f       	cpi	r18, 0xFE	; 254
    2e16:	8f ef       	ldi	r24, 0xFF	; 255
    2e18:	38 07       	cpc	r19, r24
    2e1a:	8f ef       	ldi	r24, 0xFF	; 255
    2e1c:	48 07       	cpc	r20, r24
    2e1e:	8f ef       	ldi	r24, 0xFF	; 255
    2e20:	58 07       	cpc	r21, r24
    2e22:	81 f4       	brne	.+32     	; 0x2e44 <_nrk_stats_task_preempted+0x190>
    2e24:	ea 2f       	mov	r30, r26
    2e26:	f0 e0       	ldi	r31, 0x00	; 0
    2e28:	cf 01       	movw	r24, r30
    2e2a:	88 0f       	add	r24, r24
    2e2c:	99 1f       	adc	r25, r25
    2e2e:	b5 e0       	ldi	r27, 0x05	; 5
    2e30:	ee 0f       	add	r30, r30
    2e32:	ff 1f       	adc	r31, r31
    2e34:	ba 95       	dec	r27
    2e36:	e1 f7       	brne	.-8      	; 0x2e30 <_nrk_stats_task_preempted+0x17c>
    2e38:	e8 1b       	sub	r30, r24
    2e3a:	f9 0b       	sbc	r31, r25
    2e3c:	e5 51       	subi	r30, 0x15	; 21
    2e3e:	fb 4f       	sbci	r31, 0xFB	; 251
    2e40:	81 e0       	ldi	r24, 0x01	; 1
    2e42:	85 8f       	std	Z+29, r24	; 0x1d
    2e44:	df 91       	pop	r29
    2e46:	cf 91       	pop	r28
    2e48:	ff 90       	pop	r15
    2e4a:	ef 90       	pop	r14
    2e4c:	08 95       	ret

00002e4e <_nrk_stats_task_suspend>:
    2e4e:	ef 92       	push	r14
    2e50:	ff 92       	push	r15
    2e52:	cf 93       	push	r28
    2e54:	df 93       	push	r29
    2e56:	e8 2f       	mov	r30, r24
    2e58:	a8 2f       	mov	r26, r24
    2e5a:	b0 e0       	ldi	r27, 0x00	; 0
    2e5c:	cd 01       	movw	r24, r26
    2e5e:	88 0f       	add	r24, r24
    2e60:	99 1f       	adc	r25, r25
    2e62:	75 e0       	ldi	r23, 0x05	; 5
    2e64:	aa 0f       	add	r26, r26
    2e66:	bb 1f       	adc	r27, r27
    2e68:	7a 95       	dec	r23
    2e6a:	e1 f7       	brne	.-8      	; 0x2e64 <_nrk_stats_task_suspend+0x16>
    2e6c:	a8 1b       	sub	r26, r24
    2e6e:	b9 0b       	sbc	r27, r25
    2e70:	a5 51       	subi	r26, 0x15	; 21
    2e72:	bb 4f       	sbci	r27, 0xFB	; 251
    2e74:	5d 96       	adiw	r26, 0x1d	; 29
    2e76:	8c 91       	ld	r24, X
    2e78:	5d 97       	sbiw	r26, 0x1d	; 29
    2e7a:	81 30       	cpi	r24, 0x01	; 1
    2e7c:	09 f4       	brne	.+2      	; 0x2e80 <_nrk_stats_task_suspend+0x32>
    2e7e:	fa c0       	rjmp	.+500    	; 0x3074 <_nrk_stats_task_suspend+0x226>
    2e80:	70 e0       	ldi	r23, 0x00	; 0
    2e82:	80 e0       	ldi	r24, 0x00	; 0
    2e84:	90 e0       	ldi	r25, 0x00	; 0
    2e86:	ae 2f       	mov	r26, r30
    2e88:	b0 e0       	ldi	r27, 0x00	; 0
    2e8a:	9d 01       	movw	r18, r26
    2e8c:	22 0f       	add	r18, r18
    2e8e:	33 1f       	adc	r19, r19
    2e90:	45 e0       	ldi	r20, 0x05	; 5
    2e92:	aa 0f       	add	r26, r26
    2e94:	bb 1f       	adc	r27, r27
    2e96:	4a 95       	dec	r20
    2e98:	e1 f7       	brne	.-8      	; 0x2e92 <_nrk_stats_task_suspend+0x44>
    2e9a:	a2 1b       	sub	r26, r18
    2e9c:	b3 0b       	sbc	r27, r19
    2e9e:	a5 51       	subi	r26, 0x15	; 21
    2ea0:	bb 4f       	sbci	r27, 0xFB	; 251
    2ea2:	ee 2e       	mov	r14, r30
    2ea4:	e7 01       	movw	r28, r14
    2ea6:	7e 01       	movw	r14, r28
    2ea8:	20 e0       	ldi	r18, 0x00	; 0
    2eaa:	f2 2e       	mov	r15, r18
    2eac:	e7 01       	movw	r28, r14
    2eae:	97 01       	movw	r18, r14
    2eb0:	22 0f       	add	r18, r18
    2eb2:	33 1f       	adc	r19, r19
    2eb4:	55 e0       	ldi	r21, 0x05	; 5
    2eb6:	cc 0f       	add	r28, r28
    2eb8:	dd 1f       	adc	r29, r29
    2eba:	5a 95       	dec	r21
    2ebc:	e1 f7       	brne	.-8      	; 0x2eb6 <_nrk_stats_task_suspend+0x68>
    2ebe:	c2 1b       	sub	r28, r18
    2ec0:	d3 0b       	sbc	r29, r19
    2ec2:	c5 51       	subi	r28, 0x15	; 21
    2ec4:	db 4f       	sbci	r29, 0xFB	; 251
    2ec6:	2c 89       	ldd	r18, Y+20	; 0x14
    2ec8:	3d 89       	ldd	r19, Y+21	; 0x15
    2eca:	4e 89       	ldd	r20, Y+22	; 0x16
    2ecc:	5f 89       	ldd	r21, Y+23	; 0x17
    2ece:	26 0f       	add	r18, r22
    2ed0:	37 1f       	adc	r19, r23
    2ed2:	48 1f       	adc	r20, r24
    2ed4:	59 1f       	adc	r21, r25
    2ed6:	1c 96       	adiw	r26, 0x0c	; 12
    2ed8:	2d 93       	st	X+, r18
    2eda:	3d 93       	st	X+, r19
    2edc:	4d 93       	st	X+, r20
    2ede:	5c 93       	st	X, r21
    2ee0:	1f 97       	sbiw	r26, 0x0f	; 15
    2ee2:	ae 2f       	mov	r26, r30
    2ee4:	b0 e0       	ldi	r27, 0x00	; 0
    2ee6:	9d 01       	movw	r18, r26
    2ee8:	22 0f       	add	r18, r18
    2eea:	33 1f       	adc	r19, r19
    2eec:	f5 e0       	ldi	r31, 0x05	; 5
    2eee:	aa 0f       	add	r26, r26
    2ef0:	bb 1f       	adc	r27, r27
    2ef2:	fa 95       	dec	r31
    2ef4:	e1 f7       	brne	.-8      	; 0x2eee <_nrk_stats_task_suspend+0xa0>
    2ef6:	a2 1b       	sub	r26, r18
    2ef8:	b3 0b       	sbc	r27, r19
    2efa:	a5 51       	subi	r26, 0x15	; 21
    2efc:	bb 4f       	sbci	r27, 0xFB	; 251
    2efe:	ee 2e       	mov	r14, r30
    2f00:	e7 01       	movw	r28, r14
    2f02:	7e 01       	movw	r14, r28
    2f04:	20 e0       	ldi	r18, 0x00	; 0
    2f06:	f2 2e       	mov	r15, r18
    2f08:	e7 01       	movw	r28, r14
    2f0a:	97 01       	movw	r18, r14
    2f0c:	22 0f       	add	r18, r18
    2f0e:	33 1f       	adc	r19, r19
    2f10:	45 e0       	ldi	r20, 0x05	; 5
    2f12:	cc 0f       	add	r28, r28
    2f14:	dd 1f       	adc	r29, r29
    2f16:	4a 95       	dec	r20
    2f18:	e1 f7       	brne	.-8      	; 0x2f12 <_nrk_stats_task_suspend+0xc4>
    2f1a:	c2 1b       	sub	r28, r18
    2f1c:	d3 0b       	sbc	r29, r19
    2f1e:	c5 51       	subi	r28, 0x15	; 21
    2f20:	db 4f       	sbci	r29, 0xFB	; 251
    2f22:	28 81       	ld	r18, Y
    2f24:	39 81       	ldd	r19, Y+1	; 0x01
    2f26:	4a 81       	ldd	r20, Y+2	; 0x02
    2f28:	5b 81       	ldd	r21, Y+3	; 0x03
    2f2a:	26 0f       	add	r18, r22
    2f2c:	37 1f       	adc	r19, r23
    2f2e:	48 1f       	adc	r20, r24
    2f30:	59 1f       	adc	r21, r25
    2f32:	2d 93       	st	X+, r18
    2f34:	3d 93       	st	X+, r19
    2f36:	4d 93       	st	X+, r20
    2f38:	5c 93       	st	X, r21
    2f3a:	13 97       	sbiw	r26, 0x03	; 3
    2f3c:	ae 2f       	mov	r26, r30
    2f3e:	b0 e0       	ldi	r27, 0x00	; 0
    2f40:	cd 01       	movw	r24, r26
    2f42:	88 0f       	add	r24, r24
    2f44:	99 1f       	adc	r25, r25
    2f46:	f5 e0       	ldi	r31, 0x05	; 5
    2f48:	aa 0f       	add	r26, r26
    2f4a:	bb 1f       	adc	r27, r27
    2f4c:	fa 95       	dec	r31
    2f4e:	e1 f7       	brne	.-8      	; 0x2f48 <_nrk_stats_task_suspend+0xfa>
    2f50:	a8 1b       	sub	r26, r24
    2f52:	b9 0b       	sbc	r27, r25
    2f54:	a5 51       	subi	r26, 0x15	; 21
    2f56:	bb 4f       	sbci	r27, 0xFB	; 251
    2f58:	14 96       	adiw	r26, 0x04	; 4
    2f5a:	2d 91       	ld	r18, X+
    2f5c:	3d 91       	ld	r19, X+
    2f5e:	4d 91       	ld	r20, X+
    2f60:	5c 91       	ld	r21, X
    2f62:	17 97       	sbiw	r26, 0x07	; 7
    2f64:	21 15       	cp	r18, r1
    2f66:	31 05       	cpc	r19, r1
    2f68:	41 05       	cpc	r20, r1
    2f6a:	51 05       	cpc	r21, r1
    2f6c:	c9 f0       	breq	.+50     	; 0x2fa0 <_nrk_stats_task_suspend+0x152>
    2f6e:	ae 2f       	mov	r26, r30
    2f70:	b0 e0       	ldi	r27, 0x00	; 0
    2f72:	cd 01       	movw	r24, r26
    2f74:	88 0f       	add	r24, r24
    2f76:	99 1f       	adc	r25, r25
    2f78:	65 e0       	ldi	r22, 0x05	; 5
    2f7a:	aa 0f       	add	r26, r26
    2f7c:	bb 1f       	adc	r27, r27
    2f7e:	6a 95       	dec	r22
    2f80:	e1 f7       	brne	.-8      	; 0x2f7a <_nrk_stats_task_suspend+0x12c>
    2f82:	a8 1b       	sub	r26, r24
    2f84:	b9 0b       	sbc	r27, r25
    2f86:	a5 51       	subi	r26, 0x15	; 21
    2f88:	bb 4f       	sbci	r27, 0xFB	; 251
    2f8a:	1c 96       	adiw	r26, 0x0c	; 12
    2f8c:	8d 91       	ld	r24, X+
    2f8e:	9d 91       	ld	r25, X+
    2f90:	0d 90       	ld	r0, X+
    2f92:	bc 91       	ld	r27, X
    2f94:	a0 2d       	mov	r26, r0
    2f96:	82 17       	cp	r24, r18
    2f98:	93 07       	cpc	r25, r19
    2f9a:	a4 07       	cpc	r26, r20
    2f9c:	b5 07       	cpc	r27, r21
    2f9e:	50 f5       	brcc	.+84     	; 0x2ff4 <_nrk_stats_task_suspend+0x1a6>
    2fa0:	8e 2f       	mov	r24, r30
    2fa2:	ec 01       	movw	r28, r24
    2fa4:	7e 01       	movw	r14, r28
    2fa6:	20 e0       	ldi	r18, 0x00	; 0
    2fa8:	f2 2e       	mov	r15, r18
    2faa:	e7 01       	movw	r28, r14
    2fac:	c7 01       	movw	r24, r14
    2fae:	88 0f       	add	r24, r24
    2fb0:	99 1f       	adc	r25, r25
    2fb2:	45 e0       	ldi	r20, 0x05	; 5
    2fb4:	cc 0f       	add	r28, r28
    2fb6:	dd 1f       	adc	r29, r29
    2fb8:	4a 95       	dec	r20
    2fba:	e1 f7       	brne	.-8      	; 0x2fb4 <_nrk_stats_task_suspend+0x166>
    2fbc:	c8 1b       	sub	r28, r24
    2fbe:	d9 0b       	sbc	r29, r25
    2fc0:	c5 51       	subi	r28, 0x15	; 21
    2fc2:	db 4f       	sbci	r29, 0xFB	; 251
    2fc4:	ae 2f       	mov	r26, r30
    2fc6:	b0 e0       	ldi	r27, 0x00	; 0
    2fc8:	cd 01       	movw	r24, r26
    2fca:	88 0f       	add	r24, r24
    2fcc:	99 1f       	adc	r25, r25
    2fce:	25 e0       	ldi	r18, 0x05	; 5
    2fd0:	aa 0f       	add	r26, r26
    2fd2:	bb 1f       	adc	r27, r27
    2fd4:	2a 95       	dec	r18
    2fd6:	e1 f7       	brne	.-8      	; 0x2fd0 <_nrk_stats_task_suspend+0x182>
    2fd8:	a8 1b       	sub	r26, r24
    2fda:	b9 0b       	sbc	r27, r25
    2fdc:	a5 51       	subi	r26, 0x15	; 21
    2fde:	bb 4f       	sbci	r27, 0xFB	; 251
    2fe0:	1c 96       	adiw	r26, 0x0c	; 12
    2fe2:	8d 91       	ld	r24, X+
    2fe4:	9d 91       	ld	r25, X+
    2fe6:	0d 90       	ld	r0, X+
    2fe8:	bc 91       	ld	r27, X
    2fea:	a0 2d       	mov	r26, r0
    2fec:	8c 83       	std	Y+4, r24	; 0x04
    2fee:	9d 83       	std	Y+5, r25	; 0x05
    2ff0:	ae 83       	std	Y+6, r26	; 0x06
    2ff2:	bf 83       	std	Y+7, r27	; 0x07
    2ff4:	ae 2f       	mov	r26, r30
    2ff6:	b0 e0       	ldi	r27, 0x00	; 0
    2ff8:	cd 01       	movw	r24, r26
    2ffa:	88 0f       	add	r24, r24
    2ffc:	99 1f       	adc	r25, r25
    2ffe:	75 e0       	ldi	r23, 0x05	; 5
    3000:	aa 0f       	add	r26, r26
    3002:	bb 1f       	adc	r27, r27
    3004:	7a 95       	dec	r23
    3006:	e1 f7       	brne	.-8      	; 0x3000 <_nrk_stats_task_suspend+0x1b2>
    3008:	a8 1b       	sub	r26, r24
    300a:	b9 0b       	sbc	r27, r25
    300c:	a5 51       	subi	r26, 0x15	; 21
    300e:	bb 4f       	sbci	r27, 0xFB	; 251
    3010:	1c 96       	adiw	r26, 0x0c	; 12
    3012:	2d 91       	ld	r18, X+
    3014:	3d 91       	ld	r19, X+
    3016:	4d 91       	ld	r20, X+
    3018:	5c 91       	ld	r21, X
    301a:	1f 97       	sbiw	r26, 0x0f	; 15
    301c:	ae 2f       	mov	r26, r30
    301e:	b0 e0       	ldi	r27, 0x00	; 0
    3020:	cd 01       	movw	r24, r26
    3022:	88 0f       	add	r24, r24
    3024:	99 1f       	adc	r25, r25
    3026:	f5 e0       	ldi	r31, 0x05	; 5
    3028:	aa 0f       	add	r26, r26
    302a:	bb 1f       	adc	r27, r27
    302c:	fa 95       	dec	r31
    302e:	e1 f7       	brne	.-8      	; 0x3028 <_nrk_stats_task_suspend+0x1da>
    3030:	a8 1b       	sub	r26, r24
    3032:	b9 0b       	sbc	r27, r25
    3034:	a5 51       	subi	r26, 0x15	; 21
    3036:	bb 4f       	sbci	r27, 0xFB	; 251
    3038:	18 96       	adiw	r26, 0x08	; 8
    303a:	6d 91       	ld	r22, X+
    303c:	7d 91       	ld	r23, X+
    303e:	8d 91       	ld	r24, X+
    3040:	9c 91       	ld	r25, X
    3042:	1b 97       	sbiw	r26, 0x0b	; 11
    3044:	62 17       	cp	r22, r18
    3046:	73 07       	cpc	r23, r19
    3048:	84 07       	cpc	r24, r20
    304a:	95 07       	cpc	r25, r21
    304c:	98 f4       	brcc	.+38     	; 0x3074 <_nrk_stats_task_suspend+0x226>
    304e:	8e 2f       	mov	r24, r30
    3050:	90 e0       	ldi	r25, 0x00	; 0
    3052:	bc 01       	movw	r22, r24
    3054:	66 0f       	add	r22, r22
    3056:	77 1f       	adc	r23, r23
    3058:	fc 01       	movw	r30, r24
    305a:	85 e0       	ldi	r24, 0x05	; 5
    305c:	ee 0f       	add	r30, r30
    305e:	ff 1f       	adc	r31, r31
    3060:	8a 95       	dec	r24
    3062:	e1 f7       	brne	.-8      	; 0x305c <_nrk_stats_task_suspend+0x20e>
    3064:	e6 1b       	sub	r30, r22
    3066:	f7 0b       	sbc	r31, r23
    3068:	e5 51       	subi	r30, 0x15	; 21
    306a:	fb 4f       	sbci	r31, 0xFB	; 251
    306c:	20 87       	std	Z+8, r18	; 0x08
    306e:	31 87       	std	Z+9, r19	; 0x09
    3070:	42 87       	std	Z+10, r20	; 0x0a
    3072:	53 87       	std	Z+11, r21	; 0x0b
    3074:	df 91       	pop	r29
    3076:	cf 91       	pop	r28
    3078:	ff 90       	pop	r15
    307a:	ef 90       	pop	r14
    307c:	08 95       	ret

0000307e <nrk_stats_display_pid>:
    307e:	8f 92       	push	r8
    3080:	9f 92       	push	r9
    3082:	af 92       	push	r10
    3084:	bf 92       	push	r11
    3086:	cf 92       	push	r12
    3088:	df 92       	push	r13
    308a:	ef 92       	push	r14
    308c:	ff 92       	push	r15
    308e:	1f 93       	push	r17
    3090:	df 93       	push	r29
    3092:	cf 93       	push	r28
    3094:	cd b7       	in	r28, 0x3d	; 61
    3096:	de b7       	in	r29, 0x3e	; 62
    3098:	60 97       	sbiw	r28, 0x10	; 16
    309a:	0f b6       	in	r0, 0x3f	; 63
    309c:	f8 94       	cli
    309e:	de bf       	out	0x3e, r29	; 62
    30a0:	0f be       	out	0x3f, r0	; 63
    30a2:	cd bf       	out	0x3d, r28	; 61
    30a4:	18 2f       	mov	r17, r24
    30a6:	8b e1       	ldi	r24, 0x1B	; 27
    30a8:	92 e0       	ldi	r25, 0x02	; 2
    30aa:	0e 94 32 10 	call	0x2064	; 0x2064 <nrk_kprintf>
    30ae:	00 d0       	rcall	.+0      	; 0x30b0 <nrk_stats_display_pid+0x32>
    30b0:	00 d0       	rcall	.+0      	; 0x30b2 <nrk_stats_display_pid+0x34>
    30b2:	ed b7       	in	r30, 0x3d	; 61
    30b4:	fe b7       	in	r31, 0x3e	; 62
    30b6:	31 96       	adiw	r30, 0x01	; 1
    30b8:	8a e4       	ldi	r24, 0x4A	; 74
    30ba:	91 e0       	ldi	r25, 0x01	; 1
    30bc:	ad b7       	in	r26, 0x3d	; 61
    30be:	be b7       	in	r27, 0x3e	; 62
    30c0:	12 96       	adiw	r26, 0x02	; 2
    30c2:	9c 93       	st	X, r25
    30c4:	8e 93       	st	-X, r24
    30c6:	11 97       	sbiw	r26, 0x01	; 1
    30c8:	12 83       	std	Z+2, r17	; 0x02
    30ca:	13 82       	std	Z+3, r1	; 0x03
    30cc:	0e 94 47 4a 	call	0x948e	; 0x948e <printf>
    30d0:	0f 90       	pop	r0
    30d2:	0f 90       	pop	r0
    30d4:	0f 90       	pop	r0
    30d6:	0f 90       	pop	r0
    30d8:	11 23       	and	r17, r17
    30da:	09 f0       	breq	.+2      	; 0x30de <nrk_stats_display_pid+0x60>
    30dc:	85 c0       	rjmp	.+266    	; 0x31e8 <nrk_stats_display_pid+0x16a>
    30de:	80 e0       	ldi	r24, 0x00	; 0
    30e0:	92 e0       	ldi	r25, 0x02	; 2
    30e2:	0e 94 32 10 	call	0x2064	; 0x2064 <nrk_kprintf>
